Fc:_glClearStencil
WKe:_Array_InternalArray__ICollection_Add_TisMark_t2724874473_m1613484179_gshared
Usi:__ZL80Graphic_t2426225576_CustomAttributesCacheGenerator_Graphic_OnFillVBO_m1723985607P21CustomAttributesCache
xog:_RuntimeTypeHandle_GetObjectData_m3567098501
Ztd:__ZN6il2cpp2vm5Array13GetByteLengthEP11Il2CppArray
iAi:_Raycast3DCallback_BeginInvoke_m3028685017
cIg:__Z79RuntimeInvoker_RuntimeObject_Int64_t909078037_Int64_t909078037_Int64_t909078037PFvvEPK10MethodInfoPvPS4_
dOh:_EqualityComparer_1__cctor_m968537130_gshared
xsj:_TextGenerator_get_lineCount_m4287181941
_Tf:_Comparison_1_Invoke_m353639462_gshared
eCg:_UInt64_System_IConvertible_ToDecimal_m4205696037
R3d:_GraphicRegistry_RegisterGraphicForCanvas_m2284226562
fIa:__Z21SourceMipLevelForBlitiiii
Xlb:__ZN31CanvasBatchIntermediateRenderer15AddAsRenderNodeER15RenderNodeQueueRK20DeprecatedSourceData
loe:_Enumerator_get_Key_m2908810861
zKi:_AnimatorControllerPlayable_SetBool_m1780824884_AdjustorThunk
xF:__ZN23AnimationOffsetPlayable11SetRotationE11Quaternionf
cs:__ZN11UnityEngine9Animation28GenericAnimationBindingCacheD2Ev
bJi:_AnimationOffsetPlayable_op_Explicit_m363086289
Apf:_List_1_System_Collections_IList_IndexOf_m39706221_gshared
aIh:_Dictionary_2_Remove_m1849931834_gshared
Qqe:_Decimal_op_Implicit_m2971610317
n1d:_Graphic_UnregisterDirtyVerticesCallback_m1526739224
m8a:__Z18RestoreRenderStateR20CameraRenderOldStateR17ShaderPassContext
Tje:_SynchronizedArrayListWrapper_get_Item_m3309425850
GNb:__Z18Transfer_BlittableI18StreamedBinaryReadILb1EELb1E5RectTIfEEvRK29SerializationCommandArgumentsR31RuntimeSerializationCommandInfo
WJb:__Z18Transfer_BlittableI24GenerateTypeTreeTransferLb0E11ColorRGBA32EvRK29SerializationCommandArgumentsR31RuntimeSerializationCommandInfo
p4:__Z25scripting_class_from_name17ScriptingImagePtrPKcS1_
Dgd:__ZN14dense_hash_mapI10KeyWrapperINSt3__24pairIPK12PropertyInfoP11Il2CppClassEEEj17ReflectionMapHashIS8_ENS9_14EqualsComparerINS1_8equal_toIS8_EEEENS1_9allocatorINS2_IKS9_jEEEEE15set_deleted_keyERSH_
QCb:__Z29scripting_class_enum_basetype17ScriptingClassPtr
BTg:__Z111RuntimeInvoker_Void_t1841601450_Vector4_t2243707581_Vector4_t2243707581_Vector4_t2243707581_Vector4_t2243707581PFvvEPK10MethodInfoPvPS4_
odh:_GenericTypeParameterBuilder_GetHashCode_m867619899
lyg:_TimeSpan_ToString_m2947282901
wNh:_EqualityComparer_1__cctor_m3397254040_gshared
yea:__ZNK20LocalFileSystemPosix6ParentERK13FileEntryDataRN4core12basic_stringIcNS3_20StringStorageDefaultIcEEEE
rsj:_TextGenerator_get_verts_m3124035267
_uj:_Vector2_get_one_m3174311904
kQe:_Array_Sort_TisVector2_t2243707579_m1307634946_gshared
Mxa:__ZN17PersistentManager22CheckInstanceIDsLoadedEPii
$Fa:__ZN7ApiGLES17CopyBufferSubDataEjjlll
vnb:__ZNK20ScriptPlayableOutput7GetTypeEv
$Kj:_U3CCreateWhereIteratorU3Ec__Iterator1D_1_Reset_m1773515612_gshared
J$a:__ZN25CameraStackRenderingState20GetOrCreateBuiltinRTE24BuiltinRenderTextureTypeii17DepthBufferFormat19RenderTextureFormatj22RenderTextureReadWrite14VRTextureUsagei
$Bj:_AesManaged_CreateEncryptor_m1729287824
n4a:__ZN17PrePassRenderLoop14RenderBasePassEP13RenderTextureRK14LightingLayersR13dynamic_arrayI16RenderObjectDataLj4EERbR10MinMaxAABB
Yge:_Char_System_IConvertible_ToInt16_m2741348777_AdjustorThunk
Ukc:__ZN5IMGUI18RepaintModalWindowER8GUIState
OMf:_ReadOnlyCollection_1_System_Collections_Generic_IListU3CTU3E_set_Item_m1547026160_gshared
RSh:__ZL61MarshalAsAttribute_t2900773360_CustomAttributesCacheGeneratorP21CustomAttributesCache
btb:__Z23SetSpriteMeshIndexCountP14SharedMeshDataj
Rha:__ZN7Texture13SetFilterModeEi
cbc:__Z46Register_UnityEngine_Application_get_isPlayingv
Cvd:__ZN6il2cpp8metadata13GenericMethod9GetMethodEPK19Il2CppGenericMethod
Iq:__ZNSt3__26vectorIN4core12basic_stringIcNS1_20StringStorageDefaultIcEEEENS_9allocatorIS5_EEE7reserveEj
ite:_Convert_ToUInt16_m2130758075
cVg:__Z132RuntimeInvoker_Void_t1841601450_RuntimeObject_AnimatorStateInfo_t2577870592_Int32_t2071877448_AnimatorControllerPlayable_t1744083903PFvvEPK10MethodInfoPvPS4_
ebg:_X509BasicConstraintsExtension_Encode_m3505127076
QAi:_Scrollbar_OnRectTransformDimensionsChange_m330142657
SAa:__ZN13GfxDeviceGLES11SetViewportERK5RectTIiE
l6d:_Image_get_pixelsPerUnit_m4104195799
FGi:_Toggle_InternalToggle_m2323729210
$we:_Decimal_System_IConvertible_ToInt64_m2504363272
vic:__Z24Time_Get_Custom_PropTimev
ece:_Array_GetValue_m3182152438
Wd:_emscripten_glDepthRange
xqg:_DESTransform_CipherFunct_m3559419566
TCg:_UIntPtr_get_Size_m537421489
kId:_Rijndael_Create_m113171669
omh:_GUILayoutGroup_CalcWidth_m4107152934
iTb:__Z14resize_trimmedINSt3__26vectorIN9ShaderLab20SerializedSubProgram12UAVParameterENS0_9allocatorIS4_EEEEEvRT_j
Ugg:_SerializationInfo_AddValue_m1781549036
HIi:_AnimationLayerMixerPlayable_SetLayerMaskFromAvatarMask_m2582039992_AdjustorThunk
U_f:_TlsServerKeyExchange_verifySignature_m3641534563
TEi:_Slider_FindSelectableOnLeft_m3136767885
FHa:__ZN4crndL20crnd_default_reallocEPvjPjbS0_
RHe:_Array_BinarySearch_TisInt32_t2071877448_m51233948_gshared
sPj:__ZNSt3__212basic_stringIcNS_11char_traitsIcEENS_9allocatorIcEEEC2ERKS5_
akg:_ProviderData_CopyFrom_m431414335
Utb:__ZN18SpriteAtlasManager19AddRequestingSpriteE4PPtrI6SpriteE
Ytg:_UTF32Encoding_GetPreamble_m767706727
gic:__Z33Texture_CUSTOM_Internal_GetHeightP12Il2CppObject
Cae:_LayoutGroup_get_preferredHeight_m3901163825
l7a:__ZN23ScriptableRenderContextC2Ev
Jac:__Z22InverseTransformVector23TransformAccessReadOnlyRKN4math7_float3E
Aqe:_DateTime_AbsoluteDays_m3061694073
gKc:_UNITY_FT_Stream_GetChar
dOb:__Z18Transfer_BlittableI18StreamedBinaryReadILb1EELb1EdEvRK29SerializationCommandArgumentsR31RuntimeSerializationCommandInfo
_Bh:_Enumerator_System_Collections_IEnumerator_get_Current_m229223308_gshared
ZCb:__Z26BuildSerializationCacheFor17ScriptingClassPtrRb
nKa:__ZN7ApiGLES15BlitFramebufferEN2gl6HandleILNS0_10ObjectTypeE9EEENS0_15FramebufferReadES3_S3_iiiiiiiiNS0_15FramebufferTypeE
CSg:__Z112RuntimeInvoker_RuntimeObject_RuntimeObject_RuntimeObject_RuntimeObject_RuntimeObject_RuntimeObject_RuntimeObjectPFvvEPK10MethodInfoPvPS4_
XVi:_Event_Init_m3901382626
Cje:_FixedSizeArrayListWrapper_AddRange_m2071800418
ND:__ZN13ProduceHelperI8AnimatorLb0EE7ProduceE18MemLabelIdentifier18ObjectCreationMode
Pfa:__Z9InitInputv
ONg:__Z85RuntimeInvoker_Boolean_t3825574718_Int64_t909078037_Int64_t909078037_SByte_t454417549PFvvEPK10MethodInfoPvPS4_
nof:_Enumerator_VerifyState_m2358705882_AdjustorThunk
dDc:_UNITY_tt_face_build_cmaps
ccd:__ZN6il2cpp2gc19AppendOnlyGCHashMapINSt3__24pairIPK10MethodInfoP11Il2CppClassEEP22Il2CppReflectionMethod17ReflectionMapHashIS9_ENS2_8equal_toIS9_EEE3AddERKS9_SB_
Aeb:__ZN16MemoryFileSystem6DeleteER13FileEntryDatab
rvj:_Vector3_get_normalized_m936072361
ova:__ZL21BlitScaleStbImageImplRK14ImageReferenceRS_NS_10ColorSpaceE
z5f:_TlsStream_set_Position_m378064217
pGb:__Z29Transfer_Blittable_ArrayFieldI14SafeBinaryReadyEvRT_R9ArrayInfoRK23StaticTransferFieldInfo
AO:__ZN20SoundChannelInstance15setChannelGroupEPN4FMOD12ChannelGroupE
sNd:_Evidence_Equals_m2325859915
y8g:_Default__ctor_m172834064
tc:invoke_vifffii
Hkd:__ZN6il2cpp2vm9Exception27RaiseNullReferenceExceptionEv
Rij:_Regex_IsMatch_m2159202025
SQa:__ZNK25MultiBlocksMemoryFileData5CloneEv
fBd:_GC_add_ext_descriptor
ahg:_RemotingServices_GetMethodBaseFromName_m3271095947
tRj:dynCall_iiiiiiiiiiii
zSd:_ASCIIEncoding_GetBytes_m3617160053
YZf:_CipherSuiteCollection_System_Collections_IList_RemoveAt_m143866082
IE:__ZN26AnimatorControllerPlayable26ParameterControlledByCurveEi
yXb:__ZL26KeywordSetToStringDontSortRKNSt3__26vectorIN4core12basic_stringIcNS1_20StringStorageDefaultIcEEEENS_9allocatorIS5_EEEERS5_
rqa:__ZN6prcoreL17RemapGenericFloatI16TexFormatRGFloat17TexFormatRGBAHalfEEvPKNS_9InnerInfoE
eJ:__ZN12AudioManager22CreateFMODSoundFromWWWEP10IWWWStream15FMOD_SOUND_TYPE17FMOD_SOUND_FORMATjjbbP10SampleClip
U1b:__ZNK32RendererMaterialAnimationBinding15GenerateBindingERKN4core12basic_stringIcNS0_20StringStorageDefaultIcEEEEbRN11UnityEngine9Animation14GenericBindingE
YQ:__ZNK19AudioPlayableOutput7GetTypeEv
F3:__ZN8Remapper23GetOrGenerateInstanceIDERK26SerializedObjectIdentifier
A5e:_StreamWriter_Flush_m3426120024
OSa:__ZN17FileSystemHandler10AtomicMoveER13FileEntryDataS1_
_a:invoke_iiiiiifffiiifii
d3e:_MemoryStream__ctor_m1489366847
NNd:_SecurityElement_IsValidTag_m64902195
bCh:_Enumerator_System_Collections_IEnumerator_get_Current_m229223308_AdjustorThunk
pjh:_PropertyInfo_SetValue_m2961483868
Dlh:_GUILayoutEntry_set_style_m70917293
fvf:_List_1_System_Collections_IList_Contains_m4193366963_gshared
W8g:_ConstructorInfo_Invoke_m2144827141
otb:__ZN6Sprite8TransferI24GenerateTypeTreeTransferEEvRT_
kjc:__Z48Register_UnityEngine_Transform_SetAsFirstSiblingv
Qjh:_Font_get_fontSize_m1732593415
rtb:__ZN7SubMesh8TransferI24GenerateTypeTreeTransferEEvRT_
sih:_MonoProperty_get_CanWrite_m2124922514
b5c:__ZN6il2cpp6icalls8mscorlib6SystemL16CheckMemberMatchI9FieldInfoNS_5utils10functional6FilterINSt3__212basic_stringIcNS8_11char_traitsIcEENS8_9allocatorIcEEEENS5_13VmStringUtils23CaseInsensitiveComparerEEEEEbPKT_PK11Il2CppClassSN_iRKT0_
vOj:_poll
R2e:_Stream_BeginRead_m1985960185
qoh:_GUIStyle_GetFontInternalDuringLoadingThread_m229734483
a0b:__ZN13ProduceHelperI14Texture2DArrayLb0EE7ProduceE18MemLabelIdentifier18ObjectCreationMode
mXf:_MD4Managed_GG_m1462438360
ofc:__Z46Mesh_CUSTOM_PrintErrorCantAccessMeshForIndicesP12Il2CppObject
sgc:__Z53PlayableHandle_CUSTOM_INTERNAL_CALL_GetPlayableTypeOfR9HPlayable
Bac:__ZN9Transform23SetSiblingIndexInternalEib
ycf:_SimpleCollator_LastIndexOfOrdinal_m45234497
F0e:_BinaryReader_CheckBuffer_m1059275266
eBa:__ZN13GfxDeviceGLES17DestroySubProgramEPN9ShaderLab10SubProgramE
Ut:__ZN7mecanim5human12HumanPoseSubERNS0_9HumanPoseERKS1_S4_
_Wf:_MD4_Create_m2582504069
Cpd:__ZN6il2cpp8metadata15GenericMetadata15GetGenericClassEiPK17Il2CppGenericInst
Jee:_Boolean_System_IConvertible_ToInt16_m977801621
dFb:__Z18Transfer_BlittableI14SafeBinaryReadLb0E10Matrix4x4fEvRK29SerializationCommandArgumentsR31RuntimeSerializationCommandInfo
DUa:__Z24GetFixedBehaviourManagerv
VYa:__ZN12FlareManager9UpdateJobEP25FlareManagerUpdateJobData
G4c:__ZN6il2cpp2vm10ThreadPool4WaitEP17Il2CppAsyncResultPPv
GMj:_vfprintf
GZa:__ZN20DynamicPropertySheetD0Ev
$bb:__ZN14SafeBinaryRead17RegisterConverterEPKcS1_PFbPvRS_E
$Z:__ZN35RegisterRuntimeInitializeAndCleanup8RegisterEPFvPvES2_iS0_
vSf:_ReadOnlyCollection_1_System_Collections_IList_Clear_m2600246370_gshared
Qff:_DSAManaged_NormalizeArray_m2287089393
Icj:_InternalEnumerator_1_System_Collections_IEnumerator_get_Current_m2389982234_AdjustorThunk
HUa:__ZN8Material26ResetAllCachedMaterialDataEP6Shader
rKc:_UNITY_TT_Get_MM_Var
$va:__ZN24GenerateTypeTreeTransfer21TransferResourceImageE19ActiveResourceImagePKcR13StreamingInfoPvjiPKN5Unity4TypeE
aa:invoke_diddi
rWd:_ExecuteEvents__cctor_m288775360
aMc:__ZNK2UI6Canvas13GetRenderModeEv
Ere:_Double_TryParseStringConstant_m2585405703
xEb:__Z18Transfer_BlittableI14SafeBinaryReadLb0EiEvRK29SerializationCommandArgumentsR31RuntimeSerializationCommandInfo
u3c:__ZN6il2cpp2vm13MetadataCache30GetPropertyDefinitionFromIndexEi
XXi:_ResourceEnumerator__ctor_m1679839941
vId:_RijndaelTransform_Clear_m1652144089
t1e:_MonoIO_GetException_m2577367044
UTc:__ZN22BaseUnityConnectClient17InitializeSessionERKN4core12basic_stringIcNS0_20StringStorageDefaultIcEEEES6_N19CloudServiceHandler13InitModeFlagsE
CEh:_Enumerator_MoveNext_m1404007384_gshared
jaf:_NumberFormatter_get_IsZero_m1325357749
zXj:_emscripten_glDeleteBuffers__wrapper
gXg:__Z121RuntimeInvoker_Void_t1841601450_Single_t2076509932_Single_t2076509932_Single_t2076509932_Single_t2076509932_RuntimeObjectPFvvEPK10MethodInfoPvPS4_
PAe:_Enum_ToObject_m322320225
Q8b:__ZN13MonoBehaviour34StopCoroutineFromEnumeratorManagedE18ScriptingObjectPtr
ZLd:_X509Certificate__ctor_m3860837120
YIi:_AnimationOffsetPlayable_CreateHandle_m1204489623
Wjh:_GameObject_Internal_CreateGameObject_m3428198595
V_g:__Z109RuntimeInvoker_RuntimeObject_Ray_t2469606224_Single_t2076509932_Int32_t2071877448_RuntimeObject_RuntimeObjectPFvvEPK10MethodInfoPvPS4_
hSi:_Camera_RaycastTry2D_m755036866
qSf:_ReadOnlyCollection_1_System_Collections_Generic_IListU3CTU3E_set_Item_m3663361643_gshared
_D:__ZN7mecanim9animation14AvatarConstant15InitializeClassEv
AVd:_EventTrigger_OnScroll_m626934407
zBb:__ZN30RuntimeInitializeOnLoadManager8TransferI18StreamedBinaryReadILb0EEEEvRT_
ybh:_TypeBuilder_not_supported_m3178173643
wCc:_UNITY_tt_face_load_pclt
y9b:__ZL34GetComponentsImplementationRecurseILb1ELi0ELi2EEbR10GameObjectbRK17CompareParametersRK39GetComponentsImplementation_ReturnValue
jKh:_Dictionary_2_Init_m1045257495_gshared
jje:_ArrayListWrapper_Remove_m1105489978
WYa:__ZNK6Camera18WorldToScreenPointERK8Vector3fPb
ane:_HashKeys_CopyTo_m3566668422
bAa:__Z18IsCompressedFormat14GraphicsFormat
ehe:_Convert_ToSByte_m2665932200
V2:__ZNSt3__227__insertion_sort_incompleteIRPFbRKN18AwakeFromLoadQueue4ItemES4_EPS2_EEbT0_S9_T_
tah:_ILGenerator_label_fixup_m1325994348
y1c:__ZN14dense_hash_mapI10KeyWrapperIN6il2cpp5utils13dynamic_arrayIPK10Il2CppTypeLj4EEEEPFvvENS1_8metadata19Il2CppSignatureHashENS8_14EqualsComparerINSB_22Il2CppSignatureCompareEEENSt3__29allocatorINSG_4pairIKS8_SA_EEEEE15set_deleted_keyERSJ_
mzi:_Navigation_Equals_m4214630671_AdjustorThunk
CPf:_ReadOnlyCollection_1_System_Collections_Generic_IListU3CTU3E_set_Item_m257196015_gshared
Gfh:_FieldInfo_GetPseudoCustomAttributes_m2500972355
qqb:__ZN26EnlightenSystemInformation8TransferI14SafeBinaryReadEEvRT_
sSe:_Array_InternalArray__get_Item_TisLink_t2723257478_m2281261655_gshared
LPi:_AudioClipPlayable_INTERNAL_CALL_GetIsPlayingInternal_m4246314919
Twb:__ZN12MeshRendererD0Ev
bme:_Hashtable__ctor_m2702360557
Eh:_utime
D9c:__ZNSt3__26vectorIN6il2cpp2vm17TypeNameParseInfoENS_9allocatorIS3_EEE8allocateEj
MVf:_PrimalityTest_Invoke_m4058801829
tn:FUNCTION_TABLE_viiiiif
Kkg:_RemotingConfiguration_SetCustomErrorsMode_m1844153208
yn:FUNCTION_TABLE_viiiiii
lDe:_CultureInfo_GetFormat_m3560116485
JC:__ZN7mecanim9animation22DestroyAvatarWorkspaceEPNS0_15AvatarWorkspaceERNS_6memory9AllocatorE
FSj:dynCall_viddi
hqj:_ScriptableObject_CreateInstance_m3271154163
rjj:_AnchorInfo_get_IsPosition_m3791659233
BJe:_Array_InternalArray__IndexOf_TisResourceCacheItem_t333236149_m761772858_gshared
Pkc:__ZNSt3__210__list_impIN10GUIManager12SortedScriptE11memory_poolIS2_EE5clearEv
tnb:__ZN14PlayableOutput17SetSourcePlayableEP8Playable
$kg:_TrackingServices__cctor_m3639412334
snc:__Z32GUIStyle_Set_Custom_PropRichTextP12Il2CppObjecth
bC:__ZN7mecanim9animation29MotionOutputGetDeltaTransformEPKNS0_12MotionOutputE
WZb:__Z13RegisterClassI16GraphicsSettingsEvv
uE:__ZN8Animator14OnAddComponentEPN5Unity9ComponentE
kBf:_List_1_CheckMatch_m1184924052_gshared
Jic:__Z43Transform_CUSTOM_INTERNAL_get_localRotationP12Il2CppObjectP11Quaternionf
HVj:_glGetShaderInfoLog__wrapper
gi:_emscripten_glGetTexParameteriv
hYf:_RSAManaged_ImportParameters_m3060955884
x_i:_ChannelData_CopyFrom_m4049054607
a_b:__Z13RegisterClassI4MeshEvv
Tmb:__ZN8PlayableD0Ev
cU:__Z84Register_UnityEngine_Audio_AudioMixerPlayable_INTERNAL_CALL_SetAutoNormalizeInternalv
vK:__ZN12AudioManager8TransferI19StreamedBinaryWriteILb0EEEEvRT_
w3e:_WriteDelegate_Invoke_m2103848735
VOb:__ZN18StreamedBinaryReadILb1EE21TransferSTLStyleArrayI13dynamic_arrayI11ColorRGBA32Lj4EEEEvRT_17TransferMetaFlags
oBj:_Locale_GetText_m512920887
LPb:__Z18Transfer_BlittableI18StreamedBinaryReadILb0EELb0E8Vector2fEvRK29SerializationCommandArgumentsR31RuntimeSerializationCommandInfo
skg:_RemotingConfiguration_get_ProcessId_m3870172209
xXe:_SortKey_ToString_m2406913228
Qea:__ZN22LocalFileSystemHandler9MakeLocalER13FileEntryDatab
kxd:__ZN6il2cpp2vm8Profiler10AllocationEP12Il2CppObjectP11Il2CppClass
Lqe:_Convert_ToDateTime_m1020507389
Rzc:__ZNSt3__23mapIN20TextRenderingPrivate7FontRefENS1_6OSFontENS_4lessIS2_EENS_9allocatorINS_4pairIKS2_S3_EEEEEixERS8_
Bca:__Z13FormatOrderedPKcz
RHh:_Dictionary_2_CopyToCheck_m1657324124_gshared
f6c:__ZN6il2cpp2vm8basepathEPKc
lmg:_ObjectManager_RegisterObjectInternal_m879109503
FDe:_Array_get_swapper_TisVector4_t2243707581_m97441823_gshared
Oxa:__ZNSt3__26__sortIRNS_4lessIiEEPiEEvT0_S5_T_
bxc:__ZN14SafeBinaryRead21TransferSTLStyleArrayI10vector_mapINSt3__24pairIttEEfN20TextRenderingPrivate8FontImpl14KerningCompareENS2_9allocatorINS3_IS4_fEEEEEEEvRT_17TransferMetaFlags
w_b:__Z13RegisterClassI15QualitySettingsEvv
Tvd:__ZN6il2cpp2vm6String21InitializeEmptyStringEP11Il2CppClass
c4a:__ZN25DeferredRenderLoopScratchD0Ev
gw:__ZN27AnimationLayerMixerPlayable14SetInputWeightEif
Qt:__ZN7mecanim9animation17EvaluateHumanPoseERKNS0_18ClipMuscleConstantERKNS0_15ClipMuscleInputEPKfRKNS0_12MotionOutputERNS_5human9HumanPoseE
SSb:__ZN15dense_hashtableINSt3__24pairIKiN4core17string_with_labelILi1EEEEEi18SInt32HashFunctionN14dense_hash_mapIiS5_S7_NS0_8equal_toIiEE13stl_allocatorIS6_L18MemLabelIdentifier1ELi16EEE9SelectKeyESA_SD_E9copy_fromERKSG_j
qka:__ZN6Camera11ResetAspectEv
Pzg:_Type_get_IsGenericType_m3396841573
ugc:__Z56PlayableHandle_CUSTOM_INTERNAL_CALL_SetPlayStateInternalR9HPlayable9PlayState
gbg:_X509BasicConstraintsExtension_get_HasPathLengthConstraint_m3788532759
Ulb:__ZNK17InstancedPropInfo22FillInstancePropertiesER19ShaderPropertySheetjPK17BatchInstanceDatajRK15RenderNodeQueue
Rla:__ZN22CreateGpuProgramOutputD2Ev
wYh:__ZL58_AssemblyBuilder_t418776366_CustomAttributesCacheGeneratorP21CustomAttributesCache
smd:__ZN6il2cpp6icalls8mscorlib6System2IO6MonoIO9SetLengthE12Il2CppIntPtrxPi
gS:__ZN13ProduceHelperI13AudioListenerLb0EE7ProduceE18MemLabelIdentifier18ObjectCreationMode
gUe:_DateTimeFormatInfo_GetInstance_m3133223810
eVf:_ModulusRing_BarrettReduction_m2802101099
tRa:__ZN12HandlerChain4OpenER13FileEntryData14FilePermission16FileAutoBehavior
gcd:__ZN15dense_hashtableINSt3__24pairIK10KeyWrapperINS1_IPK10MethodInfoP11Il2CppClassEEEjEES9_17ReflectionMapHashIS8_EN14dense_hash_mapIS9_jSD_NS9_14EqualsComparerINS0_8equal_toIS8_EEEENS0_9allocatorISB_EEE9SelectKeyESI_SK_E6insertERKSB_
qsa:__ZN18AssetBundleManager55CollectPreloadObjectsFromAssetBundleLoadAssetOperationsER13dynamic_arrayIiLj4EE
J5:__ZN14FileCacherReadD2Ev
fxa:__ZN13RendererScene23UpdatePreviousFrameDataEii
UJd:_RSAPKCS1SignatureDeformatter_VerifySignature_m1825067195
Qcc:__Z50Register_UnityEngine_CullingGroup_FinalizerFailurev
Gmf:_KeyValuePair_2_ToString_m2613351884_gshared
_ra:__ZN27UnloadUnusedAssetsOperationD0Ev
fkb:__ZN6Camera15ThreadedCleanupEv
_ri:__ZL69ColorBlock_t2652774230_CustomAttributesCacheGenerator_m_DisabledColorP21CustomAttributesCache
oAi:_Scrollbar__ctor_m2244981801
omd:__ZN6il2cpp6icalls8mscorlib6System2IO6MonoIO9GetLengthE12Il2CppIntPtrPi
wKd:_SHA256Managed_HashCore_m4111458495
bDe:_CultureInfo_get_CompareInfo_m3085280862
mng:_ObjectManager_RecordDelayedFixup_m1895730844
xI:__ZN9AudioClip23VirtualRedirectTransferER18StreamedBinaryReadILb0EE
y$f:_ClientSessionInfo_CheckDisposed_m1394638186
mpg:_SByte_Parse_m2544167007
DPd:_Single_CompareTo_m2081476257
ddf:_BigInteger__ctor_m2945783161
i1f:_TlsClientHello_Update_m1723542631
CYe:_IndexOutOfRangeException__ctor_m3497760912
Fj:_glCopyTexSubImage2D
kkg:_RealProxy_InternalGetTransparentProxy_m3415358600
Lda:__ZN18ScreenManagerWebGL13SetShowCursorEb
ixd:__ZN6il2cpp6icalls8mscorlib6System7Convert24InternalFromBase64StringEP12Il2CppStringb
zLd:_SymmetricAlgorithm_CreateDecryptor_m4240570785
bGi:_Text_get_preferredWidth_m3352156860
MOc:__ZN2UI13CanvasManager14GetRenderOrderEPKNS_6CanvasE
bFb:__Z18Transfer_BlittableI14SafeBinaryReadLb0E5RectTIfEEvRK29SerializationCommandArgumentsR31RuntimeSerializationCommandInfo
GQf:_ReadOnlyCollection_1_System_Collections_Generic_IListU3CTU3E_RemoveAt_m878653284_gshared
mUe:_DateTimeFormatInfo_GetFormat_m3676195179
uGa:__ZN14GfxContextGLES14GetFramebufferEv
cpa:__ZN6prcoreL21CreateRemapAnyBlitterE13TextureFormatS0_
H7b:__ZN17AnimationCurveTplIfE16StripInvalidKeysEv
xKe:_Array_InternalArray__ICollection_Add_TisKeyValuePair_2_t3716250094_m2381539361_gshared
okf:_X509Extension_WriteLine_m2850991173
FNc:__ZNK2UI6Canvas17GetSortingLayerIDEv
$7c:_il2cpp_method_has_attribute
Q3b:__Z13RegisterClassI17GlobalGameManagerEvv
J6a:__ZN8Renderer24SetupNewRendererForSceneEv
cFe:_Array_InternalArray__ICollection_Remove_TisInt64_t909078037_m2653583130_gshared
gvg:_Thread_get_ExecutionContext_m922067206
gtc:__Z35Transfer_Blittable_FixedBufferFieldI8JSONReadtEvRK29SerializationCommandArgumentsR31RuntimeSerializationCommandInfo
N4b:__ZN14PlayableOutput6HandleEv
Lsb:__ZNK6Sprite22GetTypeVirtualInternalEv
sn:FUNCTION_TABLE_iiiiiiiiiiiiii
HQg:__Z100RuntimeInvoker_Void_t1841601450_SByte_t454417549_SByte_t454417549_Int32_t2071877448_SByte_t454417549PFvvEPK10MethodInfoPvPS4_
mDc:_UNITY_tt_get_cmap_info
jab:__ZN16ReflectionProbes8ScheduleEN18ReflectionProbeJob7JobTypeEP15ReflectionProbei
VJf:_Collection_1_IsFixedSize_m3675221982_gshared
qpf:_Enumerator_MoveNext_m3293920409_AdjustorThunk
ffa:__Z18IsDirectoryCreatedRKN4core12basic_stringIcNS_20StringStorageDefaultIcEEEE
X2g:__Z68RuntimeInvoker_Void_t1841601450_Int32_t2071877448_Double_t4078015681PFvvEPK10MethodInfoPvPS4_
LMc:__ZN2UI13CanvasManagerD2Ev
gfj:_Comparer_1__cctor_m3112251759_gshared
qag:_X509KeyUsageExtension_ToString_m1992050580
wzc:_UNITY_FT_GlyphLoader_Done
Ejj:_BalancingGroup__ctor_m2474435406
g_i:_ConstructionCall__ctor_m1143766850
uqh:_GUIStyleState_Init_m2434147050
hfj:_Comparer_1_System_Collections_IComparer_Compare_m3203078743_gshared
_vh:_PlayableHandle_IsValid_m1005197654_AdjustorThunk
VJj:_Terminal_WriteLine_m3165006896
aEc:_tt_cmap14_char_var_index
zFc:_psh_globals_new
k3e:_FileStream_Seek_m950719389
Wqe:_Decimal_stripStyles_m294582157
CNi:_AnimatorControllerPlayable_Play_m614561002
lAa:__ZN9GfxDevice20SetMaxBufferedFramesEi
Lvf:_List_1_RemoveAll_m4125997475_gshared
xJg:__Z98RuntimeInvoker_Void_t1841601450_Int32_t2071877448_Int32_t2071877448_RuntimeObject_SByte_t454417549PFvvEPK10MethodInfoPvPS4_
JRj:dynCall_vdd
iOc:__ZN2UIL17UnloadAllCanvasesEv
udb:__Z23ConvertIntegerToTypePtrIsEbPvR14SafeBinaryRead
FYh:__ZL54_MethodBase_t1935530873_CustomAttributesCacheGeneratorP21CustomAttributesCache
SZc:__ZN6il2cpp2vm5Class12HasAttributeEP11Il2CppClassS3_
cMg:__Z96RuntimeInvoker_Void_t1841601450_SByte_t454417549_RuntimeObject_SByte_t454417549_SByte_t454417549PFvvEPK10MethodInfoPvPS4_
Gje:_FixedSizeArrayListWrapper_Remove_m1359458911
Ndj:_InternalEnumerator_1_get_Current_m747506907_gshared
kpa:__ZN6prcoreL29inner_stretch_rgb565_bilinearEPKNS_9InnerInfoE
_kj:_Uri__ctor_m3927533881
xQc:__Z33Canvas_Get_Custom_PropWorldCameraP12Il2CppObject
pFi:_Text_get_mainTexture_m813502234
j3a:__ZNK14RenderSettings19GetFlatAmbientColorEv
sva:__ZN6prcoreL10inner_flipILj4EEEvPhS1_j
_yb:__ZN18StreamedBinaryReadILb0EE21TransferSTLStyleArrayI10vector_mapIPKN5Unity4TypeE7Hash128NSt3__24lessIS6_EENS8_9allocatorINS8_4pairIS6_S7_EEEEEEEvRT_17TransferMetaFlags
ey:__ZNK27StateMachineBehaviourPlayer15IsSenderEnabledEv
MKi:_AnimatorControllerPlayable_SetInteger_m881630854
gAh:_Enumerator_VerifyState_m2118679243_gshared
X6d:_InputField_get_shouldHideMobileInput_m3694613599
fjc:__Z40Register_UnityEngine_Transform_SetParentv
ZQi:_AudioConfigurationChangeHandler_Invoke_m635374412
lQg:__Z56RuntimeInvoker_TimeSpan_t3430258949_TimeSpan_t3430258949PFvvEPK10MethodInfoPvPS4_
Eub:__ZN14Texture2DArray17UploadToGfxDeviceEv
aQf:_ReadOnlyCollection_1_System_Collections_Generic_IListU3CTU3E_Insert_m4216310986_gshared
kMf:_ReadOnlyCollection_1_System_Collections_Generic_IListU3CTU3E_set_Item_m1532495847_gshared
aM:__Z14FMODMemoryFreePvjPKc
y6d:_Image_AddQuad_m1600600902
SGc:_cf2_glyphpath_moveTo
Jve:_DateTimeOffset__ctor_m1796624924
rmh:_GUILayoutUtility_get_spaceStyle_m1918520192
MUd:_BaseRaycaster_OnDisable_m1716508791
Nu:__ZN7mecanim23TransformValueArrayLoopEiiiRKN4math4trsXES3_RNS_10ValueArrayEf
lWf:_ASN1Convert_ToInt32_m2121135414
QYc:__ZN6il2cpp2vmL15GetBitmapNoInitEP11Il2CppClassPjRjj
nBd:_GC_is_heap_ptr
pB:__ZN7mecanim5human10RetargetToEPKNS0_5HumanEPKNS0_9HumanPoseES6_RKN4math4trsXEPS4_PNS_8skeleton13SkeletonPoseTIS8_EESF_
Gu:__ZN7mecanim9animation8SeekClipERKNS0_12StreamedClipERNS0_18StreamedClipMemoryEf
jm:_emscripten_glIsTexture
xsh:_Mathf_Clamp_m3542052159
mje:_ArrayListWrapper_CopyTo_m793444109
Qk:_emscripten_glHint
eKc:_ft_var_readpackeddeltas
ave:_DateTime_AddMilliseconds_m1813199744_AdjustorThunk
Pgc:__Z65PlayableOutputHandle_CUSTOM_INTERNAL_CALL_GetPlayableOutputTypeOfR15HPlayableOutput
Gdg:_X509ChainStatus_t4278378721_marshal_pinvoke
ZXf:_RSAManaged__ctor_m1680944437
mm:_SDL_UpperBlit
yph:_GUIStyle_op_Implicit_m781448948
R3a:__Z35GetTextureDecodeValuesWithIntensity16TextureUsageMode17TextureColorSpace10ColorSpacef
qge:_Byte_GetHashCode_m2885528842_AdjustorThunk
wgd:__ZN15dense_hashtableINSt3__24pairIK10KeyWrapperINS1_IPK9EventInfoP11Il2CppClassEEEjEES9_17ReflectionMapHashIS8_EN14dense_hash_mapIS9_jSD_NS9_14EqualsComparerINS0_8equal_toIS8_EEEENS0_9allocatorISB_EEE9SelectKeyESI_SK_E15set_deleted_keyERKSB_
iHh:_Dictionary_2_OnDeserialization_m2092139626_gshared
x1:__ZN19RuntimeSceneManagerC2E18MemLabelIdentifier
rCb:__ZN14SafeBinaryRead20OverrideRootTypeNameEPKc
N5:__ZN14FileCacherRead16UnlockCacheBlockEj
sjf:_X509Certificate_GetUnsignedBigInteger_m3491353542
pxc:__ZNSt3__26vectorIN4core12basic_stringIcNS1_20StringStorageDefaultIcEEEE13stl_allocatorIS5_L18MemLabelIdentifier34ELi16EEE6assignINS_11__wrap_iterIPS5_EEEENS_9enable_ifIXaasr21__is_forward_iteratorIT_EE5valuesr16is_constructibleIS5_NS_15iterator_traitsISF_E9referenceEEE5valueEvE4typeESF_SF_
FRj:dynCall_iifii
Rc:_emscripten_glUniform1f
x4f:_SslStreamBase_get_MightNeedHandshake_m3432170694
Xzc:__Z20ParseImageParametersR11UTF16StringRiRN20TextRenderingPrivate16TextFormatChangeE
Wc:_emscripten_glUniform1i
jCb:__ZN13MonoBehaviour9CallAwakeEv
v7:__Z33UnregisterDeviceEventCallbackImplPFv23UnityGfxDeviceEventTypeE
ymh:__Z14bankers_roundff
_Mi:_AnimatorControllerPlayable_CrossFade_m3391147919
sUb:__ZN9ShaderLab16SerializedTagMapaSERKS0_
PV:__ZN11UnityEngine15CloudWebService16SessionContainer20RestoreSessionHeaderERKN4core12basic_stringIcNS2_20StringStorageDefaultIcEEEES8_RNS0_13SessionHeaderE
xve:_DateTime_ToString_m1117481977
bDd:__ZN6il2cpp2os12Cryptography23GetCryptographyProviderEv
xC:__ZN11UnityEngine9Animation27CreateAvatarBindingConstantER9TransformPKN7mecanim9animation14AvatarConstantERNS3_6memory9AllocatorE
YAb:__ZN14SafeBinaryRead21TransferSTLStyleArrayINSt3__26vectorIN30RuntimeInitializeOnLoadManager9ClassInfoE13stl_allocatorIS4_L18MemLabelIdentifier12ELi16EEEEEEvRT_17TransferMetaFlags
CDg:_UnitySerializationHolder_GetObjectData_m2280028722
cCg:_UInt64_System_IConvertible_ToDateTime_m2412118561
eac:__ZN9BlobWriteC2ER13dynamic_arrayIhLj16EE24TransferInstructionFlags19BuildTargetPlatform
c4:__ZN14MessageHandler3GetEv
Qnh:_GUISkin_set_verticalScrollbarThumb_m2647835739
id:_emscripten_glAttachShader
TOf:_ReadOnlyCollection_1__ctor_m1539890895_gshared
kAa:__ZN9GfxDevice13SetActiveTierE12GraphicsTier
aof:_Enumerator_System_Collections_IEnumerator_get_Current_m3079057684_AdjustorThunk
Jfc:__Z46Register_UnityEngine_Mesh_ExtractArrayFromListv
Ixb:__ZNSt3__26vectorIN4core12basic_stringIcNS1_20StringStorageDefaultIcEEEENS_9allocatorIS5_EEE6assignIPS5_EENS_9enable_ifIXaasr21__is_forward_iteratorIT_EE5valuesr16is_constructibleIS5_NS_15iterator_traitsISC_E9referenceEEE5valueEvE4typeESC_SC_
igf:_KeyPairPersistence_get_UserPath_m3433052783
bQh:__ZL58Decimal_t724701077_CustomAttributesCacheGenerator_MinusOneP21CustomAttributesCache
MEb:__Z18Transfer_BlittableI14SafeBinaryReadLb0E11QuaternionfEvRK29SerializationCommandArgumentsR31RuntimeSerializationCommandInfo
lQb:__Z18Transfer_BlittableI18StreamedBinaryReadILb0EELb1E12PropertyNameEvRK29SerializationCommandArgumentsR31RuntimeSerializationCommandInfo
K_:_tlsf_walk_heap
Sif:_PKCS12_Decode_m731190390
J9i:_InternalEnumerator_1_get_Current_m1550231132_gshared
PDg:_Version_CheckedSet_m76493673
nb:invoke_vif
ob:invoke_vid
JPj:__ZNSt3__212basic_stringIcNS_11char_traitsIcEENS_9allocatorIcEEE6insertEjPKc
Q0h:__ZL67UnverifiableCodeAttribute_t765455733_CustomAttributesCacheGeneratorP21CustomAttributesCache
pb:invoke_vii
Hfb:__ZN12TLSAllocatorI14StackAllocatorE16ThreadInitializeEP13BaseAllocator
Kie:_ArrayList_Sort_m2778059513
p5d:_LayoutGroup_SetChildAlongAxis_m2732017156
EPc:__Z41CanvasRenderer_CUSTOM_DisableRectClippingP12Il2CppObject
aQi:_AudioClipPlayable_SetPauseDelayInternal_m3827440449
QWf:_MD2_Create_m539024737
JRg:__Z112RuntimeInvoker_Void_t1841601450_RuntimeObject_Int32_t2071877448_Int32_t2071877448_RuntimeObject_SByte_t454417549PFvvEPK10MethodInfoPvPS4_
gRa:__ZN25SingleBlockMemoryFileDataD0Ev
Fhb:__ZNSt3__26vectorI14ConstantStringNS_9allocatorIS1_EEE6assignINS_11__wrap_iterIPS1_EEEENS_9enable_ifIXaasr21__is_forward_iteratorIT_EE5valuesr16is_constructibleIS1_NS_15iterator_traitsISA_E9referenceEEE5valueEvE4typeESA_SA_
KV:__ZN11UnityEngine15CloudWebService16SessionContainer21ConvertFromFolderTimeERKN4core12basic_stringIcNS2_20StringStorageDefaultIcEEEEPjPt
gGb:__ZNSt3__26vectorI8GUIStyle13stl_allocatorIS1_L18MemLabelIdentifier1ELi16EEE7reserveEj
Yjd:__ZN6il2cpp6icalls8mscorlib6System9Threading6Thread27GetSerializedCurrentCultureEP12Il2CppThread
KJe:_Array_InternalArray__IndexOf_TisUInt32_t2149682021_m3231515987_gshared
V$b:__Z31CalculateHierarchyTransformType23TransformAccessReadOnly
p_b:__Z13RegisterClassI11TimeManagerEvv
SL:__ZN4FMOD8ChannelI11setPositionEjj
VKg:__Z136RuntimeInvoker_IntPtr_t_RuntimeObject_Int32_t2071877448_Int32_t2071877448_Int32_t2071877448_Int32_t2071877448_MonoIOErrorU26_t1029615899PFvvEPK10MethodInfoPvPS4_
vUi:_Component_SendMessage_m913946877
izd:_GC_set_fl_marks
Cba:__ZN17BaseObjectManager13StaticDestroyEPv
Orj:_TextGenerationSettings_CompareVector2_m592645251
kwe:_DBNull_System_IConvertible_ToChar_m3344298044
dkf:_X509Certificate_GetObjectData_m3888130484
sAb:__ZNSt3__26vectorIN15ResourceManager10DependencyE13stl_allocatorIS2_L18MemLabelIdentifier51ELi16EEEC2INS_11__wrap_iterIPS2_EEEET_SB_RKS5_PNS_9enable_ifIXaasr21__is_forward_iteratorISB_EE5valuesr16is_constructibleIS2_NS_15iterator_traitsISB_E9referenceEEE5valueEvE4typeE
agj:_LinkStack_Push_m2660199875
MK:__ZN4FMOD6Reverb13setPropertiesEPK22FMOD_REVERB_PROPERTIES
o_a:__ZN9DepthPass13PrepareSubsetEjRK10RenderNodeifRK17ShaderReplaceData
lrh:_Input_get_compositionString_m636835668
gnj:_X509CertificateCollection_Add_m4008705157
w6b:__Z35SetMeshComponentFromArrayFromScriptR4Mesh30InternalScriptingShaderChannel34InternalScriptingVertexChannelTypei17ScriptingArrayPtri
MQf:_ReadOnlyCollection_1_System_Collections_IList_Add_m3806843030_gshared
bHf:_Collection_1_IsFixedSize_m1816795498_gshared
Bq:__ZN4core20StringStorageDefaultIcE6assignEPKcj
Cqd:__ZN15dense_hashtableINSt3__24pairIK10KeyWrapperIP12Il2CppObjectEN6il2cpp2gc9CachedCCWEEES5_NS7_5utils11PointerHashIS3_EEN14dense_hash_mapIS5_S9_SD_NS5_14EqualsComparerINS0_8equal_toIS4_EEEENS0_9allocatorISA_EEE9SelectKeyESI_SK_E3endEv
$Ab:__Z14resize_trimmedINSt3__26vectorIi13stl_allocatorIiL18MemLabelIdentifier12ELi16EEEEEvRT_j
WXd:_MouseButtonEventData_ReleasedThisFrame_m482758300
ohd:__ZN15dense_hashtableINSt3__24pairIK10KeyWrapperINS1_IP11Il2CppClassjEEES4_EES6_N6il2cpp8metadata14ArrayClassHashEN14dense_hash_mapIS6_S4_SB_NS6_14EqualsComparerINSA_17ArrayClassCompareEEENS0_9allocatorIS8_EEE9SelectKeyESF_SH_E9copy_fromERKSK_j
Lje:_ReadOnlyArrayListWrapper_set_Item_m2199017141
Z7a:__ZN6Camera6SetFarEf
bnj:_DeriveBytes_DeriveIV_m3343375195
SAc:_UNITY_FT_Init_Class_ft_bitmap_glyph_class
lJd:_RNGCryptoServiceProvider_GetBytes_m167497991
Upa:__ZN6prcoreL12RemapGenericI17TexFormatABGR888817TexFormatARGB8888EEvPKNS_9InnerInfoE
aib:__ZN11GameManager17MainThreadCleanupEv
jRc:__Z50Register_UnityEngine_UISystemProfilerApi_EndSamplev
gbh:_TypeBuilder_get_Assembly_m492491492
TIc:_UNITY_tt_slot_init
nUa:__ZZ23InitPlayerLoopCallbacksvEN41PostLateUpdateUpdateResolutionRegistrator7ForwardEv
jHd:_HMACSHA512__cctor_m1167457383
CRb:__Z25scripting_array_class_get17ScriptingClassPtrj
trc:__ZL22Transfer_ManagedObjectI9JSONWriteLb1EEvRK29SerializationCommandArgumentsR31RuntimeSerializationCommandInfo
fI:__ZNK10SampleClip22GetTypeVirtualInternalEv
HBa:__ZN9GfxDevice20DestroyRenderSurfaceER12ObjectHandleI17RenderSurface_TagP17RenderSurfaceBaseE
rca:__ZN18SpriteAtlasManagerC2Ev
XOa:__ZN9GfxDevice22UpdateComputeResourcesEjPK9TextureIDPK16TextureDimensionPKijPKjjPK15ComputeBufferIDS7_PK20ComputeBufferCounterjSC_S2_S5_S9_SF_
y3b:__ZN12_GLOBAL__N_15qAsinEff
XQe:_Dictionary_2_Do_ICollectionCopyTo_TisKeyValuePair_2_t3749587448_m2536766696_gshared
Ifb:__ZN12TLSAllocatorI14StackAllocatorE13ThreadCleanupEv
MIe:_Array_IndexOf_TisRuntimeObject_m1815604637_gshared
Twd:__ZThn4_N6il2cpp2vm13ComObjectBase16MarshalInterfaceEP13Il2CppIStreamRK10Il2CppGuidPvjS7_j
rvb:__ZN4Mesh27SwizzleVertexColorsIfNeededEb
ogb:__Z27FindActiveTransformWithPathPKc
OSi:_CanvasGroup_get_alpha_m1304564441
$Oi:_AsyncOperation_Finalize_m67522446
xkf:_SecurityParser_OnEndElement_m2909940377
k0a:__ZNK6Camera7GetNearEv
MJa:__ZN7ApiGLES11UnmapBufferEjN2gl12BufferTargetE
cxd:__ZN6il2cpp5utilsL24Utf32CharToSurrogatePairEjRA2_Ds
gpb:__Z25GetNextAllowedTextureSizeib13TextureFormat
Nea:__ZN20LocalFileSystemWebGL4CopyER13FileEntryDataS1_
Ewf:_List_1_CheckIndex_m4231572822_gshared
jY:__ZN19CloudServiceHandler6RetainEv
UNd:_StrongName_Equals_m67226644
tjb:__ZN12BaseRenderer20FlattenToRenderQueueER15RenderNodeQueueRK20DeprecatedSourceData
X6e:_UnmanagedMemoryStream_get_Length_m587008850
zsa:__Z34scripting_liveness_calculation_endPv
Gsd:__ZN6il2cpp2os6ThreadC2Ev
JOd:_SecurityFrame_InitFromRuntimeFrame_m45195821
ucg:_X509Chain_IsSignedWith_m292245392
bu:__ZN21AnimationClipPlayable22ProcessAnimationNoClipEPK35AnimationPlayableEvaluationConstantPK32AnimationPlayableEvaluationInputP33AnimationPlayableEvaluationOutput
ZEe:_Array_InternalArray__ICollection_Remove_TisDateTime_t693205669_m1275668216_gshared
aLc:__ZNK19TextRenderingModule8TMGenGetERK11UTF16StringPN13TextRendering4FontE10TextAnchor13TextAlignmentfffbb11ColorRGBA32fii
Qsc:__Z18Transfer_BlittableI8JSONReadLb0E8Vector3fEvRK29SerializationCommandArgumentsR31RuntimeSerializationCommandInfo
B_i:_ChannelServices__cctor_m3534779830
Rid:__ZN6il2cpp2vm6Thread6DetachEP12Il2CppThread
JEc:_Render_Single_Pass
Ore:_Convert_ToInt16_m416789348
sTd:_EncoderExceptionFallback_Equals_m762170768
pDj:_EqualityComparer_1__cctor_m2666196678_gshared
YAh:_Enumerator_get_CurrentValue_m3147984131_AdjustorThunk
blh:_GUIStyle_Init_m3872198731
DC:__ZN7mecanim8skeleton30SkeletonBuildReverseIndexArrayEPiPKiPKNS0_8SkeletonES6_
hkc:__Z19GetGUIBlendMaterialv
BWg:__Z69RuntimeInvoker_Boolean_t3825574718_TextGenerationSettings_t2543476768PFvvEPK10MethodInfoPvPS4_
std:__ZN6il2cpp2os10ThreadImpl5SleepEjb
IJf:_Collection_1_InsertItem_m1073626529_gshared
m6f:_ListDictionary_FindEntry_m432748847
qXj:_glBindSampler__wrapper
_xj:_UnityAction_1_Invoke_m3523417209_gshared
Of:_emscripten_set_mouseup_callback
Sqj:_SpaceAttribute__ctor_m1444406696
Wda:__ZNK18ScreenManagerWebGL8GetWidthEv
VRj:dynCall_iiifii
Y4d:_GridLayoutGroup_set_startAxis_m1635162426
cI:__ZN10SampleClipD2Ev
h1i:_SynchronizationAttribute_EnterContext_m2984912761
nDe:_CultureInfo_construct_internal_locale_from_name_m971766383
lLe:_Array_InternalArray__ICollection_Add_TisUIVertex_t1204258818_m3869382594_gshared
VX:__ZN11UnityEngine15CloudWebService20WebRequestRestClientC2Ev
nIc:_cff_cmap_unicode_init
EAe:_Enum_ToObject_m2460371738
aef:_PrimalityTests_Test_m1088386156
gmc:__Z36Event_CUSTOM_Internal_SetNativeEvent13Il2Cpp_IntPtr
jOj:_readlink
_dd:__ZN15dense_hashtableINSt3__24pairIK10KeyWrapperINS1_IPK9EventInfoP11Il2CppClassEEEjEES9_17ReflectionMapHashIS8_EN14dense_hash_mapIS9_jSD_NS9_14EqualsComparerINS0_8equal_toIS8_EEEENS0_9allocatorISB_EEE9SelectKeyESI_SK_E12resize_deltaEjj
vPe:_Array_Resize_TisVector3_t2243707580_m893658391_gshared
_5i:_InternalEnumerator_1_System_Collections_IEnumerator_get_Current_m4259662004_AdjustorThunk
YSe:_Array_InternalArray__get_Item_TisKeyframe_t1449471340_m1003508933_gshared
lOg:__Z50RuntimeInvoker_Double_t4078015681_Int64_t909078037PFvvEPK10MethodInfoPvPS4_
Mif:_StrongName_get_PublicKeyToken_m1968460885
yxb:__ZNK6Sprite9GetBoundsE8Vector2fbb
dWa:__ZNK19RenderEventsContext21CleanupCommandBuffersEv
TEa:__ZN11ContextGLES6CreateEi
B0e:_BinaryReader_Dispose_m4249456877
Tqe:_Double_ToString_m1085043609
bRb:__Z19TransferField_ArrayI18StreamedBinaryReadILb0EE27Converter_SimpleNativeClassI17AnimationCurveTplIfEEEvRK23StaticTransferFieldInfoR31RuntimeSerializationCommandInfoRT0_
sZf:_CipherSuite_createEncryptionCipher_m1926075645
tfb:__ZN14StackAllocator16FrameMaintenanceEb
r4d:_Graphic_Raycast_m3582517890
Uhb:__Z18ReadStringFromFilePN4core17string_with_labelILi1EEERKNS_12basic_stringIcNS_20StringStorageDefaultIcEEEE
z0:__ZNK10GameObject20QueryComponentByTypeEPKN5Unity4TypeE
fpf:_Enumerator_MoveNext_m1367380970_AdjustorThunk
weh:_OpCode_GetHashCode_m2974727122
tZf:_CipherSuite_createDecryptionCipher_m1118350455
fhj:_PatternCompiler_EmitReference_m1381860071
hH:__Z78AnimatorControllerPlayable_CUSTOM_INTERNAL_CALL_IsParameterControlledByCurveIDR9HPlayablei
uze:_Double_System_IConvertible_ToInt16_m4200640326
nwa:__ZN11TextureData5ResetEv
_dc:__Z53Register_UnityEngine_GameObject_get_activeInHierarchyv
X1:__ZL30InitializeCoreScriptingClassesv
TJf:_Collection_1_CheckWritable_m3938993573_gshared
Jg:_glBlitFramebuffer
ief:_BigInteger_GeneratePseudoPrime_m2606361440
FHb:__Z35Transfer_Blittable_SingleValueFieldI14SafeBinaryReadhEvRT_R17GeneralMonoObjectRK23StaticTransferFieldInfo
YUc:__ZN22BaseUnityConnectClientC2ERN11UnityEngine7Connect20BasePersistentValuesE
Sig:_RemotingServices_GetRealProxy_m620317996
E_a:__ZN13dynamic_arrayI11CulledLightLj4EE6insertEPS0_PKS0_S4_
Unb:__ZNK12CubemapArray22GetTypeVirtualInternalEv
CLj:_Predicate_1_Invoke_m2060780095_gshared
Sn:FUNCTION_TABLE_vif
Tn:FUNCTION_TABLE_vid
Un:FUNCTION_TABLE_vii
Nsa:__Z40scripting_liveness_calculation_from_root18ScriptingObjectPtrPv
Xka:__ZN7Texture23VirtualRedirectTransferER24GenerateTypeTreeTransfer
Byc:_UNITY_FT_Set_Transform
Qpd:__ZN6il2cpp8metadata15GenericMetadata20RegisterGenericClassEP18Il2CppGenericClass
hRg:__Z101RuntimeInvoker_OpFlags_t378191910_SByte_t454417549_SByte_t454417549_SByte_t454417549_SByte_t454417549PFvvEPK10MethodInfoPvPS4_
XWj:_glDeleteFramebuffers__wrapper
Q5d:_Image_get_overrideSprite_m706080347
TUf:_BigInteger_ModInverse_m1881894572
t6c:__ZN6il2cpp2vm7Runtime17GetDelegateInvokeEP11Il2CppClass
Atf:_List_1_AddEnumerable_m3541747636_gshared
sqb:__ZN28EnlightenRendererInformation8TransferI14SafeBinaryReadEEvRT_
yQg:__Z88RuntimeInvoker_RuntimeObject_RuntimeObject_Int32_t2071877448_RuntimeObject_RuntimeObjectPFvvEPK10MethodInfoPvPS4_
KXh:__ZL69DefaultDependencyAttribute_t3858269114_CustomAttributesCacheGeneratorP21CustomAttributesCache
OPa:__ZNK15Lz4Decompressor16DecompressMemoryEPKvPjPvS2_
Hxh:_Ray_ToString_m2019179238
zRf:_ReadOnlyCollection_1_System_Collections_IList_get_Item_m887129009_gshared
Llj:_Uri_GetOpaqueWiseSchemeDelimiter_m3686606461
Lwe:_Decimal_System_IConvertible_ToType_m3828527724_AdjustorThunk
qCc:_UNITY_tt_face_load_os2
IWf:_HMAC_get_Key_m2528863640
FKf:_Collection_1_IsSynchronized_m1366278230_gshared
aG:__Z90Register_UnityEngine_Animations_AnimationOffsetPlayable_INTERNAL_CALL_CreateHandleInternalv
gHb:__Z29Transfer_Blittable_ArrayFieldI14SafeBinaryRead8Vector4fEvRT_R9ArrayInfoRK23StaticTransferFieldInfo
tDe:_Array_get_swapper_TisInt32_t2071877448_m2837069166_gshared
hBi:_Selectable_Navigate_m915280351
bzh:_RectTransform_INTERNAL_get_rect_m1177342209
oXd:_PointerEventData_IsScrolling_m1971908975
pKj:_Keyboard_WarnIfTerminalNotConneced_m4209930749
ZJj:_Hacker_DisplayWinScreen_m3165369911
eUa:__ZZ23InitPlayerLoopCallbacksvEN51PostLateUpdateUpdateCustomRenderTexturesRegistrator7ForwardEv
mzd:_GC_print_finalization_stats
zu:__ZN7mecanim9animation12EvaluateClipEPKNS0_4ClipEPKNS0_9ClipInputEPNS0_10ClipMemoryEPNS0_10ClipOutputE
Khh:_MonoMethodInfo_GetReturnType_m2864247130
u6a:__ZN13RenderManager29SetCurrentCameraAndStackStateEP6CameraP25CameraStackRenderingState
Did:__ZN15dense_hashtableINSt3__24pairIK10KeyWrapperINS1_IP11Il2CppClassjEEES4_EES6_N6il2cpp8metadata14ArrayClassHashEN14dense_hash_mapIS6_S4_SB_NS6_14EqualsComparerINSA_17ArrayClassCompareEEENS0_9allocatorIS8_EEE9SelectKeyESF_SH_E12resize_deltaEjj
Xh:_JS_WebRequest_Release
O1e:_DirectoryNotFoundException__ctor_m2242202556
iW:__ZN11UnityEngine15CloudWebService14DataErrorEventD0Ev
eSd:_String_CreateString_m2448464375
$dg:_X509SubjectKeyIdentifierExtension__ctor_m2959112706
ZAh:_Enumerator_Reset_m1147555085_AdjustorThunk
zfh:_FieldInfo_get_IsNotSerialized_m2322769148
luj:_Vector3_get_zero_m1527993324
Mpd:__ZN6il2cpp8metadata15GenericMetadata7InflateEPK19Il2CppGenericMethodPK20Il2CppGenericContext
mVa:__ZN19ShaderPropertySheet16SetArrayPropertyEN9ShaderLab16FastPropertyNameENS_12PropertyTypeEPKvj
Dhh:_MonoGenericCMethod_get_ReflectedType_m2689239043
GWf:_CryptoConvert_ToHex_m3804747475
GKf:_Collection_1_IsFixedSize_m499196375_gshared
g0d:_ColorTween_set_startColor_m3546206870_AdjustorThunk
AMc:__ZN2UI11CanvasGroup23VirtualRedirectTransferER19StreamedBinaryWriteILb0EE
N8i:_InternalEnumerator_1_get_Current_m4083613828_gshared
rlc:__ZN8GUIState8EndOnGUIEv
Gtg:_UnicodeEncoding_GetString_m542738941
_Ic:_UNITY_TT_Get_VMetrics
n1e:_Path_InsecureGetFullPath_m2635272425
Hue:_DateTime_System_IConvertible_ToUInt32_m1363211018
iog:_RuntimeMethodHandle__ctor_m1162528746
sGe:_SetPropertyUtility_SetStruct_TisSingle_t2076509932_m3849235084_gshared
sHa:__ZN7Texture21GetMasterTextureLimitEv
b9a:__Z12CanAddScriptR10GameObject17ScriptingClassPtrPS1_S2_
Zgd:__ZN6il2cpp2vm10Reflection12HasAttributeEP12Il2CppObjectP11Il2CppClass
avc:__ZN8JSONRead21TransferSTLStyleArrayI13dynamic_arrayI4AABBLj4EEEEvRT_18MemLabelIdentifier17TransferMetaFlags
I0:__ZN9ShaderLabL25StaticInitializeShaderLabEPv
U:Math_max
f7c:_il2cpp_class_get_methods
q1e:_Path_CanonicalizePath_m383914732
eAh:_Enumerator_System_Collections_IEnumerator_get_Current_m1631145297_gshared
Pie:_ArrayList_Synchronized_m2395071980
Osd:__ZN6il2cpp2os6Thread16GetCurrentThreadEv
T3b:__ZN10GameObject13ComponentPair15SetComponentPtrEPN5Unity9ComponentE
R6e:_UnexceptionalStreamWriter_Write_m3206913035
b_b:__Z13RegisterClassI10MeshFilterEvv
TE:__ZNK26AnimatorControllerPlayable24GetAnimatorClipInfoCountEib
_ib:__ZN10TagManager8TransferI19StreamedBinaryWriteILb0EEEEvRT_
RDb:__ZN11PreloadData23VirtualRedirectTransferER18StreamedBinaryReadILb0EE
Hz:__Z17dynamic_pptr_castIP10MonoScript6ObjectET_RK4PPtrIT0_E
VLi:_AnimatorControllerPlayable_GetAnimatorTransitionInfo_m2080024628_AdjustorThunk
Aqg:_DESTransform_ProcessBlock_m2826669227
hZe:_Int16_CompareTo_m3493496879
zmj:_GeneralNames_get_IPAddresses_m1712556836
wNi:_AnimatorControllerPlayable_Play_m3296663958_AdjustorThunk
Jsb:__ZN6Sprite17MainThreadCleanupEv
gN:__ZN10AudioMixer14UpdateMuteSoloEv
kUi:_Component_GetComponents_m637589504
Pyi:_MaskableGraphic_UnityEngine_UI_IClippable_get_gameObject_m954171032
Jla:__ZN9ShaderLab10SubProgram7CompileEv
sGa:__ZN7ApiGLES16SetPatchVerticesEi
n4e:_MonoIOStat_t1621921065_marshal_pinvoke
mTa:__ZN10MemoryFileC2E18MemLabelIdentifierP14MemoryFileData14FilePermission
Sjg:_TrackingServices_NotifyUnmarshaledObject_m1794048369
lYc:__ZN6il2cpp2vm5Class20FromGenericParameterEPK22Il2CppGenericParameter
IY:__ZN19CloudServiceHandler11FlushEventsEv
cba:__ZN15GlobalCallbacksC2Ev
WNe:_Array_InternalArray__set_Item_TisLabelFixup_t4090909514_m565370771_gshared
LH:__Z82Register_UnityEngine_Animations_AnimatorControllerPlayable_INTERNAL_CALL_SetBoolIDv
$zc:_UNITY_FT_New_Memory_Face
DG:__Z81AnimatorControllerPlayable_CUSTOM_INTERNAL_CALL_GetAnimatorTransitionInfoInternalR9HPlayablei
Uxc:__ZN20TextRenderingPrivate21TextMeshGeneratorImpl5FlushEv
Iza:__ZN26VertexDeclarationCacheGLES24DestroyVertexDeclarationEP17VertexDeclaration
zXc:__ZL7log2_32j
w7a:__ZN16ReflectionProbes40UpdateRealtimeReflectionProbesTimeslicedEv
PAb:__ZNK30RuntimeInitializeOnLoadManager22GetTypeVirtualInternalEv
T0c:__ZN15dense_hashtableINSt3__24pairIK10KeyWrapperIN6il2cpp5utils13dynamic_arrayIPK10Il2CppTypeLj4EEEEPFvvEEESA_NS3_8metadata19Il2CppSignatureHashEN14dense_hash_mapISA_SD_SG_NSA_14EqualsComparerINSF_22Il2CppSignatureCompareEEENS0_9allocatorISE_EEE9SelectKeyESK_SM_E12resize_deltaEjj
x1b:__ZN16ReflectionProbes15InitializeClassEv
xAc:_UNITY_FT_Destroy_Class_psnames_module_class
Jgj:_MRUList_Evict_m2430323183
zPf:_ReadOnlyCollection_1_System_Collections_Generic_ICollectionU3CTU3E_Remove_m1060547576_gshared
nYg:__Z68RuntimeInvoker_Boolean_t3825574718_Rect_t3681755626_SByte_t454417549PFvvEPK10MethodInfoPvPS4_
Snd:__ZN6il2cpp2vm5Image9GetCorlibEv
Nz:__ZN8Animator13BatchedFKPassERK13dynamic_arrayIP14PlayableOutputLj4EE
Zzd:_GC_reclaim_uninit
aUi:_Component_GetComponent_m4225719715
Dgc:__Z75Register_UnityEngine_Playables_PlayableHandle_INTERNAL_CALL_SetTimeInternalv
rQe:_Array_Sort_TisVector4_t2243707581_m474199742_gshared
Ntf:_List_1_CheckIndex_m2247532995_gshared
z6e:_TextWriter_Write_m576684782
zvj:_Vector3_Max_m2105825185
Uj:_glIsVertexArray
cUj:b16
sBb:__ZNSt3__26vectorIN4core12basic_stringIcNS1_20StringStorageDefaultIcEEEE13stl_allocatorIS5_L18MemLabelIdentifier12ELi16EEEC2INS_11__wrap_iterIPS5_EEEET_SE_RKS8_PNS_9enable_ifIXaasr21__is_forward_iteratorISE_EE5valuesr16is_constructibleIS5_NS_15iterator_traitsISE_E9referenceEEE5valueEvE4typeE
vQa:__ZN25SingleBlockMemoryFileDataC2E18MemLabelIdentifierPvjb
ea:invoke_fff
HFi:_Text_get_fontSize_m3105730761
aUj:b14
S1f:_TlsServerHello_Update_m1740270635
LLc:__ZN2UI6Canvas17MainThreadCleanupEv
Cpa:__ZN6prcoreL12RemapGenericI17TexFormatARGB155517TexFormatRGBA8888EEvPKNS_9InnerInfoE
e_c:__ZN13Il2CppHashMapIPK19Il2CppGenericMethodPK26Il2CppGenericMethodIndicesN6il2cpp8metadata23Il2CppGenericMethodHashENS7_26Il2CppGenericMethodCompareENSt3__29allocatorINSA_4pairIK10KeyWrapperIS2_ES5_EEEEEC2EjRKS8_RKS9_
pzf:_List_1_Find_m3862454845_gshared
ygj:_MatchCollection_get_Item_m2609281578
mNa:__ZN7ApiGLES13CreateProgramEv
Tkb:__ZN11HaloManager7AddHaloEv
Aug:_UTF8Encoding__ctor_m100325490
EHa:__ZN4crnd12crn_unpackerD2Ev
kFi:_StencilMaterial_ClearAll_m1372779118
ek:_emscripten_glTexImage2D
sig:_ObjRefSurrogate_SetObjectData_m1873902916
LIc:_tt_driver_class_pic_init
N1:__ZN18ScriptingArguments9AddStringEPKc
rAd:_setup_header
KQj:runPostSets
yva:__ZL23stbir__resize_arbitraryPvPKviiiS_iiiffffPfiij14stbir_datatype12stbir_filterS4_10stbir_edgeS5_16stbir_colorspace
hvf:_List_1_System_Collections_IList_Insert_m848656350_gshared
RJb:__Z18Transfer_BlittableI24GenerateTypeTreeTransferLb1E8Vector4fEvRK29SerializationCommandArgumentsR31RuntimeSerializationCommandInfo
HZe:_Int16_ToString_m3971652088_AdjustorThunk
pk:_pthread_detach
S3c:__ZN6il2cpp2vm19SocketPollingThread7RunLoopEv
Ihg:_MethodDictionary_AllocInternalProperties_m3261295876
t4b:__ZN15DirectorManager20ScheduleGraphDestroyERK14HPlayableGraph
uya:__ZNSt3__213__stable_sortIRN10vector_mapI17ScriptingClassPtrPKN5Unity4TypeENS_4lessIS2_EENS_9allocatorINS_4pairIS2_S6_EEEEE13value_compareENS_11__wrap_iterIPSB_EEEEvT0_SJ_T_NS_15iterator_traitsISJ_E15difference_typeEPNSM_10value_typeEi
eVb:__ZN9ShaderLab25SerializedTextureProperty8TransferI24GenerateTypeTreeTransferEEvRT_
WTf:_Comparison_1_Invoke_m2645957248_gshared
J$j:_emscripten_glIsShader__wrapper
Red:__ZN6il2cpp2gc19AppendOnlyGCHashMapINSt3__24pairIPK14Il2CppAssemblyP11Il2CppClassEEP24Il2CppReflectionAssembly17ReflectionMapHashIS9_ENS2_8equal_toIS9_EEEC2Ev
nnc:__Z32GUIStyle_Get_Custom_PropFontSizeP12Il2CppObject
rng:_DelegatePInvokeWrapper_CallbackHandler_t362827733
Gtc:__Z18Transfer_BlittableI8JSONReadLb1EyEvRK29SerializationCommandArgumentsR31RuntimeSerializationCommandInfo
Mk:_emscripten_glMatrixMode
ts:__ZN8Animator23VirtualRedirectTransferER18StreamedBinaryReadILb0EE
C2e:_NotSupportedException__ctor_m836173213
cig:_MethodReturnDictionary__ctor_m756139344
EV:__ZN11UnityEngine15CloudWebService14DataDispatcher16PrepareDataBlockERNS0_16SessionContainerE
DNa:__ZN18GfxFramebufferGLES5ClearE13GfxClearFlagsRK10ColorRGBAffib
B$g:__Z70RuntimeInvoker_Void_t1841601450_Playable_t1896841784_Int32_t2071877448PFvvEPK10MethodInfoPvPS4_
qQb:__ZL26Transfer_SimpleNativeClassI18StreamedBinaryReadILb0EE10RectOffsetLb0EEvRK29SerializationCommandArgumentsR31RuntimeSerializationCommandInfo
uAc:_UNITY_ft_destroy_default_module_classes
Orf:_List_1_CheckMatch_m1772343151_gshared
ZZa:__ZL12DepthPassJobPN21GfxDeviceAsyncCommand10ArgScratchEPKNS_3ArgE
HTb:__ZNSt3__26vectorIN9ShaderLab20SerializedSubProgram16TextureParameterENS_9allocatorIS3_EEE6assignINS_11__wrap_iterIPS3_EEEENS_9enable_ifIXaasr21__is_forward_iteratorIT_EE5valuesr16is_constructibleIS3_NS_15iterator_traitsISC_E9referenceEEE5valueEvE4typeESC_SC_
$$e:_IntPtr_Equals_m1214967011_AdjustorThunk
hyf:_List_1_Add_m3591975577_gshared
APc:__Z55Register_UnityEngine_CanvasGroup_get_ignoreParentGroupsv
C_b:__Z13RegisterClassI19LowerResBlitTextureEvv
Pm:FUNCTION_TABLE_iiiiiiiiiiii
vkb:__ZN16GraphicsSettingsD0Ev
RYj:_pthread_mutex_init__wrapper
Y5a:__ZN15LODGroupManager21CalculateLODDataArrayERK13LODParametersPK6Cameraf
n:cttz_i8
EGc:_UNITY_FT_GlyphLoader_Add
PVe:_DateTimeFormatInfo_get_FullDateTimePattern_m2607507656
q2f:_HttpsClientStream_RaiseServerCertificateValidation_m3356770426
yye:_DelegateSerializationHolder__ctor_m3915060553
vBb:__ZN15SerializeTraitsINSt3__26vectorIN30RuntimeInitializeOnLoadManager9ClassInfoE13stl_allocatorIS3_L18MemLabelIdentifier12ELi16EEEEE8TransferI24GenerateTypeTreeTransferEEvRS7_RT_
LQe:_Array_swap_TisUIVertex_t1204258818_TisUIVertex_t1204258818_m1163375424_gshared
Il:_emscripten_glViewport
Gwd:__ZN6il2cpp6icalls8mscorlib6System15MonoCustomAttrs17IsDefinedInternalEP12Il2CppObjectP20Il2CppReflectionType
bvb:__ZN4Mesh21UnswizzleVertexColorsEb
Ave:_DateTime_ToString_m2276663647_AdjustorThunk
IIc:_cff_parse_font_bbox
_r:__GLOBAL__sub_I_runtime_animation2_lump_cpp
jzb:__ZN14PlayerSettings23VirtualRedirectTransferER18StreamedBinaryReadILb0EE
vFd:__ZN6il2cpp2os5Event5ResetEv
t3a:__Z26CombineDepthNormalsTextureRK17RenderLoopContextR13dynamic_arrayI16RenderObjectDataLj4EE
VBj:_AesManaged__ctor_m2322442838
ypd:__ZN6il2cpp8metadata15GenericMetadata17InflateParametersEPK13ParameterInfohPK20Il2CppGenericContextb
k$e:_Int64_System_IConvertible_ToUInt32_m850395426_AdjustorThunk
Wbh:_TypeBuilder_GetMethodsByName_m229541072
NQi:_PCMReaderCallback_Invoke_m3610389815
gHd:_HMACSHA512__ctor_m2390736870
xy:__ZNK17AnimationPlayable27GetNextCompatibleDescendantEi
Cfc:__Z50Register_UnityEngine_Mesh_PrintErrorCantAccessMeshv
Sbh:_TypeBuilder_GetInterfaces_m1818658502
nga:__Z25SetNeedToPerformRenderingb
Yhh:_MonoMethod_GetPseudoCustomAttributes_m466965107
G1a:__ZNSt3__227__insertion_sort_incompleteIR23CompareReflectionProbesP31RuntimeReflectionProbeBlendInfoEEbT0_S5_T_
m_a:__ZN14qsort_internal30FindAndMovePivotToLastPositionIP15RODataDepthPassi17ROSorterDepthPassEEvT_S4_T0_T1_
YVc:__ZN20UnityWebRequestProtoI19TransportJavaScript16AtomicRefCounter14RedirectHelper14ResponseHelper15DownloadHandler13UploadHandler12HeaderHelper14AsyncOperationE35Task_FinalizeAfterDHCompleteContentEPv
NBh:_Enumerator_System_Collections_IDictionaryEnumerator_get_Value_m3005608231_gshared
eyi:_MaskUtilities_NotifyStencilStateChanged_m1527407683
zKg:__Z94RuntimeInvoker_Void_t1841601450_RuntimeObject_Int32_t2071877448_RuntimeObject_SByte_t454417549PFvvEPK10MethodInfoPvPS4_
i6a:__ZN12CullingGroup10SendEventsEPK17CullingGroupEventj
Kff:_DSAManaged_GenerateKeyPair_m2711647034
Ubb:__ZN13sorted_vectorINSt3__24pairIN4core12basic_stringIcNS2_20StringStorageDefaultIcEEEES6_EEN10vector_mapIS6_S6_27compare_tstring_insensitiveIS6_E13stl_allocatorIS7_L18MemLabelIdentifier37ELi16EEE13value_compareESD_E9erase_oneIS6_EEjRKT_
jrb:__ZThn32_NK8Renderer8GetLayerEv
QKe:_Array_InternalArray__ICollection_Add_TisResourceCacheItem_t333236149_m1151081240_gshared
_P:__ZN17AudioClipPlayable12PrepareFrameERK19DirectorVisitorInfo
AKb:__ZN15SerializeTraitsI31ArrayOfManagedObjectsTransfererE8TransferI24GenerateTypeTreeTransferEEvRS0_RT_
dlg:_SoapServices_GetXmlTypeForInteropType_m3821579913
HZj:_emscripten_glTexParameterfv__wrapper
Y7c:_il2cpp_method_get_param_count
bZb:__ZN10systeminfo19ISOToSystemLanguageERN4core12basic_stringIcNS0_20StringStorageDefaultIcEEEE
Kdd:__ZNK15dense_hashtableINSt3__24pairIK10KeyWrapperINS1_IPK12PropertyInfoP11Il2CppClassEEEjEES9_17ReflectionMapHashIS8_EN14dense_hash_mapIS9_jSD_NS9_14EqualsComparerINS0_8equal_toIS8_EEEENS0_9allocatorISB_EEE9SelectKeyESI_SK_E3endEv
MFd:__ZN6il2cpp8metadata26Il2CppGenericMethodCompare6EqualsEPK19Il2CppGenericMethodS4_
UHi:_AnimationClipPlayable_op_Explicit_m1819456049
_Ec:_ps_dimension_done
KZd:_LayoutRebuilder_MarkLayoutForRebuild_m640589351
BLc:__Z46Register_UnityEngine_TextGenerator_Dispose_cppv
qXd:_PointerEventData_get_pressEventCamera_m724559964
_Md:_String_IndexOfUnchecked_m3356721554
Zpb:__ZN16LightmapSettings8TransferI14SafeBinaryReadEEvRT_
NIa:__ZN17BufferManagerGLES13ReleaseBufferEP14DataBufferGLES
AJj:_Display__ctor_m3803500957
Dtc:__Z18Transfer_BlittableI8JSONReadLb1EjEvRK29SerializationCommandArgumentsR31RuntimeSerializationCommandInfo
Xmj:_PKCS12_Decrypt_m1557069392
ZFi:_VertexHelper_AddUIVertexQuad_m280792808
w9f:_WebHeaderCollection_ToString_m1246460752
M6i:_InternalEnumerator_1_System_Collections_IEnumerator_get_Current_m2842514953_AdjustorThunk
jp:stackSave
uFc:_ps_dimension_end
zfc:__Z41Register_UnityEngine_Mesh_Internal_Createv
wpd:__ZNK15dense_hashtableI10KeyWrapperIP18Il2CppGenericClassES3_N6il2cpp8metadata22Il2CppGenericClassHashEN14dense_hash_setIS3_S6_NS3_14EqualsComparerINS5_25Il2CppGenericClassCompareEEENSt3__29allocatorIS3_EEE8IdentityESA_SD_E12test_deletedERK30dense_hashtable_const_iteratorIS3_S3_S6_SF_SA_SD_E
nZc:__ZN6il2cpp2vm5Class14GetNestedTypesEP11Il2CppClassPPv
xHd:_MACTripleDES_Initialize_m1318099802
uXf:_MD5SHA1_VerifySignature_m507888141
Ffe:_Byte_System_IConvertible_ToChar_m4188836679
xVe:_NumberFormatter_InitDecHexDigits_m2036076025
qCh:_Enumerator_get_CurrentKey_m3839846791_AdjustorThunk
quc:__ZN8JSONRead21TransferSTLStyleArrayI13dynamic_arrayIaLj1EEEEvRT_18MemLabelIdentifier17TransferMetaFlags
e8a:__ZN6Camera9SetAspectEf
lWc:__ZN19TransportJavaScript9DoRequestERKN4core12basic_stringIcNS0_20StringStorageDefaultIcEEEEm21UnityWebRequestMethodS6_bbP12HeaderHelperP13UploadHandlerP15DownloadHandlerP14ResponseHelperP15UnityWebRequest
va:invoke_viiffiii
uri:__ZL79TouchInputModule_t2561058385_CustomAttributesCacheGenerator_m_ForceModuleActiveP21CustomAttributesCache
Z_j:_emscripten_glBindVertexArray__wrapper
vJh:_Dictionary_2_InitArrays_m435313205_gshared
W8a:__ZN9Transform37InitializeTransformHierarchyRecursiveER18TransformHierarchyRii
U$b:__Z34DefaultPrepareDispatchBoundsUpdateR13RendererScene18MemLabelIdentifier
D3d:_Graphic_get_useLegacyMeshGeneration_m1366444625
i9f:_ServicePointManager_get_CheckCertificateRevocationList_m4009410230
qti:__ZL65InputField_t1631627530_CustomAttributesCacheGenerator_m_InputTypeP21CustomAttributesCache
Zdf:_ModulusRing_Pow_m1137250399
sWa:__ZN17MeshRenderingData4InitEP4MeshS1_iP15SharedGfxBufferS3_
gla:__ZN19ShaderPropertySheet38CopyTextureWithAuxiliaryPropertiesFromERKN9ShaderLab16FastPropertyNameERKS_
Jdg:_X509ChainStatus__ctor_m3628359961_AdjustorThunk
pNd:_Evidence_get_HostEvidenceList_m2095478124
Zic:__Z57Register_UnityEngine_Transform_INTERNAL_set_localPositionv
z_f:_Context_Clear_m4000337070
MDa:__ZN13GfxDeviceGLES26SetRandomWriteTargetBufferEi15ComputeBufferID
tgg:_IntervalCollection_Normalize_m538796191
TTa:__ZZ23InitPlayerLoopCallbacksvEN49EarlyUpdateResetFrameStatsAfterPresentRegistrator7ForwardEv
Moe:_Console_SetEncodings_m342145566
ltj:_TrackedReference_op_Equality_m3491334086
u3d:_FontUpdateTracker_UntrackText_m3827316510
OSe:_Array_InternalArray__get_Item_TisSingle_t2076509932_m1495809753_gshared
jOe:_Array_InternalArray__set_Item_TisAnimatorClipInfo_t3905751349_m978873279_gshared
_7b:__ZNK11ICallString6ToUTF8Ev
rYc:__ZN15dense_hashtableINSt3__24pairIK10KeyWrapperIPK22Il2CppGenericParameterEP11Il2CppClassEES6_N6il2cpp5utils11PointerHashIS4_EEN14dense_hash_mapIS6_S9_SE_NS6_14EqualsComparerINS0_8equal_toIS5_EEEENS0_9allocatorISA_EEE9SelectKeyESJ_SL_E15insert_noresizeERKSA_
wyd:_GC_number_stack_black_listed
n_a:__ZNSt3__211__sift_downIR17ROSorterDepthPassP15RODataDepthPassEEvT0_S5_T_NS_15iterator_traitsIS5_E15difference_typeES5_
F8g:_Default_SelectMethod_m3081239996
gna:__ZN18UnityPropertySheet11UnityTexEnvC2Ev
eA:__ZN8Animator17ApplyOnAnimatorIKEiRNS_11AnimatorJobE
Y5:__ZN12FileAccessor4ReadEyyPvPy
Gla:__ZN13dynamic_arrayI16ShaderKeywordSetLj4EE6insertEPS0_PKS0_S4_
Jhg:_MethodDictionary_IsOverridenKey_m3922224650
zne:_SyncHashtable_Contains_m3042906549
ZAf:_List_1_System_Collections_IList_set_Item_m4016273526_gshared
_dg:_X509KeyUsageExtension_CopyFrom_m931530012
xIi:_AnimationLayerMixerPlayable_IsLayerAdditiveInternal_m3902226808
G7a:__ZN13RenderTexture9SetHeightEi
Mt:__ZN7mecanim9animation17ClearMotionOutputEPNS0_18AnimationNodeStateE
Uxi:_LayoutUtility_U3CGetMinHeightU3Em__4_m1769295917
VTi:_Color32__ctor_m1932627809_AdjustorThunk
e5f:_SslStreamBase_Read_m1036897444
hNi:_AnimatorControllerPlayable_INTERNAL_CALL_PlayInFixedTimeInternal_m44271350
Uzi:_RectMask2D_PerformClipping_m1232012832
kmd:__ZN6il2cpp6icalls8mscorlib6System2IO6MonoIO17GetFileAttributesEP12Il2CppStringPi
eDh:_Transform_1_Invoke_m4020530914_gshared
GDc:_tt_cmap8_char_index
j2:__Z24scripting_class_get_name17ScriptingClassPtr
g8:__ZN13RuntimeStaticI15GUIEventManagerLb0EE13StaticDestroyEPv
nmh:_GUILayoutGroup_ResetCursor_m3160916532
rGb:__Z29Transfer_Blittable_ArrayFieldI14SafeBinaryReadjEvRT_R9ArrayInfoRK23StaticTransferFieldInfo
eSi:_Camera_FireOnPostRender_m94860165
le:_emscripten_set_keydown_callback
Wme:_Enumerator_get_Value_m3684748062
$ib:__ZN19StreamedBinaryWriteILb0EE21TransferSTLStyleArrayINSt3__26vectorI17SortingLayerEntryNS2_9allocatorIS4_EEEEEEvRT_17TransferMetaFlags
SAg:_UInt32_Parse_m3371984903
e6:__ZN12FileAccessorC2Ev
V9a:__ZN9Transform35SetLocalPositionWithoutNotificationERKN4math7_float3E
Bhj:_PatternLinkStack_GetCurrent_m2994645935
q6c:__ZN6il2cpp2vm7Runtime12GetConfigDirEv
Lhg:_MethodDictionary_set_Item_m3475146889
nGi:_Toggle_PlayEffect_m3950629415
LIe:_Array_IndexOf_TisRuntimeObject_m214763038_gshared
$Cb:__Z39WriteQueueForTransferSignatureIntoCacheRK31TransferFunctionScriptingTraitsRK24TransferRequestSignature17ScriptingClassPtrR23CachedSerializationDataRb
Mta:__ZN13RenderManager18UpdateAllRenderersEv
vRc:__ZN22BaseUnityConnectClient30OnEnteringStatePausedOrStoppedEv
tdd:__ZN15dense_hashtableINSt3__24pairIK10KeyWrapperINS1_IPK12PropertyInfoP11Il2CppClassEEEjEES9_17ReflectionMapHashIS8_EN14dense_hash_mapIS9_jSD_NS9_14EqualsComparerINS0_8equal_toIS8_EEEENS0_9allocatorISB_EEE9SelectKeyESI_SK_E12resize_deltaEjj
Zt:__ZN7mecanim5human12HumanPoseAddERNS0_9HumanPoseERKS1_S4_
ONi:_Animator_ResetTrigger_m865269317
yIf:_Collection_1_IsFixedSize_m218241296_gshared
R9a:__Z24MergeTransformComponentsR9TransformS0_b
uMi:_AnimatorControllerPlayable_IsInTransition_m3708059860
_Qi:_DelegatePInvokeWrapper_AudioConfigurationChangeHandler_t3743753033
l4e:_MonoIO_get_PathSeparator_m2635828107
Rcj:_InternalEnumerator_1_get_Current_m889125315_gshared
u9e:_MonoType_get_Name_m865859211
PCe:_CultureInfo__cctor_m2290268677
ZT:__Z71Register_UnityEngine_Audio_AudioClipPlayable_INTERNAL_CALL_ValidateTypev
qkg:_RemotingConfiguration__cctor_m2129988840
PGf:_Collection_1_Insert_m44548038_gshared
Iwd:__ZN6il2cpp2vm13ComObjectBase19GetRuntimeClassNameEPP15Il2CppHString__
Sj:_emscripten_glVertexAttribPointer
Jlb:__ZNK20IntermediateRenderer12GetSceneMaskEv
Rra:__ZN14PreloadManager26UpdatePreloadingSingleStepENS_21UpdatePreloadingFlagsEi
Zrh:_Material__ctor_m1440882780
VKd:_SHA512Managed_Initialize_m891287980
DNd:_SecurityException__ctor_m1484114982
fpj:_X509Crl_GetHashName_m183504634
sce:_Array_GetValue_m1507415734
fhc:__Z57Register_UnityEngine_RectTransform_INTERNAL_set_anchorMinv
lUe:_Object_MemberwiseClone_m2655589444
jpa:__ZN6prcoreL25inner_stretch_i8_bilinearEPKNS_9InnerInfoE
rsa:__ZL30RegisterFilteredObjectCallbackPP12Il2CppObjectiPv
fih:_MonoMethod_get_IsGenericMethod_m4276550811
DDh:_Transform_1_BeginInvoke_m3826027984_gshared
_V:__ZN11UnityEngine15CloudWebService16SessionContainer24GetSessionHeaderJsonDataERKN4core12basic_stringIcNS2_20StringStorageDefaultIcEEEERNS2_13StringBuilderE
ere:_Decimal_op_Implicit_m2149927308
T7:__ZN13RuntimeStaticI21AssetReferenceStorageLb0EE13StaticDestroyEPv
ssd:__ZN6il2cpp6icalls8mscorlib6System9AppDomain22InternalGetProcessGuidEP12Il2CppString
rZb:__ZN15dense_hashtableINSt3__24pairIKN4core12basic_stringIcNS2_20StringStorageDefaultIcEEEE10vector_setI4PPtrI11SpriteAtlasENS0_4lessISB_EE13stl_allocatorISB_L18MemLabelIdentifier79ELi16EEEEES6_20StringHash32FunctionIS6_EN14dense_hash_mapIS6_SH_SK_NS0_8equal_toIS6_EESE_ISI_LSF_79ELi16EEE9SelectKeyESN_SO_E15insert_noresizeERKSI_
ggf:_KeyPairPersistence_get_UseMachineKeyStore_m560802076
XQ:__ZN19AudioPlayableOutput19DeallocateResourcesEv
mAh:_Enumerator_System_Collections_IDictionaryEnumerator_get_Entry_m345330700_AdjustorThunk
kKb:__Z18Transfer_BlittableI24GenerateTypeTreeTransferLb1EjEvRK29SerializationCommandArgumentsR31RuntimeSerializationCommandInfo
kYa:__ZNK25CameraStackRenderingState25GetAfterFinalCameraTargetEv
TWf:_MD2Managed_Padding_m410163267
pYc:__ZN6il2cpp2os12FastAutoLockD2Ev
Clb:__ZN11ColorRGBA328TransferI14SafeBinaryReadEEvRT_
Qf:_emscripten_glClearDepth
V2b:__ZNK8GUILayer22GetTypeVirtualInternalEv
lsb:__ZN14SafeBinaryRead21TransferSTLStyleArrayINSt3__26vectorIN15QualitySettings14QualitySettingENS1_9allocatorIS4_EEEEEEvRT_17TransferMetaFlags
a2e:_File_OpenText_m4058508963
Wyb:__ZNSt3__26vectorINS_4pairIPKN5Unity4TypeE7Hash128EENS_9allocatorIS7_EEE8__appendEj
plg:_WellKnownClientTypeEntry__ctor_m670594074
Dfa:__ZL41FileEntryInfoListToFolderContentsAbsoluteRK13dynamic_arrayI13FileEntryInfoLj8EERNSt3__23setIN4core12basic_stringIcNS6_20StringStorageDefaultIcEEEENS4_4lessISA_EENS4_9allocatorISA_EEEE
wue:_DateTime_System_IConvertible_ToSingle_m3927769066_AdjustorThunk
UHc:_cff_font_load
gud:__GLOBAL__sub_I_LibraryLoader_cpp
Rac:__Z13IsPathCreatedRKN4core12basic_stringIcNS_20StringStorageDefaultIcEEEE
Eva:__ZL22stbir__encode_scanlineP11stbir__infoiPvPfiii
wMg:__Z136RuntimeInvoker_Void_t1841601450_Byte_t3683104436_RuntimeObject_Int64U26_t763825331_ObjectU26_t597476745_SerializationInfoU26_t4051840202PFvvEPK10MethodInfoPvPS4_
Mwc:__ZN20QuadTreeNodeRenderer13StaticDestroyEPv
WW:__ZN11UnityEngine15CloudWebService20WebRequestRestClient5AbortEv
H$b:__ZN9Transform12CleanupClassEv
TGg:__Z50RuntimeInvoker_Void_t1841601450_Double_t4078015681PFvvEPK10MethodInfoPvPS4_
JBd:__ZN6il2cpp6icalls8mscorlib6System9Threading16NativeEventCalls19CloseEvent_internalE12Il2CppIntPtr
Mz:__ZN11UnityEngine9Animation33SetGenericTransformPropertyValuesERKNS0_30AnimatorGenericBindingConstantERKN7mecanim10ValueArrayEP9Transformb
x_f:_ClientContext_set_ClientHelloProtocol_m2246603449
cAc:_UNITY_FT_Set_Pixel_Sizes
P9d:_U3CMouseDragOutsideRectU3Ec__Iterator1_MoveNext_m2845491958
uUb:__ZNSt3__26vectorIN9ShaderLab19SerializedSubShaderENS_9allocatorIS2_EEE26__swap_out_circular_bufferERNS_14__split_bufferIS2_RS4_EE
FIg:__Z116RuntimeInvoker_RuntimeObject_RuntimeObject_Int32_t2071877448_RuntimeObject_RuntimeObject_RuntimeObject_RuntimeObjectPFvvEPK10MethodInfoPvPS4_
BYd:_StandaloneInputModule_IsModuleSupported_m623598506
Qid:__ZN6il2cpp2vmL24thread_cleanup_on_cancelEPv
rpg:_SByte_ToString_m4105923225_AdjustorThunk
TCe:_CultureInfo_ConstructCurrentUICulture_m3363349599
ltb:__ZN13dynamic_arrayI7SubMeshLj4EE18resize_initializedEjRKS0_12ResizePolicy
Svi:__ZL75CanvasScaler_t2574720772_CustomAttributesCacheGenerator_m_FallbackScreenDPIP21CustomAttributesCache
T8e:_MonoType_GetEvent_m4160342003
Ezi:_RawImage_set_texture_m2400157626
DEj:_PrimeHelper_ToPrime_m1606935350_gshared
Rlb:__Z30ProcessDynamicBatchGeometryJobP25DynamicVBOGeometryJobDataj
L_a:__ZNSt3__27__sort4IRNS_6__lessI11CulledLightS2_EEPS2_EEjT0_S6_S6_S6_T_
FPi:_AudioClipPlayable_INTERNAL_CALL_GetLoopedInternal_m3082735156
tbf:_MSCompatUnicodeTable_Level3_m260824928
w3:__Z26scripting_object_get_class18ScriptingObjectPtr
e$b:__ZNK28MonoBehaviourPropertyBinding15GenerateBindingERKN4core12basic_stringIcNS0_20StringStorageDefaultIcEEEEbRN11UnityEngine9Animation14GenericBindingE
Sph:_GUIStyle_CalcMinMaxWidth_m2027503105
BZe:_Int32_FindExponent_m3187554672
sgf:_KeyPairPersistence_Load_m1355205585
D_e:_Int32_ToString_m2960866144_AdjustorThunk
IKg:__Z127RuntimeInvoker_Void_t1841601450_IntPtr_t_Int32_t2071877448_SByte_t454417549_Int32_t2071877448_SByte_t454417549_SByte_t454417549PFvvEPK10MethodInfoPvPS4_
WEj:_HashSet_1_Contains_m3626542335_gshared
HPd:_Single_CompareTo_m2081476257_AdjustorThunk
Kud:__ZN6il2cpp6icalls8mscorlib6System11Environment15internalGetHomeEv
oTj:dynCall_iiiiiiffiiiiiiiiiffffiiii
Anj:_PKCS12_get_Keys_m288413492
wgb:__ZNK5Unity9Component7GetNameEv
dCb:__ZN13MonoBehaviour5DoGUIENS_13GUILayoutTypeEii
ang:__ZN21InterfaceFuncInvoker4IP12Il2CppObjectS1_P28SerializationInfo_t22898743028StreamingContext_t1417235061S1_E6InvokeEjP11Il2CppClassS1_S1_S3_S4_S1_
lBj:_ObjectPool_1_Get_m3724675538_gshared
I$f:_ClientSessionCache_SetContextFromCache_m3917528339
ZA:__ZN7mecanim8skeleton26SkeletonPoseComputeGlobalQEPKNS0_8SkeletonEPKNS0_13SkeletonPoseTIN4math4trsXEEEPS7_ii
pvc:__ZN8JSONRead21TransferSTLStyleArrayI13dynamic_arrayIfLj4EEEEvRT_18MemLabelIdentifier17TransferMetaFlags
Evf:_List_1_GetEnumerator_m2672519407_gshared
zA:__ZN9BlobWrite8TransferI22OffsetPtrArrayTransferIiEEEvRT_PKc17TransferMetaFlags
LMg:__Z82RuntimeInvoker_Boolean_t3825574718_SByte_t454417549_RuntimeObject_SByte_t454417549PFvvEPK10MethodInfoPvPS4_
dbf:_ContractionComparer_Compare_m314873025
h3a:__ZN14qsort_internal18QSortSingleJobDataIP16RenderObjectDatai26RenderDeferredObjectSorterE7SortJobEPS4_
Hqh:_GUIUtility_EndGUIFromException_m2091524531
V_e:_Int64_System_IConvertible_ToDouble_m638786774
qM:__ZN4FMOD6System7releaseEv
B5:__Z18PathToAbsolutePathRKN4core12basic_stringIcNS_20StringStorageDefaultIcEEEE
Smf:_Enumerator_MoveNext_m3078170540_AdjustorThunk
NBj:_Action_Invoke_m3801112262
dHg:__Z79RuntimeInvoker_Decimal_t724701077_RuntimeObject_Int32_t2071877448_RuntimeObjectPFvvEPK10MethodInfoPvPS4_
PTi:_Color_Lerp_m3323752807
jva:__ZL13BlitImageImplR14ImageReferenceiiRKS_NS_10ColorSpaceENS_8BlitModeEb
Bqa:__ZN6prcoreL17RemapGenericFloatI18TexFormatRGBAFloat17TexFormatRGBFloatEEvPKNS_9InnerInfoE
tGg:__Z64RuntimeInvoker_RuntimeObject_Int16_t4041245914_Int16_t4041245914PFvvEPK10MethodInfoPvPS4_
awa:__ZN29SerializeTraitsForStringTypesIN4core12basic_stringIcNS0_20StringStorageDefaultIcEEEEE8TransferI24GenerateTypeTreeTransferEEvRS4_RT_
wph:_GUIUtility_Internal_GetHotControl_m2510727642
xK:__ZN12AudioManager29ShutdownReinitializeAndReloadEv
Hmj:_NetscapeCertTypeExtension_Decode_m2210025005
Azh:_RectTransform_GetLocalCorners_m1836626405
Svd:__GLOBAL__sub_I_String_cpp
oYc:__ZN15dense_hashtableINSt3__24pairIK10KeyWrapperIPK22Il2CppGenericParameterEP11Il2CppClassEES6_N6il2cpp5utils11PointerHashIS4_EEN14dense_hash_mapIS6_S9_SE_NS6_14EqualsComparerINS0_8equal_toIS5_EEEENS0_9allocatorISA_EEE9SelectKeyESJ_SL_E6insertERKSA_
e2e:_FileLoadException__ctor_m1356374414
_Fa:__ZN14DataBufferGLES16RecreateWithDataEjPKv
nac:__Z29GetGlobalAllowNameConversionsv
Jab:__ZN8Material8SetColorEN9ShaderLab16FastPropertyNameERK10ColorRGBAf
pgh:_Module_GetCustomAttributes_m3581287913
jO:__ZN11AudioSource23VirtualRedirectTransferER18StreamedBinaryReadILb0EE
Y7:__ZN21AssetReferenceStorageC2Ev
rxc:__ZNSt3__26vectorIN4core12basic_stringIcNS1_20StringStorageDefaultIcEEEE13stl_allocatorIS5_L18MemLabelIdentifier34ELi16EEEC2INS_11__wrap_iterIPS5_EEEET_SE_RKS8_PNS_9enable_ifIXaasr21__is_forward_iteratorISE_EE5valuesr16is_constructibleIS5_NS_15iterator_traitsISE_E9referenceEEE5valueEvE4typeE
n2:__ZL41AssemblyNameMatchesWithOrWithoutExtensionPKcS0_
qKa:__ZN14GfxContextGLES43AddRenderSurfaceToDeferredFBOInvalidateListEPK17RenderSurfaceGLES
Ojd:__ZN6il2cpp6icalls8mscorlib6System9Threading6Thread15Thread_internalEP12Il2CppThreadP14Il2CppDelegate
Qka:__ZN11NamedObject23VirtualRedirectTransferER14SafeBinaryRead
Uzc:__ZNSt3__26vectorIN20TextRenderingPrivate8FontImpl13CharacterInfoE13stl_allocatorIS3_L18MemLabelIdentifier1ELi16EEE6insertENS_11__wrap_iterIPKS3_EERS9_
$ra:__ZN23PreloadManagerOperation6IsDoneEv
z6c:__ZN6il2cpp2vm7Runtime15InvokeWithThrowEPK10MethodInfoPvPS5_
Zjf:_X509Certificate_get_RawData_m3000055075
C5b:__Z33GetHasChangedDeprecatedSystemMaskv
kwd:__ZN6il2cpp5utils11StringUtils11Utf16ToUtf8ERKNSt3__212basic_stringIDsNS2_11char_traitsIDsEENS2_9allocatorIDsEEEE
xBh:_Enumerator_VerifyState_m1165543189_AdjustorThunk
cve:_DateTime_AddSeconds_m722082155_AdjustorThunk
mke:_SynchronizedArrayListWrapper_CopyTo_m956887031
Bwa:__ZN21LightProbeProxyVolume18HasHardwareSupportEv
epa:__ZN6prcoreL31inner_stretch_argb8888_bilinearEPKNS_9InnerInfoE
MNb:__Z18Transfer_BlittableI18StreamedBinaryReadILb1EELb1E8BitFieldEvRK29SerializationCommandArgumentsR31RuntimeSerializationCommandInfo
WBc:_UNITY_FT_Outline_Decompose
J0f:_TlsClientCertificate_get_ClientCertificate_m3062440489
fNd:_StrongNamePublicKeyBlob_ToString_m3721281223
IAd:_GC_init_size_map
c6i:_InternalEnumerator_1_get_Current_m198513457_AdjustorThunk
LYa:__Z20scripting_object_new17ScriptingClassPtr
yXe:_TextInfo__ctor_m2782608694
$Bf:_Queue_1_System_Collections_ICollection_CopyTo_m772787461_gshared
Hjc:__Z58Register_UnityEngine_Object_Internal_CloneSingleWithParentv
HXe:_TextInfo_ToUpper_m299550697
sJi:_AnimationOffsetPlayable_INTERNAL_CALL_SetRotationInternal_m2809009466
b3a:__ZN18ShadowMapJobHeaderD0Ev
J3d:_Graphic_OnRectTransformDimensionsChange_m1610753363
bte:_Convert_ToUInt16_m3265369225
P:Math_exp
y8e:_MonoEnumInfo_get_Cache_m3551569711
No:FUNCTION_TABLE_iiifi
gsd:__ZN6il2cpp2os5posix13PosixAutoLockD2Ev
IEe:_Array_InternalArray__ICollection_Contains_TisVector3_t2243707580_m3625701788_gshared
aza:__ZNSt3__26vectorINS_4pairIyP17VertexDeclarationEENS_9allocatorIS4_EEE6insertENS_11__wrap_iterIPKS4_EERS9_
cGc:_cff_get_advances
G8a:__ZN13MonoBehaviour9SetScriptERK4PPtrI10MonoScriptE18ScriptingObjectPtr
yEe:_Array_InternalArray__ICollection_Contains_TisPlayableBinding_t2498078091_m4267109606_gshared
CBc:_UNITY_FT_Create_Class_sfnt_module_class
wxe:_Decimal_IsZero_m3557909184_AdjustorThunk
The:_Char_ToString_m1401375624
FHd:_MD5CryptoServiceProvider__cctor_m3309191799
kfa:__ZNK10FileSystem16LastErrorMessageEv
gyd:__ZNK6il2cpp8metadata14Il2CppTypeLessclEPK10Il2CppTypeS4_
o_c:__ZN15dense_hashtableINSt3__24pairIK10KeyWrapperIPK11Il2CppClassEPKcEES6_N6il2cpp5utils11PointerHashIS3_EEN14dense_hash_mapIS6_S9_SE_NS6_14EqualsComparerINS0_8equal_toIS5_EEEENS0_9allocatorISA_EEE9SelectKeyESJ_SL_E14squash_deletedEv
rYg:__Z74RuntimeInvoker_Vector2_t2243707579_Vector2_t2243707579_Vector2_t2243707579PFvvEPK10MethodInfoPvPS4_
Dof:_Enumerator_System_Collections_IEnumerator_Reset_m3052395060_gshared
aVf:_Kernel_DwordDivMod_m3728402123
KBb:__ZN13MonoBehaviour13AwakeFromLoadE17AwakeFromLoadMode
zIb:__ZL26Transfer_SimpleNativeClassI17RemapPPtrTransfer8GradientLb1EEvRK29SerializationCommandArgumentsR31RuntimeSerializationCommandInfo
Q5b:__ZN12CachedWriter9InitWriteER15CacheWriterBase
o4b:__Z21UnsignedInt64ToStringy
tug:_UTF7Decoder__ctor_m549434986
scj:_InternalEnumerator_1_get_Current_m1025321669_AdjustorThunk
Rfc:__Z36MonoBehaviour_CUSTOM_InvokeRepeatingP12Il2CppObjectP12Il2CppStringff
ijc:__Z66Register_UnityEngine_Transform_INTERNAL_CALL_InverseTransformPointv
W7i:_InternalEnumerator_1_get_Current_m1089848479_AdjustorThunk
Aaa:__ZZN15DirectorManager15InitializeClassEvEN41FixedUpdateDirectorFixedUpdateRegistrator7ForwardEv
EG:__Z82AnimatorControllerPlayable_CUSTOM_INTERNAL_CALL_GetCurrentAnimatorClipInfoInternalR9HPlayablei
Leg:_Group__ctor_m4103922028
ZUa:__ZN6Camera26ClearIntermediateRenderersEj
I_j:_glLinkProgram__wrapper
Opa:__ZN6prcoreL12RemapGenericI17TexFormatARGB888815TexFormatBGR888EEvPKNS_9InnerInfoE
LHd:_MD5CryptoServiceProvider_ProcessFinalBlock_m1052610785
HG:__Z79AnimatorControllerPlayable_CUSTOM_INTERNAL_CALL_GetNextAnimatorClipInfoInternalR9HPlayablei
Cke:_BitArray_Set_m2878881714
qDi:_Selectable_get_colors_m3501193396
Mnd:__ZN6il2cpp6icalls8mscorlib6System13Globalization11CultureInfo35construct_internal_locale_from_nameEP17Il2CppCultureInfoP12Il2CppString
zKb:__ZL22Transfer_ManagedObjectI24GenerateTypeTreeTransferLb1EEvRK29SerializationCommandArgumentsR31RuntimeSerializationCommandInfo
L0i:_ContextAttribute_Equals_m53324298
JSi:_Canvas_ForceUpdateCanvases_m2446828475
_j:_emscripten_set_main_loop_timing
jEg:_WeakReference_AllocateHandle_m1783929473
VFa:__ZN14DataBufferGLES12RecordRenderEv
HPe:_Array_Sort_TisRuntimeObject_m3674422195_gshared
gab:__ZN14ImageReference10FlipImageYEv
Jlc:__Z14GetDefaultSkini
YH:__ZN4FMOD3DSP9setBypassEb
Zeb:__Z19NormalizeWheelInputf
QEe:_Array_InternalArray__ICollection_Remove_TisLink_t865133271_m1984184141_gshared
svc:__Z29Transfer_Blittable_ArrayFieldI8JSONReadhEvRT_R9ArrayInfoRK23StaticTransferFieldInfo
Zae:_LayoutRebuilder_IsDestroyed_m3442208294
a8b:__ZN11MonoManager25GetImageFromAssemblyIndexEi
_Ah:_Enumerator_VerifyState_m1547102902_AdjustorThunk
dFd:__ZN6il2cpp2os20ThreadLocalValueImpl8SetValueEPv
oxd:__ZN6il2cpp2os11Environment17GetProcessorCountEv
$Mg:__Z165RuntimeInvoker_Void_t1841601450_UInt32U26_t2197289955_Int32_t2071877448_UInt32U26_t2197289955_Int32_t2071877448_Int32_t2071877448_Int32_t2071877448_Int32_t2071877448PFvvEPK10MethodInfoPvPS4_
Iqc:__Z18Transfer_BlittableI9JSONWriteLb1EtEvRK29SerializationCommandArgumentsR31RuntimeSerializationCommandInfo
f2e:_FileLoadException__ctor_m918124939
rk:___syscall85
JIj:__ZL25UnresolvedVirtualCall_198P12Il2CppObjectfPK10MethodInfo
_Xa:__ZNSt3__26__sortIRPFbP10GUIElementS2_EPS2_EEvT0_S7_T_
JVf:_SequentialSearchPrimeGeneratorBase_GenerateSearchBase_m2930465198
_2b:__ZN16GraphicsSettings12CleanupClassEv
Zsd:__ZN6il2cpp2os6Thread19DetachCurrentThreadEv
JYc:__ZN6il2cpp2vmL21SetupInterfacesLockedEP11Il2CppClassRKNS_2os12FastAutoLockE
cEb:__ZN11MonoManager23VirtualRedirectTransferER24GenerateTypeTreeTransfer
Jy:__ZN23AnimationPlayableOutput17SetSourcePlayableEP8Playable
Uoh:_GUIStyle_set_clipOffset_m3871613343
Q6d:_SubmitEvent__ctor_m222860306
WV:__ZN11UnityEngine15CloudWebService14DataDispatcher15SetupWebRequestEv
q6e:_TextWriter__cctor_m4047845042
oSc:__ZN11UnityEngine15PlatformWrapper13GetShaderCapsEv
h4a:__ZNSt3__211__sift_downIR26RenderDeferredObjectSorterP16RenderObjectDataEEvT0_S5_T_NS_15iterator_traitsIS5_E15difference_typeES5_
dIi:_AnimationClipPlayable_SetApplyFootIK_m4007156901_AdjustorThunk
i7d:_InputField_CaretBlink_m3960486606
Sgf:_SmallXmlParser_ReadCharacters_m1966365555
wtd:__ZN6il2cpp2os10ThreadImpl22SetNativeThreadCleanupEPFvPvE
J3b:__ZN21FixedBehaviourManager6UpdateEv
Cac:__ZN9Transform9SetParentEPS_NS_15SetParentOptionE
W4d:_GridLayoutGroup_set_startCorner_m1660251450
i0:__ZN19ShaderPropertySheet8SetFloatEN9ShaderLab16FastPropertyNameEfNS_8SetFlagsE
rti:__ZL68InputField_t1631627530_CustomAttributesCacheGenerator_m_AsteriskCharP21CustomAttributesCache
nta:__ZN19RuntimeSceneManager24BeginIntegrateMainThreadEP10UnityScene
Otj:_Transform_TransformPoint_m3272254198
Std:__ZNSt3__2plIcNS_11char_traitsIcEENS_9allocatorIcEEEENS_12basic_stringIT_T0_T1_EERKS9_S6_
h7e:_LocalDataStoreSlot__cctor_m1192669356
bhd:__GLOBAL__sub_I_ArrayMetadata_cpp
bRj:_roundf
gSd:_String_CreateString_m2556700934
Zib:__ZN18StreamedBinaryReadILb0EE21TransferSTLStyleArrayINSt3__26vectorI17SortingLayerEntryNS2_9allocatorIS4_EEEEEEvRT_17TransferMetaFlags
Bs:__ZN8Animator15SetPrepareStageEv
LEi:_Slider_get_axis_m162140813
KYc:__ZN6il2cpp2vmL24SetupTypeHierarchyLockedEP11Il2CppClassRKNS_2os12FastAutoLockE
efb:__ZL11TextHandleriPK23EmscriptenKeyboardEventPv
q1a:__Z20CalculateLightMatrixRK15SharedLightDataP10Matrix4x4f
hDi:_ScrollRect_SetLayoutHorizontal_m3486408020
szc:_destroy_face
HAh:_Enumerator_VerifyState_m1547102902_gshared
gfh:_TypeBuilder_IsAssignableTo_m3210661829
gCd:__ZN6il2cpp6icalls8mscorlib6System8Security12Cryptography24RNGCryptoServiceProvider13RngInitializeEP11Il2CppArray
n8f:_IPAddress__cctor_m3624830012
sO:__ZN20SoundChannelInstance7setMuteEb
tii:__ZL115AnimatorStateInfo_t2577870592_CustomAttributesCacheGenerator_AnimatorStateInfo_t2577870592____nameHash_PropertyInfoP21CustomAttributesCache
fag:_AsnEncodedData_EnhancedKeyUsageExtension_m1452131166
LOb:__Z19TransferField_ArrayI18StreamedBinaryReadILb1EE27Converter_SimpleNativeClassI17AnimationCurveTplIfEEEvRK23StaticTransferFieldInfoR31RuntimeSerializationCommandInfoRT0_
zGa:__ZN18GfxFramebufferGLES22MakeCurrentFramebufferENS_7BuiltinE
rfg:_Interpreter_Close_m1500459069
vk:_JS_SystemInfo_GetWidth
Xva:__ZN12CachedReader4ReadEPvj
yGc:_cf2_blues_init
g6i:_InternalEnumerator_1_System_Collections_IEnumerator_get_Current_m3600601141_gshared
jKd:_SHA1Internal_HashFinal_m3188468925
Jvj:_Vector3_op_Inequality_m799191452
I0a:__Z24CalculateLightShadowFadeRK6CamerafffR8Vector4f
s2:__ZN19RuntimeSceneManagerD2Ev
w_i:_ChannelData_get_CustomProperties_m1470957369
YQe:_Dictionary_2_Do_ICollectionCopyTo_TisRuntimeObject_m545661084_gshared
kX:__ZN11UnityEngine15CloudWebService25WebRequestDownloadHandler17OnCompleteContentEv
dpa:__ZN6prcore17GetIntegerBlitterE13TextureFormatS0_N14ImageReference8BlitModeE
ZRi:_Camera_INTERNAL_CALL_ScreenPointToRay_m2752248646
Icd:__ZN6il2cpp2gc19AppendOnlyGCHashMapINSt3__24pairIPK11Il2CppImageP11Il2CppClassEEP22Il2CppReflectionModule17ReflectionMapHashIS9_ENS2_8equal_toIS9_EEE11TryGetValueERKS9_PSB_
WBh:_Enumerator_VerifyState_m3173176371_AdjustorThunk
r7f:_TypeConverterAttribute__cctor_m506796812
mac:__ZN9BlobWrite14ReduceCopyImplERK14ReduceCopyDataj
Tej:_Comparer_1_System_Collections_IComparer_Compare_m1790257529_gshared
LVj:_glShaderSource__wrapper
TQa:__ZN25MultiBlocksMemoryFileData17AdjustBlocksCountEj
skd:__ZNSt3__214__split_bufferIN6il2cpp2vm22EmbeddedResourceRecordERNS_9allocatorIS3_EEED2Ev
E_f:_TlsClientHello__ctor_m1699671541
Axc:__ZN13TextRendering4Font8TransferI24GenerateTypeTreeTransferEEvRT_
pJi:_AnimationOffsetPlayable_GetRotation_m3608800497_AdjustorThunk
BTa:__ZN23ManagedAttributeManager15InitializeClassEv
Ncc:__Z27CullingGroup_CUSTOM_DisposeP12Il2CppObject
CWa:__ZN13ComputeShader15SetTextureParamEjRKN9ShaderLab16FastPropertyNameE9TextureID16TextureDimension
aEi:_Shadow_set_effectDistance_m1951993364
Rlh:_GUILayoutEntry_ApplyStyleSettings_m371609721
DJh:_Dictionary_2_ContainsKey_m416495915_gshared
Bm:_glStencilMask
utd:__ZN6il2cpp2os10ThreadImpl16GetCurrentThreadEv
q$f:_TlsServerHelloDone__ctor_m2125611008
gme:_Hashtable__ctor_m2337481811
BBh:_Enumerator_System_Collections_IEnumerator_get_Current_m2010873149_gshared
rvi:__ZL74SpriteState_t1353336012_CustomAttributesCacheGenerator_m_HighlightedSpriteP21CustomAttributesCache
Zjg:_RealProxy__ctor_m2505535530
Jzd:_GC_push_conditional_with_exclusions
CBg:_UInt32_System_IConvertible_ToUInt16_m2798641702_AdjustorThunk
Vlg:_BinaryFormatter_get_DefaultSurrogateSelector_m219714691
yB:__ZN12_GLOBAL__N_121ProcessAnimationBeginER35AnimationPlayableEvaluationConstantR32AnimationPlayableEvaluationInputR33AnimationPlayableEvaluationOutput
OMi:_AnimatorControllerPlayable_CrossFadeInFixedTime_m3016214003
uJg:__Z136RuntimeInvoker_Void_t1841601450_Int32_t2071877448_RuntimeObject_RuntimeObject_RuntimeObject_RuntimeObject_RuntimeObject_SByte_t454417549PFvvEPK10MethodInfoPvPS4_
Kih:_MonoProperty_GetOptionalCustomModifiers_m3827844355
gOj:_strrchr
pLi:_AnimatorControllerPlayable_IsParameterControlledByCurve_m3990583163_AdjustorThunk
$bf:_SimpleCollator_GetSortKey_m2188419329
jwi:__ZL56LayoutElement_t2808691390_CustomAttributesCacheGeneratorP21CustomAttributesCache
Pmb:__ZN14RenderSettings27UpdateIndirectSpecularColorEv
Gzb:__ZN14PlayerSettings8TransferI18StreamedBinaryReadILb0EEEEvRT_
t5c:__ZN6il2cpp6icalls8mscorlib6System8MonoType16GetMethodsByNameEP20Il2CppReflectionTypeP12Il2CppStringibS5_
Sse:_Convert_ToSingle_m3186653037
gZi:_GCHandle__ctor_m2952050298
iyi:_Mask_IsRaycastLocationValid_m62488857
fza:__ZNSt3__27__sort3IRNS_4lessIN22BuiltinResourceManager8ResourceEEEPS3_EEjT0_S7_S7_T_
fej:_DefaultComparer_Compare_m3472472212_gshared
F2e:_MonoIO_GetLength_m2812344043
gFc:_ps_hints_t2mask
auj:_RequestAtlasCallback_Invoke_m2414509569
pwb:__ZN10BlendShape8TransferI19StreamedBinaryWriteILb0EEEEvRT_
Utj:_Transform_IsChildOf_m10844547
Y$e:__Z21il2cpp_codegen_sizeofP11Il2CppClass
Pga:__Z19GetTimeSinceStartupv
POd:_SecurityFrame_get_Assembly_m2816566490
OAd:_GC_notify_or_invoke_finalizers
xKc:_TT_Load_Composite_Glyph
uwj:_NetFxCoreExtensions_CreateDelegate_m2492743074
Tce:_Array_Sort_m2994254654
JAf:_List_1__ctor_m593058937_gshared
a$a:__ZN29RenderNodeQueuePrepareContextC2Ev
Tsh:_Mesh_Clear_m231813403
FR:__ZN10SampleClipC2E18MemLabelIdentifier18ObjectCreationMode
$Ub:__ZN9ShaderLab20SerializedSubProgram16TextureParameter8TransferI24GenerateTypeTreeTransferEEvRT_
IDd:__ZN6il2cpp2os11MutexHandle4WaitEj
n9b:__ZL34GetComponentsImplementationRecurseILb1ELi1ELi1EEbR10GameObjectbRK17CompareParametersRK39GetComponentsImplementation_ReturnValue
HDd:__ZN6il2cpp2os11MutexHandle4WaitEv
mie:_ArrayList_set_Capacity_m592558035
Yqa:__ZN6prcoreL17RemapGenericFloatI15TexFormatRGHalf18TexFormatARGBFloatEEvPKNS_9InnerInfoE
Hga:__Z18SimulateMouseInputi
zVa:__ZN13RenderManager23AddRemoveCamerasDelayedEv
Mrc:__ZN9JSONWrite8TransferI13dynamic_arrayIdLj8EEEEvRT_PKc17TransferMetaFlags
jFe:_Array_InternalArray__ICollection_Remove_TisILTokenInfo_t149559338_m1523907845_gshared
zme:_Hashtable_Rehash_m2877670513
F7a:__ZN13RenderTexture8SetWidthEi
g9d:_InputField_Insert_m1593238693
zKc:_UNITY_FT_GlyphLoader_CheckSubGlyphs
oQe:_Array_Sort_TisVector3_t2243707580_m3220373153_gshared
LKe:_Array_InternalArray__ICollection_Add_TisCustomAttributeTypedArgument_t1498197914_m3260005285_gshared
k1a:__Z25SetupObjectBakedOcclusionbRK15SharedLightDataRK26SharedLightmapSettingsDataRK15LightmapIndicesR17ShaderPassContext
one:_SyncHashtable_GetObjectData_m3774367030
mYe:_Guid_GetHashCode_m1401300871
toc:__Z42Register_UnityEngine_GUIStyle_set_fontSizev
NH:__Z82Register_UnityEngine_Animations_AnimatorControllerPlayable_INTERNAL_CALL_GetBoolIDv
Qz:__ZN8Animator9BuildJobsERK13dynamic_arrayIP14PlayableOutputLj4EERS0_INS_11AnimatorJobELj4EEPS7_bb
y$:__ZN9ShaderLab16FastPropertyName4InitEPKc
y_b:__Z13RegisterClassIN2UI13RectTransformEEvv
xbf:_MSCompatUnicodeTable_ToWidthCompat_m2299599532
BUi:_Component_BroadcastMessage_m444672650
iaf:_NumberFormatter_get_IsFloatingSource_m2830957202
qia:__ZN13RenderTexture9SetMipMapEb
hCi:_ScrollRect_set_verticalScrollbarSpacing_m2356851539
wga:__Z18GetDirectorManagerv
swh:_PlayableHandle_INTERNAL_CALL_SetTimeInternal_m3873000891
Raf:_OperatingSystem_GetObjectData_m2276196875
j_c:__ZN14dense_hash_mapI10KeyWrapperIPK11Il2CppClassEPKcN6il2cpp5utils11PointerHashIS1_EENS4_14EqualsComparerINSt3__28equal_toIS3_EEEENSC_9allocatorINSC_4pairIKS4_S6_EEEEEC2EjRKSA_RKSF_
Iic:__Z38Transform_CUSTOM_INTERNAL_get_rotationP12Il2CppObjectP11Quaternionf
xcd:__ZNK15dense_hashtableINSt3__24pairIK10KeyWrapperINS1_IPK10MethodInfoP11Il2CppClassEEEjEES9_17ReflectionMapHashIS8_EN14dense_hash_mapIS9_jSD_NS9_14EqualsComparerINS0_8equal_toIS8_EEEENS0_9allocatorISB_EEE9SelectKeyESI_SK_E5beginEv
MIa:__ZN7ApiGLES19UploadBufferSubDataEjN2gl12BufferTargetEllPKv
Lca:__ZNSt3__216__rotate_forwardINS_11__wrap_iterIPN4core12basic_stringIcNS2_20StringStorageDefaultIcEEEEEEEET_S9_S9_S9_
mQd:_String_System_IConvertible_ToInt32_m1927223638
FFe:_Array_InternalArray__ICollection_Remove_TisContentType_t1028629049_m3085152315_gshared
ySi:_Canvas_set_sortingOrder_m2922819993
QTi:_Color_get_red_m2410286591
kQi:_AudioMixerPlayable_Create_m3525453973
vSd:_ASCIIEncoding__ctor_m4127831672
ZFb:__Z19TransferField_ArrayI14SafeBinaryRead27Converter_SimpleNativeClassI8GUIStyleEEvRK23StaticTransferFieldInfoR31RuntimeSerializationCommandInfoRT0_
QMg:__Z63RuntimeInvoker_Void_t1841601450_RuntimeObject_Int16_t4041245914PFvvEPK10MethodInfoPvPS4_
ssg:_UTF8Encoding__ctor_m3336862259
nCd:__ZN6il2cpp5utils10MemoryPoolC2Ej
Acg:_X509Chain_GetAuthorityKeyIdentifier_m2607407678
jCd:__ZN6il2cpp5utils10MemoryPoolC2Ev
smb:__ZN14RenderSettings5ResetEv
oZb:__ZN6Sprite9BindAtlasERK4PPtrI11SpriteAtlasE
Okd:__ZNSt3__212basic_stringIDsNS_11char_traitsIDsEENS_9allocatorIDsEEE6appendEPKDsj
UD:__ZZN8Animator15InitializeClassEvEN37FunctorImpl_421kDidModifyOverrideClip4CallEPviR11MessageData
mbj:_InternalEnumerator_1_get_Current_m3724267862_AdjustorThunk
pRe:_Dictionary_2_Do_ICollectionCopyTo_TisKeyValuePair_2_t3716250094_m1740410536_gshared
Mkh:_GUI_CallWindowDelegate_m2039577415
etd:__ZN6il2cpp2os10ThreadImplD2Ev
Yhf:_RSAManaged_Dispose_m3018788098
tpc:__ZN8Gradient8TransferI9JSONWriteEEvRT_
qnj:_X509CertificateEnumerator_MoveNext_m1422952050
Efb:__ZNK12TLSAllocatorI14StackAllocatorE22GetAllocatedMemorySizeEv
EWh:__ZL54AssemblyName_t894705941_CustomAttributesCacheGeneratorP21CustomAttributesCache
ote:_Convert_ToUInt32_m3394039268
I9a:__ZN17RemapPPtrTransfer12PushMetaFlagE17TransferMetaFlags
IRa:__ZN12HandlerChain4NameEv
gyb:__ZNSt3__26vectorI9InputAxisNS_9allocatorIS1_EEE10deallocateEv
kZe:_Int16_Equals_m3925135434_AdjustorThunk
lQc:__Z44Register_UnityEngine_CanvasRenderer_get_cullv
nUh:__ZL60IHashCodeProvider_t1980576455_CustomAttributesCacheGeneratorP21CustomAttributesCache
V_b:__ZN13ProduceHelperI13MonoBehaviourLb0EE7ProduceE18MemLabelIdentifier18ObjectCreationMode
Tnf:_Enumerator_VerifyState_m1677639504_AdjustorThunk
OZf:_CipherSuiteCollection_get_Item_m280627160
vEb:__Z44InitializeTransferFunctionScriptingTraitsForI17RemapPPtrTransferEvR31TransferFunctionScriptingTraits
Qgg:_SerializationInfoEnumerator_MoveNext_m1876990879
Xxg:_TimeSpan_Duration_m4205681645
abb:__ZN14UnityWebStream24UpdateAllUnityWebStreamsEv
PSh:__ZL60ObsoleteAttribute_t3878847927_CustomAttributesCacheGeneratorP21CustomAttributesCache
jMe:_Array_InternalArray__ICollection_CopyTo_TisRaycastHit2D_t4063908774_m3837098618_gshared
lta:__ZN18LoadSceneOperation21MustCompleteNextFrameEv
tO:__ZNK12AudioManager16GetAudioListenerEv
c9h:__ZL48Camera_t189460977_CustomAttributesCacheGeneratorP21CustomAttributesCache
d7a:__ZNSt3__26vectorI11CameraStackNS_9allocatorIS1_EEE8__appendEj
p8d:_InputField_OnDisable_m1865339380
zBg:_UInt32_System_IConvertible_ToType_m747769316
St:__ZN7mecanim9animation12GetHumanPoseERKNS0_18ClipMuscleConstantEPKNS0_10ValueDeltaERNS_5human9HumanPoseE
xv:__ZN22AnimationMixerPlayable17ProcessRootMotionEP35AnimationPlayableEvaluationConstantP32AnimationPlayableEvaluationInputP33AnimationPlayableEvaluationOutput
H5:__Z13GetFileSystemv
Y6:__ZNK5Unity4Type21FindAllDerivedClassesER13dynamic_arrayIPKS0_Lj4EENS0_17TypeFilterOptionsE
f8:__ZN13RuntimeStaticI15GUIEventManagerLb0EE16StaticInitializeEPv
mHh:_Dictionary_2_ToTKey_m2900575080_gshared
gWe:_DaylightTime_get_Delta_m2316831491
EEe:_Array_InternalArray__ICollection_Contains_TisUILineInfo_t3621277874_m1175659630_gshared
lxg:_WaitHandle_WaitOne_m370363697
Geg:_FactoryCache_Lookup_m1681894361
wve:_DateTime_Subtract_m698282245_AdjustorThunk
YOb:__Z29Transfer_Blittable_ArrayFieldI18StreamedBinaryReadILb1EE5RectTIfEEvRT_R9ArrayInfoRK23StaticTransferFieldInfo
QWa:__ZN19ShaderPropertySheet9SetMatrixEN9ShaderLab16FastPropertyNameERK10Matrix4x4fNS_8SetFlagsE
JId:_RIPEMD160Managed_Initialize_m3365407578
q6b:__Z29GetTextureSizeAllowedMultiple13TextureFormat
m8f:_IPAddress_HostToNetworkOrder_m1092199707
HGe:_SetPropertyUtility_SetStruct_TisSpriteState_t1353336012_m2898060836_gshared
TMd:_SecurityAttribute__ctor_m3425755778
g4b:__ZN21IntermediateRenderers3AddEP20IntermediateRenderer
V6c:_il2cpp_array_element_size
GWi:_InvokableCall__ctor_m738302370
bg:_glCheckFramebufferStatus
XHe:_Array_compare_TisInt32_t2071877448_m840310202_gshared
Edj:_InternalEnumerator_1_System_Collections_IEnumerator_get_Current_m442726479_AdjustorThunk
uY:__ZN19CloudServiceHandler20StartEventDispatcherERKN11UnityEngine15CloudWebService18CloudServiceConfigERNS1_23WebRequestRestHeaderMapE
Mbj:_InternalEnumerator_1_System_Collections_IEnumerator_get_Current_m790514740_AdjustorThunk
lbf:__Z37il2cpp_codegen_get_executing_assemblyPK10MethodInfo
nqh:_GUIStyle_Internal_DrawPrefixLabel_m1693575069
bJe:_Array_InternalArray__IndexOf_TisByte_t3683104436_m3605266236_gshared
kqh:_GUIStyle_set_richText_m1853532836
lAi:_RaycastAllCallback_Invoke_m981876639
esg:_UnicodeEncoding__ctor_m72484327
Nmd:__ZN14dense_hash_mapI10KeyWrapperIP14Il2CppIUnknownEjN6il2cpp5utils11PointerHashIS1_EENS3_14EqualsComparerINSt3__28equal_toIS2_EEEENS9_9allocatorINS9_4pairIKS3_jEEEEE15set_deleted_keyERSF_
P7:__ZN22BuiltinResourceManager16StaticInitializeEPv
jVe:_NumberFormatter_ScaleOrder_m1915154678
_ed:__ZN13Il2CppHashMapIPK14Il2CppAssemblyPK22Il2CppMonoAssemblyNameN6il2cpp5utils11PointerHashIS1_EENSt3__28equal_toIS2_EENSA_9allocatorINSA_4pairIK10KeyWrapperIS2_ES5_EEEEEC2EjRKS9_RKSC_
K9i:_InternalEnumerator_1_System_Collections_IEnumerator_get_Current_m3576641073_AdjustorThunk
J$f:_ClientSessionInfo_SetContext_m2649357891
b_e:_Int32_System_IConvertible_ToInt64_m3790029067_AdjustorThunk
cVd:_RaycasterManager_GetRaycasters_m1154876874
W4f:_SslStreamBase_InternalReadCallback_m2524917586
C6:__ZN8Remapper6RemoveEi
Ssf:_List_1_CheckCollection_m2608305187_gshared
_zc:__ZL36CleanupTextRenderingScriptingClassesv
B7a:__ZN15ReflectionProbe17UseRendererResultEP13ProbeRenderer
zce:_Array_BinarySearch_m3270245097
rfc:__Z34Mesh_CUSTOM_SetArrayForChannelImplP12Il2CppObject30InternalScriptingShaderChannel34InternalScriptingVertexChannelTypeiP11Il2CppArrayi
T1e:_MonoIO_DeleteFile_m3273821223
hdf:_BigInteger_GenerateRandom_m2507308768
mue:_DateTime_System_IConvertible_ToDouble_m1431748426_AdjustorThunk
qEe:_Array_InternalArray__ICollection_Contains_TisUInt16_t986882611_m510319131_gshared
mNe:_Array_InternalArray__Insert_TisRaycastHit2D_t4063908774_m3174907903_gshared
Mxe:_Decimal_ToString_m541380585
tJi:_AnimationOffsetPlayable_SetRotation_m1448934280_AdjustorThunk
ED:__ZN11UnityEngine9Animation28GenericAnimationBindingCache25RegisterIAnimationBindingEPKN5Unity4TypeEiP17IAnimationBinding
pQc:__Z70RectTransformUtility_CUSTOM_INTERNAL_CALL_RectangleContainsScreenPointP12Il2CppObjectRK13Vector2fIcallS0_
QAe:_Enum_ToObject_m2601523252
VZa:__Z20RenderSceneDepthPassRK19SharedRendererSceneRK17ShaderReplaceDatabR17ShaderPassContext
D5a:__Z40ProcessCameraIndexListIsNodeVisibleInOutRK22SceneCullingParametersPK9SceneNodePK4AABBR9IndexList
olb:__ZN16GraphicsSettings8TransferI17RemapPPtrTransferEEvRT_
$4e:_StreamReader__ctor_m2654332332
PNc:__ZN2UI6Canvas13UpdateBatchesEb
Gy:__ZNK23AnimationPlayableOutput11DerivesFromE17ScriptingClassPtr
Yqf:_List_1_CheckCollection_m3968030679_gshared
$sg:_StringBuilder_ToString_m617673931
NSc:__ZN11UnityEngine7Connect13ConfigHandler12GetListenersERKN4core12basic_stringIcNS2_20StringStorageDefaultIcEEEE
YBa:__ZN9GfxDevice18AllocRenderSurfaceEb
iZb:__ZN10TagManager32GetSortingLayerUniqueIDFromValueEi
mjj:_AnchorInfo_get_IsComplete_m1247624133
k2d:_Dropdown_Show_m324374589
IXd:_PointerInputModule_ShouldStartDrag_m4163638715
LJg:__Z68RuntimeInvoker_RuntimeObject_RuntimeObject_DSAParameters_t1872138834PFvvEPK10MethodInfoPvPS4_
mQi:_AudioMixerPlayable_INTERNAL_CALL_CreateAudioMixerPlayableInternal_m3355685531
M_g:__Z101RuntimeInvoker_Void_t1841601450_RuntimeObject_Int32_t2071877448_Single_t2076509932_Single_t2076509932PFvvEPK10MethodInfoPvPS4_
qNi:_AnimatorControllerPlayable_PlayInFixedTime_m1932606764_AdjustorThunk
vXd:_RaycastResult_get_isValid_m2482925612
gfc:__Z26AnimationCurve_CUSTOM_InitP12Il2CppObjectP11Il2CppArray
nZj:_glUniform1uiv__wrapper
Led:__ZN6il2cpp2vm10Reflection7IsEventEP12Il2CppObject
c3:__ZN17PersistentManager26GetStreamNameSpaceInternalEi
KI:__ZN4FMOD6System11createSoundEPKcjP22FMOD_CREATESOUNDEXINFOPPNS_5SoundE
qTi:_CanvasRenderer_get_cull_m3577089379
eo:FUNCTION_TABLE_iiifiiii
PRi:_Camera_get_cullingMask_m73686965
Cuh:_Object_Destroy_m4145850038
cad:__ZN6il2cpp2vm4Type14IsSystemDBNullEPK10Il2CppType
F0:__ZN9ShaderLab19CommonPropertyNames13StaticCleanupEPv
oJi:_AnimationOffsetPlayable_INTERNAL_CALL_GetRotationInternal_m3411582030
j4:__Z31scripting_method_get_returntype18ScriptingMethodPtr
pCi:_ScrollRect_UpdateBounds_m3266596336
vqb:__ZN15SerializeTraitsI12LightmapDataE8TransferI24GenerateTypeTreeTransferEEvRS0_RT_
P$d:_ColorBlock_GetHashCode_m649325222
NVj:_glStencilOpSeparate__wrapper
A6b:__ZN4Mesh5SetUvEiPKfjj
Pta:__ZN7Texture13SetAnisoLimitENS_20AnisotropicFilteringE
hua:__ZN28LightProbeProxyVolumeManager25UpdateSHCoeffsTextureDataER21LightProbeProxyVolume
KPa:__Z18CreateDecompressor15CompressionType18MemLabelIdentifier
BS:__ZN11AudioModule16SetListenerPauseEb
Uh:_emscripten_glCompressedTexSubImage2D
eKa:__ZN13GfxDeviceGLES22MemoryBarrierImmediateEyN2gl17MemoryBarrierTypeE
wca:__ZZN18SpriteAtlasManagerC1EvEN46EarlyUpdateSpriteAtlasManagerUpdateRegistrator7ForwardEv
kra:__ZN6prcoreL26RemapGenericFloatToIntegerI18TexFormatARGBFloat17TexFormatARGB8888EEvPKNS_9InnerInfoE
l6b:__Z46GetShaderModelNumericValueFromRequirementsMask18ShaderRequirements
GIc:_cff_ps_has_glyph_names
Kxj:_InvokableCall_1__ctor_m2837611051_gshared
lyd:_GC_write
_gj:_PatternCompiler_EmitPosition_m3013268572
ceg:_X509SubjectKeyIdentifierExtension__ctor_m1109455121
w4d:_Graphic_CreateColorFromAlpha_m2614574534
Foc:__Z44Register_UnityEngine_GUIStyle_SetDefaultFontv
aNb:__Z18Transfer_BlittableI18StreamedBinaryReadILb1EELb1EiEvRK29SerializationCommandArgumentsR31RuntimeSerializationCommandInfo
xA:__ZN9BlobWrite8TransferI22OffsetPtrArrayTransferIKN4math7_float3EEEEvRT_PKc17TransferMetaFlags
OLd:_TripleDES_IsWeakKey_m483013953
Add:__ZN15dense_hashtableINSt3__24pairIK10KeyWrapperINS1_IPK12PropertyInfoP11Il2CppClassEEEjEES9_17ReflectionMapHashIS8_EN14dense_hash_mapIS9_jSD_NS9_14EqualsComparerINS0_8equal_toIS8_EEEENS0_9allocatorISB_EEE9SelectKeyESI_SK_E12maybe_shrinkEv
bQg:__Z75RuntimeInvoker_RuntimeObject_RuntimeObject_Single_t2076509932_RuntimeObjectPFvvEPK10MethodInfoPvPS4_
vNb:__Z18Transfer_BlittableI18StreamedBinaryReadILb1EELb1EsEvRK29SerializationCommandArgumentsR31RuntimeSerializationCommandInfo
gx:__ZN26AnimatorControllerPlayable17IsMultithreadableEv
k_g:__Z54RuntimeInvoker_Void_t1841601450_ColorBlock_t2652774230PFvvEPK10MethodInfoPvPS4_
rPd:_Single_System_IConvertible_ToSByte_m3757385387
T2e:_StreamAsyncResult_SetComplete_m2141125667
Vta:__ZL21SetAnisoLimitEnumImplN7Texture20AnisotropicFilteringEb
sRc:__ZN22BaseUnityConnectClient17OnEnterStateReadyEv
Nwa:__ZN14GrowableBufferD2Ev
zec:__Z29Input_CUSTOM_GetMouseButtonUpi
T5c:__ZN6il2cpp6icalls8mscorlib6System8MonoType16InternalGetEventEP20Il2CppReflectionTypeP12Il2CppStringi
Bvg:_Interlocked_CompareExchange_m3339239614
xtd:__ZN6il2cpp2osL23CleanupThreadIfCanceledEPv
Lec:__Z46Input_CUSTOM_INTERNAL_set_compositionCursorPosRK13Vector2fIcall
Ys:__ZN7mecanim5human12FullBodyMaskEv
d0:__ZN19ShaderPropertySheet11ComputeHashEv
m0c:__ZN30dense_hashtable_const_iteratorI10KeyWrapperIPK19Il2CppGenericMethodES4_N6il2cpp8metadata23Il2CppGenericMethodHashEN14dense_hash_setIS4_S7_NS4_14EqualsComparerINS6_26Il2CppGenericMethodCompareEEENSt3__29allocatorIS4_EEE8IdentityESB_SE_EppEv
VW:__ZN11UnityEngine15CloudWebService20WebRequestRestClient6IsDoneEv
Pi:_llvm_fabs_f32
T_d:_CanvasScaler_HandleScaleWithScreenSize_m80056230
yW:__ZN11UnityEngine15CloudWebService16SessionContainer16GetJsonDataBlockEjRKN4core12basic_stringIcNS2_20StringStorageDefaultIcEEEERS6_PjSA_
cpg:_SByte_System_IConvertible_ToUInt64_m2174352876_AdjustorThunk
kug:_UTF7Encoding_InternalGetBytes_m2772055844
wHh:_Dictionary_2_System_Collections_IDictionary_set_Item_m2290664072_gshared
SLg:__Z76RuntimeInvoker_Void_t1841601450_Int64_t909078037_ResourceInfoU26_t3126209420PFvvEPK10MethodInfoPvPS4_
Jbf:_SimpleCollator__cctor_m2693747668
Fxe:_Decimal_CompareTo_m2454501434_AdjustorThunk
q3:__ZN14SafeBinaryReadD2Ev
kAg:_UInt16_System_IConvertible_ToChar_m4055364664
r_b:__Z13RegisterClassI7TextureEvv
JOb:__ZN8Gradient8TransferI18StreamedBinaryReadILb1EEEEvRT_
poc:__Z45Register_UnityEngine_GUIStyle_SetFontInternalv
FYc:__ZN6il2cpp2vmL17SetupEventsLockedEP11Il2CppClassRKNS_2os12FastAutoLockE
Cld:__ZN6il2cpp6icalls8mscorlib6System4Type15MakeGenericTypeEP20Il2CppReflectionTypeP11Il2CppArray
oj:_SDL_PauseAudio
q7c:_il2cpp_class_from_type
fde:_Array_Sort_m2323017822
w8c:__ZN6il2cpp2os4File11GetStdErrorEv
Jmh:_GUILayoutUtility__cctor_m2957755459
E0:__ZN9ShaderLab19CommonPropertyNames16StaticInitializeEPv
F7e:_MissingMemberException__ctor_m3710131950
wC:__ZN7mecanim9animation18CreateAvatarOutputEPKNS0_14AvatarConstantEbbRNS_6memory9AllocatorE
Poc:__Z45GUIUtility_CUSTOM_Internal_GetKeyboardControlv
kSg:__Z91RuntimeInvoker_Void_t1841601450_RuntimeObject_Int32_t2071877448_RuntimeObject_RuntimeObjectPFvvEPK10MethodInfoPvPS4_
bqg:_CspParameters__ctor_m2546931874
lO:__ZN11AudioSource23VirtualRedirectTransferER24GenerateTypeTreeTransfer
b7b:__ZN7Texture11SetWrapModeE15TextureWrapMode
vub:__ZN14Texture2DArray23VirtualRedirectTransferER14SafeBinaryRead
D0a:__ZNK6Camera21CalculateCanDoShadowsEv
A4d:_Graphic__cctor_m1643894470
Ssd:__ZN6il2cpp2os6Thread12SetStackSizeEj
bGg:__Z99RuntimeInvoker_Void_t1841601450_Int32_t2071877448_RuntimeObject_Int32_t2071877448_Int32_t2071877448PFvvEPK10MethodInfoPvPS4_
Nbg:_X509ChainElementEnumerator_get_Current_m2232618221
p_d:_U3COnFinishSubmitU3Ec__Iterator0_Reset_m2080388334
W6b:__ZNK8Renderer16IsVisibleInSceneEv
jRi:_Behaviour_get_isActiveAndEnabled_m3838334305
jCi:_ScrollRect_set_onValueChanged_m3957749575
r$:__Z13VFormatBufferPciPKcz
CPb:__Z18Transfer_BlittableI18StreamedBinaryReadILb0EELb1EhEvRK29SerializationCommandArgumentsR31RuntimeSerializationCommandInfo
_Kj:_U3CCreateWhereIteratorU3Ec__Iterator1D_1_Dispose_m1879652802_gshared
t6d:_Image_GenerateSimpleSprite_m4275440988
EVi:_Display_get_systemHeight_m3377672024
$Ag:_UInt16_ToString_m3280699191
ora:__ZN6prcoreL27StretchGenericFloatBilinearI15TexFormatRFloatEEvPKNS_9InnerInfoE
MYh:__ZL56_PropertyInfo_t1567586598_CustomAttributesCacheGeneratorP21CustomAttributesCache
Cv:__Z24ProcessAnimationMixBeginP35AnimationPlayableEvaluationConstantP32AnimationPlayableEvaluationInputP33AnimationPlayableEvaluationOutput
Myh:_Rect_Overlaps_m4145874649
NIe:_Array_IndexOf_TisCustomAttributeNamedArgument_t94157543_m745056346_gshared
oIa:__Z14PadImageBorderR14ImageReferenceii
dcd:__ZN15dense_hashtableINSt3__24pairIK10KeyWrapperINS1_IPK10MethodInfoP11Il2CppClassEEEjEES9_17ReflectionMapHashIS8_EN14dense_hash_mapIS9_jSD_NS9_14EqualsComparerINS0_8equal_toIS8_EEEENS0_9allocatorISB_EEE9SelectKeyESI_SK_E4findERSA_
q3c:__ZN6il2cpp2vm13MetadataCache28GetFieldDefaultValueForFieldEPK9FieldInfo
U2i:_ArrayReadOnlyList_1_ReadOnlyError_m2289309720_gshared
dw:__ZN27AnimationLayerMixerPlayableD2Ev
r1e:_Path_IsPathRooted_m1347207448
Z7:__ZN15dense_hashtableINSt3__24pairIKiiEEi21InstanceIDHashFunctorN14dense_hash_mapIiiS4_NS0_8equal_toIiEE13stl_allocatorIS3_L18MemLabelIdentifier137ELi16EEE9SelectKeyES7_SA_E14squash_deletedEv
FXf:_PKCS1_Verify_v15_m478274703
CK:__ZN12AudioManager39HandlePendingAudioConfigurationCallbackEv
kk:_emscripten_glIsFramebuffer
x3b:__ZN12_GLOBAL__N_16qAtan2Eff
zCi:_ScrollRect_OnEnable_m2748112742
yse:_Convert_ToInt64_m954367741
ok:_JS_Sound_SetLoopPoints
eie:_ArrayList__ctor_m1467563650
yP:__ZN12AudioManager17ShouldSourcePauseEb
ECd:__ZN6il2cpp2vm26MetadataAllocGenericMethodEv
FMa:__ZN19ConstantBuffersGLES12RecordRenderEv
Frc:__ZN9JSONWrite8TransferI10RectOffsetEEvRT_PKc17TransferMetaFlags
WHa:__ZN4crnd12symbol_codec11decode_bitsEj
_Gc:_cf2_doFlex
XPe:_Array_Sort_TisRaycastResult_t21186376_TisRaycastResult_t21186376_m38820193_gshared
PNi:_Animator_ResetTriggerString_m1445965342
b2e:_StreamReader__ctor_m3454466728
GK:__ZN4FMOD6System12createReverbEPPNS_6ReverbE
Duj:_Vector2_get_Item_m2792130561
Xv:__ZN7mecanim19ValueArrayBlendNodeILb1EEEvRKNS_10ValueArrayERKNS_14ValueArrayMaskERS1_RS4_RNS_16ValueArrayWeightEf
xsa:__Z16MarkDependenciesR27GarbageCollectorThreadStatej
Fdg:_X509ChainElementEnumerator_Reset_m3832280427
xKi:_AnimatorControllerPlayable_SetBoolString_m4011560969
N9e:_MulticastDelegate_RemoveImpl_m2024746777
b$d:_CanvasUpdateRegistry_ParentCount_m2367607495
H9e:_MulticastDelegate_Equals_m3064081489
Ukf:_Activator_CreateInstance_m1465989661
A0:__ZNK9Transform11GetPositionEv
Nkj:_PositionAssertion_GetWidth_m2294218483
pwh:_PlayableHandle_SetPlayStateInternal_m3829195293
HXa:__ZN23SharedMeshRenderingData18UnloadVertexStreamEi
Qvj:_Vector4_set_Item_m3077071044
m8g:_AssemblyName_set_Version_m1012722441
f4b:__ZN31CanvasBatchIntermediateRenderer11AddSubBatchERK16DrawBuffersRangePK19ShaderPropertySheet
H2b:__ZN19RenderEventsContextC2Ei
MU:__Z6simd4fRKf
eMe:_Array_InternalArray__ICollection_CopyTo_TisColor32_t874517518_m379086718_gshared
JEi:_Slider_ClampValue_m2851810895
Rk:_emscripten_glEnable
hnh:_GUISkin_set_font_m4009958323
pzj:_UnityEvent_1_FindMethod_Impl_m3813546_gshared
Aqd:__ZN6il2cpp2gc16GarbageCollector29RegisterFinalizerForNewObjectEP12Il2CppObject
Cib:__ZN10TagManager23VirtualRedirectTransferER14SafeBinaryRead
LBc:_UNITY_FT_Init_Class_ft_grays_raster
v3a:__Z15InitLightMeshesv
j2h:__ZL97WaitHandle_t677569169_CustomAttributesCacheGenerator_WaitHandle_t677569169____Handle_PropertyInfoP21CustomAttributesCache
Vlf:_KeyValuePair_2_ToString_m1391611625_AdjustorThunk
En:FUNCTION_TABLE_iifiii
Ar:__ZN7mecanim9animation14HasHumanCurvesERKNS0_18ClipMuscleConstantE
Cre:_Double_Parse_m1617409931
_Qg:__Z70RuntimeInvoker_Boolean_t3825574718_Int32_t2071877448_Int16_t4041245914PFvvEPK10MethodInfoPvPS4_
mWa:__ZN22RenderingCommandBuffer36AcquireAndRegisterSharedMaterialDataEP8Material
xLb:__Z18Transfer_BlittableI19StreamedBinaryWriteILb0EELb1E8Vector2fEvRK29SerializationCommandArgumentsR31RuntimeSerializationCommandInfo
GGc:_cf2_arrstack_init
VXh:__ZL65ClassInterfaceAttribute_t910653559_CustomAttributesCacheGeneratorP21CustomAttributesCache
d$:__Z15CleanLogHandler7LogTypePKcz
CVb:__ZN9ShaderLab19SerializedSubShader8TransferI19StreamedBinaryWriteILb0EEEEvRT_
Rtg:_UTF32Encoding_GetBytes_m2290150495
fCb:__ZN6Camera17RemoveImageFilterERK11ImageFilter
CJa:__ZNSt3__218__insertion_sort_3IR25ValueParameterArraySorterPN20GpuProgramParameters14ValueParameterEEEvT0_S6_T_
Vke:_CaseInsensitiveHashCodeProvider_AreEqual_m2456617355
Hxi:_LayoutUtility_GetLayoutProperty_m4052007472
Oxj:_InvokableCall_1_Invoke_m3239892614_gshared
oXa:__ZNSt3__214__split_bufferI20ComputeShaderVariantRNS_9allocatorIS1_EEED2Ev
oxc:__ZNSt3__26vectorIN4core12basic_stringIcNS1_20StringStorageDefaultIcEEEE13stl_allocatorIS5_L18MemLabelIdentifier34ELi16EEE7reserveEj
f0f:_Context_set_WriteSequenceNumber_m3356252710
vOc:__ZN2UI26InitializeDeviceForOverlayEi
kYe:_Guid_Equals_m2389236871
V0:__Z27LogRepeatingStringWithFlagsRKN4core12basic_stringIcNS_20StringStorageDefaultIcEEEE15LogMessageFlagsi
Vof:_Enumerator_MoveNext_m3483405135_gshared
xt:__ZN17AnimationPlayable28ComputeNeedsBindingRebuildedEv
_pf:_List_1_CheckIndex_m3609163576_gshared
Tzb:__ZN15ResourceManagerD0Ev
nbg:_X509ExtensionCollection__ctor_m1324282194
MTc:__ZN18UnityConnectClient33OnPlayerSessionStateChangedStaticEPS_jyy
TTh:__ZL74CaseInsensitiveHashCodeProvider_t2307530285_CustomAttributesCacheGeneratorP21CustomAttributesCache
DX:__ZNK11UnityEngine15CloudWebService23WebRequestUploadHandler11GetProgressEv
nFa:__ZN7ApiGLES4LoadE16GfxDeviceLevelGL
Iqb:__ZN18StreamedBinaryReadILb0EE21TransferSTLStyleArrayI13dynamic_arrayI31EnlightenSystemAtlasInformationLj8EEEEvRT_17TransferMetaFlags
PHa:__ZN4crnd12crn_unpacker22decode_color_endpointsEv
Hpd:__ZN15dense_hashtableI10KeyWrapperIP18Il2CppGenericClassES3_N6il2cpp8metadata22Il2CppGenericClassHashEN14dense_hash_setIS3_S6_NS3_14EqualsComparerINS5_25Il2CppGenericClassCompareEEENSt3__29allocatorIS3_EEE8IdentityESA_SD_E15insert_noresizeERKS3_
ZNf:_ReadOnlyCollection_1_System_Collections_IList_Clear_m3006875897_gshared
O1b:__ZZL31RegisterOtherRendererPropertiesR22GenericPropertyBindingEN30Wrapper_RendererReceiveShadows13GetFloatValueEPv
lpf:_Enumerator_System_Collections_IEnumerator_get_Current_m3866069145_gshared
jha:__ZN8Material11SetPassFastEPN9ShaderLab4PassER17ShaderPassContextP6Shaderib
KTc:__ZN11UnityEngine7Connect20BasePersistentValues10SaveValuesER9JSONWrite
ryh:_Rect_get_max_m96665935_AdjustorThunk
cWd:_ExecuteEvents_get_pointerDownHandler_m1172742772
F7b:__Z14ScaleCurveTimeR17AnimationCurveTplIfEf
adg:_X509CertificateEnumerator_System_Collections_IEnumerator_MoveNext_m3708362145
zZa:__Z12SetupLODFadeR9GfxDeviceR17ShaderPassContextf
rnb:__ZNK14PlayableOutput7GetTypeEv
qJg:__Z203RuntimeInvoker_Boolean_t3825574718_RuntimeObject_Int32U26_t455636984_Int32_t2071877448_Int32_t2071877448_RuntimeObject_SByte_t454417549_Int32_t2071877448_ContractionU26_t2019974048_ContextU26_t3131521781PFvvEPK10MethodInfoPvPS4_
i3a:__ZL24CollectForwardObjectsJobP27CollectForwardObjectsHeader
lAh:_Enumerator_System_Collections_IDictionaryEnumerator_get_Entry_m345330700_gshared
Y6a:__ZNK25CameraStackRenderingState24ResolveTempToEyeTexturesEv
$4a:__Z13IsNodeVisibleRK9SceneNodeRK4AABBRK22SceneCullingParameters
rQc:__Z57RectTransformUtility_CUSTOM_INTERNAL_CALL_PixelAdjustRectP12Il2CppObjectS0_R5RectTIfE
Clg:_DelayedFixupRecord_FixupImpl_m4249966635
k$j:_emscripten_glStencilMask__wrapper
C1c:__ZN15dense_hashtableINSt3__24pairIK10KeyWrapperIN6il2cpp5utils13dynamic_arrayIPK10Il2CppTypeLj4EEEEPFvvEEESA_NS3_8metadata19Il2CppSignatureHashEN14dense_hash_mapISA_SD_SG_NSA_14EqualsComparerINSF_22Il2CppSignatureCompareEEENS0_9allocatorISE_EEE9SelectKeyESK_SM_EC2EjRKSG_RKSK_RKSO_
tdf:_BigInteger_ToString_m3837784224
Dxe:_Decimal_decimalCompare_m26009298
kwc:__ZN16NovodexAllocator8allocateEjPKcS1_i
I2a:__Z17PrepareShadowMapsRK11CullResultsRK11ActiveLightRK10MinMaxAABB
nvg:_NativeEventCalls_CreateEvent_internal_m1605829321
cni:__ZL73RuntimePlatform_t1869584967_CustomAttributesCacheGenerator_MetroPlayerX64P21CustomAttributesCache
E8i:_InternalEnumerator_1_System_Collections_IEnumerator_get_Current_m3239681450_AdjustorThunk
f3a:__ZN9ShaderLab10GrabPassesD2Ev
Xth:_MonoBehaviour_set_useGUILayout_m2666356651
Gub:__ZN14Texture2DArray13UploadTextureEv
ZDc:_tt_cmap14_done
ota:__ZN18AwakeFromLoadQueue25RegisterObjectInstanceIDsEv
xfe:_Buffer_BlockCopy_m1586717258
V_h:__ZL93X509Certificate_t283079845_CustomAttributesCacheGenerator_X509Certificate_GetName_m2354987368P21CustomAttributesCache
iw:__ZNK27AnimationLayerMixerPlayable11DerivesFromE17ScriptingClassPtr
iyc:__ZN20TextRenderingPrivate19NativeTextGenerator15InsertCharacterEiPj
ACe:_CompareInfo_GetSortKey_m3691382873
zwe:_DBNull_ToString_m3228904745
s9f:_WebHeaderCollection_AddWithoutValidate_m1479880592
WXf:_RC4_get_IV_m506011366
apj:_X509Crl__ctor_m2469408229
yAh:_Enumerator_get_CurrentValue_m3562053380_AdjustorThunk
ieg:_X509SubjectKeyIdentifierExtension_CopyFrom_m136762226
kJi:_AnimationOffsetPlayable_INTERNAL_CALL_SetPositionInternal_m3711322547
inf:_Enumerator_System_Collections_IEnumerator_Reset_m610822832_AdjustorThunk
$fc:__Z41MonoBehaviour_Set_Custom_PropUseGUILayoutP12Il2CppObjecth
czc:_UNITY_FT_Open_Face
aXj:_glGenRenderbuffers__wrapper
KRi:_Bounds_ToString_m1966597703
oef:_BigInteger_op_Division_m1581119694
HRb:__ZN16ScriptingManagerD0Ev
Pmg:_CallbackHandler_Invoke_m1498072969
Iqg:_DSACryptoServiceProvider__ctor_m701823690
zmh:_Mathf_Clamp_m2354025655
a9g:_CustomAttributeData_GetCustomAttributes_m2421330738
vod:__ZN30dense_hashtable_const_iteratorINSt3__24pairIK10KeyWrapperINS1_IPKcS4_EEEiEES6_24NamespaceAndNamePairHashN14dense_hash_mapIS6_iS9_NS6_14EqualsComparerI26NamespaceAndNamePairEqualsEENS0_9allocatorIS8_EEE9SelectKeyESD_SF_EppEv
Tyg:_Type_get_IsEnum_m313908919
Fcc:__Z44Register_UnityEngine_Component_get_transformv
tGf:_Collection_1_System_Collections_ICollection_CopyTo_m1335644572_gshared
BB:__ZN12_GLOBAL__N_120ProcessPlayableGraphERN8Animator11AnimatorJobER35AnimationPlayableEvaluationConstantR32AnimationPlayableEvaluationInputR33AnimationPlayableEvaluationOutputPFvS4_R17AnimationPlayableEPFvS4_S6_S8_EPFvS8_S4_S6_S8_fESE_MS9_FvPS3_PS5_PS7_E
zwf:_List_1_CheckMatch_m2830747427_gshared
DPa:__ZN17ArchiveFileSystem12MountArchiveEPKcS1_
Lqc:__Z18Transfer_BlittableI9JSONWriteLb1E8Vector4fEvRK29SerializationCommandArgumentsR31RuntimeSerializationCommandInfo
zn:FUNCTION_TABLE_viififiii
MMc:__ZN2UI13CanvasManagerD0Ev
gBh:_Enumerator_System_Collections_IEnumerator_Reset_m70453843_gshared
mrb:__ZThn32_NK8Renderer14GetSubsetIndexEi
XLg:__Z58RuntimeInvoker_Byte_t3683104436_IntPtr_t_Int32_t2071877448PFvvEPK10MethodInfoPvPS4_
hRe:_Dictionary_2_Do_CopyTo_TisKeyValuePair_2_t1174980068_TisRuntimeObject_m3279061992_gshared
gvj:_Vector3_get_Item_m3616014016
y0b:__ZN13ProduceHelperI15ResourceManagerLb0EE7ProduceE18MemLabelIdentifier18ObjectCreationMode
RCa:__ZN9GfxDevice15ImmediateVertexEfff
$Zb:__Z13RegisterClassI8MaterialEvv
Tpb:__ZNK16LightmapSettings22GetTypeVirtualInternalEv
GBe:_FieldAccessException__ctor_m3893881490
yAa:__ZN13GfxDeviceGLES15SetStencilStateEPK18DeviceStencilStatei
vTg:__Z107RuntimeInvoker_Void_t1841601450_Single_t2076509932_Single_t2076509932_Single_t2076509932_Single_t2076509932PFvvEPK10MethodInfoPvPS4_
jNj:_cycle
osj:_TextGenerator_Populate_m4139823822
Ld:_emscripten_glUniform1iv
eGi:_Text_get_preferredHeight_m452532789
kQd:_String_System_IConvertible_ToDouble_m3860911722
Zdb:__ZN16MemoryFileSystemD2Ev
Mcj:_InternalEnumerator_1_get_Current_m3732458101_AdjustorThunk
oWf:_ARC4Managed__ctor_m2922048522
tyc:__Z17dynamic_pptr_castIP9Texture2D7TextureET_RK4PPtrIT0_E
oPf:_ReadOnlyCollection_1_System_Collections_IList_set_Item_m1272038804_gshared
Y3i:_InternalEnumerator_1_System_Collections_IEnumerator_get_Current_m1931522460_AdjustorThunk
PMd:_SecurityPermission_IsEmpty_m1869313067
jcc:__Z37Register_UnityEngine_Camera_get_depthv
Bhf:_EncryptedPrivateKeyInfo_get_Salt_m2734354394
kRf:_ReadOnlyCollection_1_System_Collections_Generic_IListU3CTU3E_set_Item_m1918537449_gshared
vpd:__ZNK15dense_hashtableI10KeyWrapperIP18Il2CppGenericClassES3_N6il2cpp8metadata22Il2CppGenericClassHashEN14dense_hash_setIS3_S6_NS3_14EqualsComparerINS5_25Il2CppGenericClassCompareEEENSt3__29allocatorIS3_EEE8IdentityESA_SD_E10test_emptyERK30dense_hashtable_const_iteratorIS3_S3_S6_SF_SA_SD_E
fsd:__ZN6il2cpp2os5posix15PosixWaitObject4WaitEjb
Oba:__ZN15dense_hashtableINSt3__24pairIKPKcPK4RTTIEES3_N11TypeManager23ConstCharPtrHashFunctorEN14dense_hash_mapIS3_S7_SA_NS9_19ConstCharPtrEqualToE13stl_allocatorIS8_L18MemLabelIdentifier6ELi16EEE9SelectKeyESC_SF_E12resize_deltaEjj
vdb:__Z23ConvertIntegerToTypePtrItEbPvR14SafeBinaryRead
cC:__ZN7mecanim5human29HumanGetGoalOrientationOffsetENS0_4GoalE
_Db:__ZNK11MonoManager22GetTypeVirtualInternalEv
cih:_MonoMethod_MakeGenericMethod_impl_m2063853616
GOd:__Z46il2cpp_codegen_get_marshal_directive_exceptionPKc
GWb:__ZN9ShaderLab20SerializedSubProgram14AddMatrixParamEPKcii15ShaderParamTypei
ge:_glGetActiveUniformBlockName
AF:__ZN26AnimatorControllerPlayable23ValidateParameterStringE17GetSetValueResultRKN4core12basic_stringIcNS1_20StringStorageDefaultIcEEEE
sYe:_Guid_AppendByte_m2890893073
Jge:_Char_System_IConvertible_ToType_m3106771703_AdjustorThunk
lgg:_Interval_Intersects_m3480157390_AdjustorThunk
g3c:__ZN6il2cpp2vm13MetadataCache28GetGenericContainerFromIndexEi
nZi:_GCHandle_Alloc_m1063472408
yL:__ZN4FMOD7Channel20set3DConeOrientationEP11FMOD_VECTOR
qn:FUNCTION_TABLE_iiifii
Qpg:_CryptoConfig_CreateFromName_m391442950
Lrd:__ZN6il2cpp2vm12GenericClass11SetupEventsEP11Il2CppClass
fKc:_tt_delta_interpolate
SDc:_tt_cmap12_get_info
Hne:_SortedList__ctor_m3698381356
gNi:_AnimatorControllerPlayable_PlayInFixedTimeInternal_m3876843019
ond:__ZN6il2cpp2vm15ReboxIReferenceEP14Il2CppIUnknownP11Il2CppClass
E5e:_StreamWriter_LowLevelWrite_m4205372900
sXc:__ZN6il2cpp6icalls8mscorlib6System7Decimal14decimalCompareEP19il2cpp_decimal_reprS5_
Rxd:__ZThn4_N6il2cpp2vm13CachedCCWBaseINS0_13ManagedObjectEE7ReleaseEv
mle:_CollectionBase_System_Collections_IList_get_Item_m2370387510
MPe:_Array_Sort_TisCustomAttributeNamedArgument_t94157543_m3436077809_gshared
oYj:_glCopyTexImage2D__wrapper
Ppj:_ResourceRequest__ctor_m3340010930
Y9d:_LayoutElement__ctor_m789941073
bSi:_Camera_FireOnPreCull_m1679634170
fVe:_NumberFormatter_CountTrailingZeros_m2398864634
Ooa:__Z18ClearByDrawingQuad13GfxClearFlagsRK10ColorRGBAffjR17ShaderPassContext
_$i:_DynamicPropertyCollection_FindProperty_m1233265924
Nqa:__ZN6prcoreL17RemapGenericFloatI14TexFormatRHalf15TexFormatRFloatEEvPKNS_9InnerInfoE
nZa:__Z16ShouldUseShadowsb
jaa:__ZN15DirectorManager21RebuildStageCallbacksEv
Ora:__ZN19RuntimeSceneManager9LoadSceneERKN4core12basic_stringIcNS0_20StringStorageDefaultIcEEEES6_S6_RK9UnityGUIDiNS_11LoadingModeE
FIa:__ZN7ApiGLES10DrawArraysE16GfxPrimitiveTypejjj
qWi:_Event_PopEvent_m1952528237
NKi:_AnimatorControllerPlayable_SetIntegerString_m3665225671
lJ:__ZN10SampleClip13LoadBaseSoundEv
Oqd:__ZN15dense_hashtableINSt3__24pairIK10KeyWrapperIP12Il2CppObjectEN6il2cpp2gc9CachedCCWEEES5_NS7_5utils11PointerHashIS3_EEN14dense_hash_mapIS5_S9_SD_NS5_14EqualsComparerINS0_8equal_toIS4_EEEENS0_9allocatorISA_EEE9SelectKeyESI_SK_E15insert_noresizeERKSA_
DJf:_Collection_1_Contains_m643401393_gshared
Noa:__ZN22DeviceMVPMatricesStateC2ER9GfxDevice
cQd:_String__ctor_m372528291
$m:FUNCTION_TABLE_iifii
$F:__Z64AnimationOffsetPlayable_CUSTOM_INTERNAL_CALL_SetRotationInternalR9HPlayableRK11Quaternionf
Ysb:__ZNSt3__26vectorI13dynamic_arrayI8Vector2fLj4EENS_9allocatorIS3_EEE6assignINS_11__wrap_iterIPS3_EEEENS_9enable_ifIXaasr21__is_forward_iteratorIT_EE5valuesr16is_constructibleIS3_NS_15iterator_traitsISC_E9referenceEEE5valueEvE4typeESC_SC_
_gd:__ZN6il2cpp2vm10Reflection12HasAttributeEP9FieldInfoP11Il2CppClass
bKi:_AnimatorControllerPlayable_GetFloat_m1229536053_AdjustorThunk
Zsa:__ZNSt3__26__treeIiNS_4lessIiEE13stl_allocatorIiL18MemLabelIdentifier1ELi16EEE7destroyEPNS_11__tree_nodeIiPvEE
pc:invoke_viiifi
C8e:_LongComparer_Compare_m3981323622
hNh:_EqualityComparer_1__cctor_m3033994022_gshared
gya:__ZNK11AssetBundle14GetPreloadDataEiR13dynamic_arrayIiLj4EE
Jif:_EncryptedData_get_EncryptedContent_m2732115576
qf:_JS_Sound_SetPosition
oij:_Assertion_set_FalseExpression_m1781616372
eeg:_X509SubjectKeyIdentifierExtension_FromHexChars_m2515150420
Nha:__ZN19RenderBufferManager13GetTempBufferEii17DepthBufferFormat19RenderTextureFormatj22RenderTextureReadWrite14VRTextureUsagei23RenderTextureMemoryless
S2c:__ZL13GetSharedInstPK17Il2CppGenericInst
FSh:__ZL51IReflect_t3412036974_CustomAttributesCacheGeneratorP21CustomAttributesCache
IYd:_StandaloneInputModule_SendSubmitEventToSelectedObject_m3421155293
xXi:_RenderPipelineManager_CleanupRenderPipeline_m2242901458
gUi:_Component_GetComponentsInChildren_m908027537
ARc:__ZN22BaseUnityConnectClient17SaveSessionValuesEv
N1i:_CallContextRemotingData_Clone_m2226242476
S2:__Z63ThreadAndSerializationSafeCheckSetMonoBehaviourBeingTransferredP13MonoBehaviour
l3a:__Z24SetupActiveLightsContextR21ActiveLightingContextRK12ActiveLightsRK11CullResultsP14ShadowMapCacheRK10MinMaxAABB
Phc:__Z38Sprite_CUSTOM_INTERNAL_get_textureRectP12Il2CppObjectP5RectTIfE
vwe:_DBNull_System_IConvertible_ToUInt32_m2681284284
Mfd:__ZNK15dense_hashtableINSt3__24pairIK10KeyWrapperIPK22Il2CppGenericParameterEPK24MonoGenericParameterInfoEES6_N6il2cpp5utils11PointerHashIS4_EEN14dense_hash_mapIS6_SA_SF_NS6_14EqualsComparerINS0_8equal_toIS5_EEEENS0_9allocatorISB_EEE9SelectKeyESK_SM_E3endEv
b5b:__ZN9TextAsset7SetTextERKN4core12basic_stringIcNS0_20StringStorageDefaultIcEEEE
Tjb:__ZN6Camera8TransferI24GenerateTypeTreeTransferEEvRT_
_Nh:_EqualityComparer_1__cctor_m416314417_gshared
Ia:invoke_iiiiiiif
Ea:invoke_iiiiiiii
jth:_Mesh_GetUVChannel_m364477864
xcg:_X509ChainElementCollection_Contains_m3599995067
I6a:__ZN8Renderer17PendingAddToSceneEv
c0j:b123
b0j:b122
xLi:_AnimatorControllerPlayable_GetLayerName_m1429074517_AdjustorThunk
d0j:b124
g0j:b127
f0j:b126
i0j:b129
dhc:__Z52Register_UnityEngine_RectTransform_INTERNAL_get_rectv
M1:__Z21PostprocessStacktracePKcRN4core12basic_stringIcNS1_20StringStorageDefaultIcEEEE
qYh:__ZL70TypeLibImportClassAttribute_t2390314680_CustomAttributesCacheGeneratorP21CustomAttributesCache
Kzb:__ZN18StreamedBinaryReadILb0EE21TransferSTLStyleArrayI13dynamic_arrayI16SplashScreenLogoLj4EEEEvRT_17TransferMetaFlags
pFe:_Array_InternalArray__ICollection_Remove_TisX509ChainStatus_t4278378721_m4127982424_gshared
tcc:__Z47Register_UnityEngine_Camera_get_allCamerasCountv
iYc:___clang_call_terminate
DRc:__ZN22BaseUnityConnectClient20StartEventDispatcherEv
J6b:__ZNSt3__26vectorIj13stl_allocatorIjL18MemLabelIdentifier1ELi16EEE6assignIPKtEENS_9enable_ifIXaasr21__is_forward_iteratorIT_EE5valuesr16is_constructibleIjNS_15iterator_traitsIS9_E9referenceEEE5valueEvE4typeES9_S9_
TA:__ZN7mecanim9animation16EvaluateAvatarIKEPKNS0_14AvatarConstantEPKNS0_11AvatarInputEPNS0_12AvatarOutputEPNS0_12AvatarMemoryEPNS0_15AvatarWorkspaceEb
gJa:__ZL25ProgramUniformMatrix4x3fvPK7ApiGLESjiihPKv
Uvh:_PlayableGraph_INTERNAL_CALL_CreateScriptOutputInternal_m348659249
VUa:__ZN12InputManager13InputEndFrameEv
mne:_SyncHashtable__ctor_m2029869827
Yid:__ZN6il2cpp2vm6Thread5SetupEP12Il2CppThread
zSf:_ReadOnlyCollection_1_System_Collections_IList_Remove_m2200089035_gshared
SEf:_Collection_1_CheckWritable_m2756357359_gshared
oOj:___munmap
r7d:_InputField_get_characterLimit_m2386380888
Zri:__ZL68ColorBlock_t2652774230_CustomAttributesCacheGenerator_m_PressedColorP21CustomAttributesCache
kse:_Convert_ToInt64_m1722087499
hg:_localtime_r
bwh:_PlayableHandle_GetInputCount_m3249715311
wQ:__ZN4FMOD5Sound11getDefaultsEPfS1_S1_Pi
cYh:__ZL65InterfaceTypeAttribute_t4113096249_CustomAttributesCacheGeneratorP21CustomAttributesCache
jg:_strftime
Xha:__ZN7Texture33SetStoredColorSpaceNoDirtyNoApplyE17TextureColorSpace
f6:__ZN12FileAccessorD2Ev
jvb:__ZN14VertexDataInfoC2Ev
BBe:_Exception_GetObjectData_m2653827630
nvj:_Vector3_Equals_m2692262876_AdjustorThunk
n7i:_InternalEnumerator_1_get_Current_m2415979394_gshared
gOb:__ZL17Transfer_GUIStyleI18StreamedBinaryReadILb1EELb1EEvRK29SerializationCommandArgumentsR31RuntimeSerializationCommandInfo
VBi:_ScrollRect_SetDirtyCaching_m1491302821
fwh:_PlayableHandle_SetInputCount_m2001045454
J5c:__ZN6il2cpp6icalls8mscorlib6SystemL9IsPrivateEPK12PropertyInfo
gPg:__Z72RuntimeInvoker_DateTime_t693205669_DateTime_t693205669_Int32_t2071877448PFvvEPK10MethodInfoPvPS4_
c9g:_CustomAttributeData_GetCustomAttributes_m3258419955
Q0:__ZN9shadertag10InitializeEv
BZa:__ZN13BatchRenderer20RenderSingleWithPassER17ShaderPassContextPK18SharedMaterialDataP6ShaderPN9ShaderLab4PassEiPKNS7_10GrabPassesEjib15BatchBreakCause
wsb:__ZN15QualitySettings14QualitySetting8TransferI24GenerateTypeTreeTransferEEvRT_
NSd:_DecoderReplacementFallback__ctor_m2344783488
b7g:_OutOfMemoryException__ctor_m239206850
M3d:_GraphicRegistry_UnregisterGraphicForCanvas_m820096873
jLc:__Z28Font_Get_Custom_PropMaterialP12Il2CppObject
BBd:__ZN6il2cpp6icalls8mscorlib6System9Threading16NativeEventCalls19ResetEvent_internalE12Il2CppIntPtr
iSg:__Z88RuntimeInvoker_RuntimeObject_RuntimeObject_RuntimeObject_RuntimeObject_Int32_t2071877448PFvvEPK10MethodInfoPvPS4_
SGf:_Collection_1_Remove_m4136193368_gshared
wVd:_EventTrigger_OnPointerUp_m2791622548
cEi:_Shadow_set_useGraphicAlpha_m141905402
Y5b:__ZN22BlockMemoryCacheWriter14LockCacheBlockEjPPhS1_
guc:__Z22TransferField_NonArrayI8JSONRead27Converter_SimpleNativeClassI8GUIStyleEEvRK23StaticTransferFieldInfoR31RuntimeSerializationCommandInfoRT0_
Pg:_llvm_eh_typeid_for
O3b:__Z13RegisterClassI10GameObjectEvv
hUh:__ZL53HashValues_t2390200547_CustomAttributesCacheGeneratorP21CustomAttributesCache
hbg:_X509BasicConstraintsExtension_get_PathLengthConstraint_m3004531343
cLi:_AnimatorControllerPlayable_INTERNAL_CALL_ResetTriggerString_m2112584758
Fy:__ZNK23AnimationPlayableOutput7GetTypeEv
qyh:_Rect_get_max_m96665935
L7e:_MissingMemberException__ctor_m4277447068
Qqf:_List_1_Find_m1881447651_gshared
tjh:_StrongNameKeyPair_System_Runtime_Serialization_ISerializable_GetObjectData_m1693082120
bQb:__Z18Transfer_BlittableI18StreamedBinaryReadILb0EELb1E8Vector4fEvRK29SerializationCommandArgumentsR31RuntimeSerializationCommandInfo
Gtd:__ZN6il2cpp2vm6Method8GetParamEPK10MethodInfoj
n$e:_Int64_CompareTo_m1953686218
rmd:__ZN6il2cpp6icalls8mscorlib6System2IO6MonoIO4ReadE12Il2CppIntPtrP11Il2CppArrayiiPi
M_j:_glBindVertexArray__wrapper
Eqg:_DSA_Create_m3450041777
Gma:__ZN8Material8TransferI14SafeBinaryReadEEvRT_
pVi:_Debug_LogWarningFormat_m79553173
hob:__ZN12CubemapArray17UploadToGfxDeviceEv
vCi:_ScrollRect_AdjustBounds_m1033723448
_qa:__ZN6prcoreL17RemapGenericFloatI15TexFormatRGHalf17TexFormatRGBAHalfEEvPKNS_9InnerInfoE
hof:_Enumerator_System_Collections_IEnumerator_Reset_m2200349770_gshared
Y6g:_OrdinalComparer__ctor_m2952942058
Vbg:_X509Chain_CheckRevocationOnChain_m2441901351
y4c:__ZN6il2cpp2vm19SocketPollingThread9WritePipeEic
wzg:_Type_GetMethod_m3650909507
HJ:__ZN11AudioSource4StopEb
RMj:_frexp
aHb:__ZN14SafeBinaryRead21TransferSTLStyleArrayI13dynamic_arrayI10Matrix4x4fLj4EEEEvRT_17TransferMetaFlags
EKf:_Collection_1_CheckWritable_m732350052_gshared
Kfe:_Byte_System_IConvertible_ToDecimal_m1036493607
Rga:__Z25GetSplashScreenBackgroundRK5RectTIfE
Nba:__ZN14dense_hash_mapIPKcPK4RTTIN11TypeManager23ConstCharPtrHashFunctorENS5_19ConstCharPtrEqualToE13stl_allocatorINSt3__24pairIKS1_S4_EEL18MemLabelIdentifier6ELi16EEEixERSB_
IUc:__ZN13RuntimeStaticI19UnityConnectServiceLb0EE16StaticInitializeEPv
yej:_DefaultComparer_Compare_m1247109616_gshared
GXi:_ResourceManager__ctor_m498829021
nNa:__ZN18GlslGpuProgramGLESD2Ev
Pab:__ZN13RenderTexture14SetVolumeDepthEi
f1g:__Z88RuntimeInvoker_Int32_t2071877448_UIVertex_t1204258818_UIVertex_t1204258818_RuntimeObjectPFvvEPK10MethodInfoPvPS4_
Qmg:_SerializationCallbacks__ctor_m722356782
Muc:__ZN10Matrix4x4f8TransferI8JSONReadEEvRT_
G2:__ZN17PersistentManager18ReadObjectThreadedEi
CEa:__ZN25TransformFeedbackSkinning31CleanupTransformFeedbackShadersEv
dyd:__ZN6il2cpp6icalls8mscorlib6System7Runtime16CompilerServices14RuntimeHelpers15InitializeArrayEP11Il2CppArray12Il2CppIntPtr
EYa:__Z22scripting_object_unbox18ScriptingObjectPtr
kyc:__ZNK20TextRenderingPrivate8FontImpl19GetCharacterAdvanceEjijfPj
v7f:_DefaultUriParser__ctor_m4218024811
Cah:_DerivedType_GetField_m3960169619
Ywe:_Decimal_System_IConvertible_ToInt16_m3159038792_AdjustorThunk
Btb:__ZN10VertexData8TransferI18StreamedBinaryReadILb0EEEEvRT_
mjf:_PKCS12_GetExistingParameters_m2413397265
eLj:_Nullable_1_get_Value_m1743067844_gshared
$ab:__ZN14PreloadManager16UpdatePreloadingEv
QXj:_emscripten_glGenVertexArrays__wrapper
egb:__ZNK21UnityDefaultAllocatorI17LowLevelAllocatorE8ContainsEPKv
Yh:_emscripten_get_main_loop_timing
J1e:_DirectoryInfo__ctor_m3750996792
$Zd:_BaseMeshEffect_ModifyMesh_m2134816219
vsb:__ZN24GenerateTypeTreeTransfer21TransferSTLStyleArrayINSt3__26vectorIN15QualitySettings14QualitySettingENS1_9allocatorIS4_EEEEEEvRT_17TransferMetaFlags
VSe:_Array_InternalArray__get_Item_TisAnimatorClipInfo_t3905751349_m2163447872_gshared
cyb:__ZNSt3__26vectorI9InputAxisNS_9allocatorIS1_EEE6resizeEj
Nxd:__ZN6il2cpp2vm13ManagedObject7GetIidsEPjPP10Il2CppGuid
IZa:__ZN13BatchRendererC2ER15RenderLoopStatsRK15RenderNodeQueuebbb
WMd:_SecurityElement_IsValidAttributeValue_m483287146
MXb:__ZNK2UI13RectTransform22GetTypeVirtualInternalEv
op:getTempRet0
B6d:_Image_AddQuad_m1603575622
RXf:_PrivateKeyInfo_RemoveLeadingZero_m3396807048
Tjd:__ZN6il2cpp6icalls8mscorlib6System9ThreadingL21lookup_cached_cultureEP12Il2CppThreadi
i4a:__ZN18DeferredRenderLoopD2Ev
qja:__ZNK16TypeTreeIterator4NameEv
F5:__ZN15FileSystemEntry3SetEPKc
rHd:_MACTripleDES__ctor_m884945242
fbc:__Z52Register_UnityEngine_Application_set_targetFrameRatev
hL:__ZN20SoundChannelInstance15ParameterBuffer5ApplyEPN4FMOD7ChannelE
hyc:__ZN20TextRenderingPrivate19NativeTextGenerator9InsertTabEv
Plh:_Rect_set_y_m4294916608
QRc:__ZN11UnityEngine15PlatformWrapper24GetRuntimePlatformStringEv
Hi:_glIsEnabled
MCb:__Z25scripting_class_get_image17ScriptingClassPtr
Li:_emscripten_glDrawElementsInstanced
wx:__ZN26AnimatorControllerPlayable27SetupStateMachineBehavioursEv
rWf:_ARC4Managed_Dispose_m4102232694
LWf:_HMAC_Initialize_m3052649104
cxa:__ZN18JobBatchDispatcherD2Ev
HXb:__ZN9Transform17MainThreadCleanupEv
nAd:_GC_clear_hdr_marks
KVj:_glScissor__wrapper
I$j:_emscripten_glCreateShader__wrapper
iGc:_cff_fd_select_get
JXh:__ZL73CompilationRelaxationsAttribute_t238494011_CustomAttributesCacheGeneratorP21CustomAttributesCache
nbf:_MSCompatUnicodeTable_GetTailoringInfo_m2792223347
K6f:_NameObjectCollectionBase_get_Keys_m446053925
Vi:_emscripten_glGetShaderiv
jM:__ZN4FMOD6System10getVersionEPj
i2e:_FileLoadException_GetObjectData_m2047020314
EJe:_Array_InternalArray__IndexOf_TisSByte_t454417549_m1427585061_gshared
SLc:__ZN2UI6Canvas23VirtualRedirectTransferER24GenerateTypeTreeTransfer
spe:_Decimal_u64_m3991988111
LLj:_Predicate_1_BeginInvoke_m2959352225_gshared
lKh:_Dictionary_2_CopyToCheck_m2147716750_gshared
inj:_X509Certificate_Parse_m1764345628
Rwc:__ZN13TextRendering4Font13AwakeFromLoadE17AwakeFromLoadMode
yBa:__ZN9GfxDevice21ReleaseSharedMeshDataEP14SharedMeshData
Tyb:__ZNSt3__27__sort5IRNS_6__lessINS_4pairIPKN5Unity4TypeE7Hash128EES8_EEPS8_EEjT0_SC_SC_SC_SC_T_
Mne:_Enumerator_Reset_m466659019
K_g:__Z70RuntimeInvoker_Single_t2076509932_Int32_t2071877448_Single_t2076509932PFvvEPK10MethodInfoPvPS4_
SAd:_maybe_finalize
bk:_emscripten_glGetProgramiv
X1i:_ConstructionCall_GetObjectData_m3974358557
Xgc:__Z43RectTransform_CUSTOM_INTERNAL_get_anchorMaxP12Il2CppObjectP13Vector2fIcall
SGg:__Z50RuntimeInvoker_Void_t1841601450_Single_t2076509932PFvvEPK10MethodInfoPvPS4_
cwe:_DateTimeOffset_get_DateTime_m229084964_AdjustorThunk
tma:__ZN8Material28UpdateHashesOnPropertyChangeEN9ShaderLab16FastPropertyNameE
Hhc:__Z53Register_UnityEngine_SortingLayer_GetLayerValueFromIDv
d1e:_DirectoryInfo_get_Parent_m1198766078
Ske:_CaseInsensitiveComparer_Compare_m1192858479
aFb:__Z18Transfer_BlittableI14SafeBinaryReadLb1E8Vector4fEvRK29SerializationCommandArgumentsR31RuntimeSerializationCommandInfo
Wae:_LayoutRebuilder_Clear_m2390054824
HDa:__ZN13GfxDeviceGLES20SetComputeBufferDataE15ComputeBufferIDPKvjj
O8g:_Default_SelectMethod_m622251293
pO:__ZN11AudioSource12AddToManagerEv
ss:__ZN8Animator23VirtualRedirectTransferER19StreamedBinaryWriteILb0EE
az:__ZN11UnityEngine9Animation32CreateAnimatorGenericBindingsOptERKNS0_20AnimationSetBindingsER9TransformPKN7mecanim9animation14AvatarConstantEPKNS0_21AvatarBindingConstantEbRNS6_6memory9AllocatorER8Animator
Und:__ZN6il2cpp2vm5Image13ClassFromNameEPK11Il2CppImagePKcS6_
IRj:dynCall_vdddddd
PUb:__ZN24GenerateTypeTreeTransfer21TransferSTLStyleArrayINSt3__26vectorIN9ShaderLab14SerializedPassENS1_9allocatorIS4_EEEEEEvRT_17TransferMetaFlags
A1:__ZL32MarkLevelGameManagerDependenciesR27GarbageCollectorThreadState
ODa:__ZNK13GfxDeviceGLES26HasActiveRandomWriteTargetEv
wWc:__ZN20UnityWebRequestProtoI19TransportJavaScript16AtomicRefCounter14RedirectHelper14ResponseHelper15DownloadHandler13UploadHandler12HeaderHelper14AsyncOperationE5BeginEv
BWj:_glGetActiveUniformsiv__wrapper
Ehc:__Z43Register_UnityEngine_Material_EnableKeywordv
K3:__ZN13MonoBehaviour19SetupScriptingCacheE17ScriptingClassPtrP10MonoScript
vr:__Z20AnimationEventToMonoRK14AnimationEventR18MonoAnimationEvent
ICh:_ShimEnumerator_get_Current_m3610131784_gshared
_ni:__ZL74UnityEventBase_t828812576_CustomAttributesCacheGenerator_m_PersistentCallsP21CustomAttributesCache
Gaa:__ZZN15DirectorManager15InitializeClassEvEN52PreLateUpdateDirectorUpdateAnimationBeginRegistrator7ForwardEv
Vld:__ZN6il2cpp2vm13LivenessState18ShouldProcessValueEP12Il2CppObjectP11Il2CppClass
Jbh:_EnumBuilder_GetElementType_m1228393631
dwh:_PlayableHandle_GetInputCountInternal_m2692879798
lUb:__ZNSt3__26vectorIN9ShaderLab14SerializedPassENS_9allocatorIS2_EEE8__appendEj
DTb:__ZNSt3__26vectorIN9ShaderLab20SerializedSubProgram13BufferBindingENS_9allocatorIS3_EEEC2INS_11__wrap_iterIPS3_EEEET_SB_RKS5_PNS_9enable_ifIXaasr21__is_forward_iteratorISB_EE5valuesr16is_constructibleIS3_NS_15iterator_traitsISB_E9referenceEEE5valueEvE4typeE
T_g:__Z133RuntimeInvoker_RuntimeObject_Vector2_t2243707579_Vector2_t2243707579_Single_t2076509932_Int32_t2071877448_RuntimeObject_RuntimeObjectPFvvEPK10MethodInfoPvPS4_
Bpb:__ZN9Texture2D23VirtualRedirectTransferER18StreamedBinaryReadILb0EE
Fze:_Double_System_IConvertible_ToUInt16_m286326038_AdjustorThunk
_kg:_TypeInfo__ctor_m1475908211
Rib:__ZNSt3__26__treeINS_12__value_typeIN4core12basic_stringIcNS2_20StringStorageDefaultIcEEEEjEENS_19__map_value_compareIS6_S7_NS_4lessIS6_EELb1EEE13stl_allocatorIS7_L18MemLabelIdentifier6ELi16EEE7destroyEPNS_11__tree_nodeIS7_PvEE
q4:__ZN16ScriptingManager27NativeTypeForScriptingClassE17ScriptingClassPtr
Wbg:_X509Chain_WrapUp_m1072032285
Eoj:_X509CertificateEnumerator_System_Collections_IEnumerator_MoveNext_m1448966539
kDc:_get_sfnt_table
EFf:_Collection_1_IsSynchronized_m3261594010_gshared
Fph:_GUIStyle_GetNumCharactersThatFitWithinWidth_m3760066083
KWd:_PointerEventData_set_pressPosition_m2094137883
mqg:_DES_get_Key_m2584608215
w5a:__ZL22ScheduleSceneNodesJobsP25ScheduleSceneNodesJobDataj
Jk:_emscripten_set_canvas_size
jme:_Hashtable__ctor_m741952536
VTb:__ZNSt3__26vectorIN9ShaderLab20SerializedSubProgramENS_9allocatorIS2_EEE8__appendEj
o_:__ZN20DynamicHeapAllocatorI17LowLevelAllocatorE8AllocateEji
i_a:__ZN20DynamicPropertySheet15SetVectorQueuedERKN9ShaderLab16FastPropertyNameERK8Vector4fN19ShaderPropertySheet8SetFlagsE
hQf:_ReadOnlyCollection_1_System_Collections_IEnumerable_GetEnumerator_m4248982967_gshared
bA:__ZN7mecanim9animation22EvaluateAvatarRetargetEPKNS0_14AvatarConstantEPKNS0_11AvatarInputEPNS0_12AvatarOutputEPNS0_12AvatarMemoryEPNS0_15AvatarWorkspaceEb
umb:__ZN14RenderSettings23VirtualRedirectTransferER19StreamedBinaryWriteILb0EE
_qc:__ZL26Transfer_SimpleNativeClassI9JSONWrite10RectOffsetLb0EEvRK29SerializationCommandArgumentsR31RuntimeSerializationCommandInfo
Ozd:_GC_push_conditional
$Ga:__ZN17GenericDynamicVBO10AllocateVBEjR21DynamicVBOChunkHandle
fsf:_List_1_get_Item_m1547593893_gshared
u1e:_Path_GetPathRoot_m1269357080
tpd:__ZN30dense_hashtable_const_iteratorI10KeyWrapperIP18Il2CppGenericClassES3_N6il2cpp8metadata22Il2CppGenericClassHashEN14dense_hash_setIS3_S6_NS3_14EqualsComparerINS5_25Il2CppGenericClassCompareEEENSt3__29allocatorIS3_EEE8IdentityESA_SD_EppEv
$Ud:_EventSystem_SetSelectedGameObject_m2211816110
gl:_glMapBufferRange
tpb:__ZN9Texture2D8TransferI18StreamedBinaryReadILb0EEEEvRT_
yec:__Z31Input_CUSTOM_GetMouseButtonDowni
zgc:__Z75Register_UnityEngine_Playables_PlayableHandle_INTERNAL_CALL_IsValidInternalv
D4b:__ZN13PlayableGraph4PlayEv
cYa:__ZNK9Transform16GetLocalPositionEv
lya:__ZN13LoadOperation19IntegrateTimeSlicedEi
H2i:_ArrayReadOnlyList_1_get_Item_m176001975_gshared
Tjf:_X501__cctor_m3795360380
ZDa:__ZN13GfxDeviceGLES22DispatchComputeProgramE12ObjectHandleI18ComputeProgram_TagPvE15ComputeBufferIDj
bqh:_GUIStyle_set_contentOffset_m2138084868
IFf:_Collection_1_System_Collections_ICollection_CopyTo_m4193844941_gshared
dse:_Convert_ToInt32_m2297793940
twa:__Z17TransformAABBSlowRK4AABBRK10Matrix4x4fRS_
oqb:__ZN15SerializeTraitsI13dynamic_arrayI7Hash128Lj8EEE19ResizeSTLStyleArrayERS2_i18MemLabelIdentifier
FSb:__ZN9ShaderLab21SerializedShaderState8TransferI14SafeBinaryReadEEvRT_
vKj:_Terminal_NotifyCommandHandlers_m2901839470
YJd:_RSAPKCS1SignatureFormatter_SetKey_m2365816458
bvg:_CompressedStack__ctor_m276924800
oWd:_ExecuteEvents_get_cancelHandler_m1964324668
Bna:__ZN15SerializeTraitsINSt3__24pairIN4core12basic_stringIcNS2_20StringStorageDefaultIcEEEES6_EEE8TransferI24GenerateTypeTreeTransferEEvRS7_RT_
Esh:_Matrix4x4__ctor_m2771358574_AdjustorThunk
kYj:b81
jYj:b80
eLa:__ZN7ApiGLES19CreateSparseTextureEjj14GraphicsFormatiiiiRiS1_S1_
W4:__ZN18ResourceImageGroup7CleanupEv
uYj:b85
tYj:b84
CYj:b87
BYj:b86
y2b:__ZN13ProduceHelperI4MeshLb0EE7ProduceE18MemLabelIdentifier18ObjectCreationMode
PXf:_PrivateKeyInfo_Decode_m1053025782
Wif:_PKCS12_Decrypt_m2457743414
gnb:__ZN8Playable19SetOutputConnectionEPS_i
p_c:__ZN15dense_hashtableINSt3__24pairIK10KeyWrapperIPK11Il2CppClassEPKcEES6_N6il2cpp5utils11PointerHashIS3_EEN14dense_hash_mapIS6_S9_SE_NS6_14EqualsComparerINS0_8equal_toIS5_EEEENS0_9allocatorISA_EEE9SelectKeyESJ_SL_EC2ERKSO_j
Vl:_glDeleteShader
wBe:_Exception_GetType_m3898489832
Vqa:__ZN6prcoreL17RemapGenericFloatI15TexFormatRGHalf16TexFormatRGFloatEEvPKNS_9InnerInfoE
JCf:_Stack_1_Peek_m1548778538_gshared
$Di:_Shadow_set_effectColor_m3110056844
bac:__Z27scripting_add_internal_callPKcPKv
fNe:_Array_InternalArray__Insert_TisUriScheme_t1876590943_m2728325409_gshared
sgd:__ZN13Il2CppHashMapINSt3__24pairIPK9EventInfoP11Il2CppClassEEj17ReflectionMapHashIS7_ENS0_8equal_toIS7_EENS0_9allocatorINS1_IK10KeyWrapperIS7_EjEEEEEC2EjRKS9_RKSB_
Zpd:__GLOBAL__sub_I_GarbageCollector_cpp
Roj:_X509Store_CheckStore_m1027496478
Js:__ZN26AnimatorControllerPlayable18SetLayerAutoWeightEv
Nb:invoke_vffff
vPj:__ZNSt3__212basic_stringIcNS_11char_traitsIcEENS_9allocatorIcEEEC2ERKS5_jjRKS4_
tRd:_String_Contains_m4017059963
cej:_DefaultComparer_Compare_m1606207039_gshared
dOc:__ZN2UI14CanvasRenderer12SyncMaterialENS0_8SyncFlagE
DDd:__ZN6il2cpp2vm9Parameter30GetDefaultParameterValueObjectEPK10MethodInfoPK13ParameterInfoPb
sZb:__ZN15dense_hashtableINSt3__24pairIKN4core12basic_stringIcNS2_20StringStorageDefaultIcEEEE10vector_setI4PPtrI11SpriteAtlasENS0_4lessISB_EE13stl_allocatorISB_L18MemLabelIdentifier79ELi16EEEEES6_20StringHash32FunctionIS6_EN14dense_hash_mapIS6_SH_SK_NS0_8equal_toIS6_EESE_ISI_LSF_79ELi16EEE9SelectKeyESN_SO_E12maybe_shrinkEv
VNe:_Array_InternalArray__set_Item_TisLabelData_t3712112744_m2253365137_gshared
Eth:_MonoBehaviour_Invoke_m666563676
L5e:_StringReader__ctor_m643998729
q8f:_IPv6Address_TryParse_m2220524278
bDc:_UNITY_tt_face_done_kern
R$i:_Context_get_DefaultContext_m2211922324
Dnc:__Z59GUIStyle_CUSTOM_Internal_GetNumCharactersThatFitWithinWidth13Il2Cpp_IntPtrP12Il2CppStringf
Mvb:__ZN12BoneWeights48TransferI24GenerateTypeTreeTransferEEvRT_
eYf:_RSAManaged_GetPaddedValue_m2972141669
iG:__Z62AnimationPlayableOutput_CUSTOM_INTERNAL_CALL_InternalSetTargetR15HPlayableOutputP12Il2CppObject
cga:__Z19scripting_gc_enablev
cWc:__ZN20UnityWebRequestProtoI19TransportJavaScript16AtomicRefCounter14RedirectHelper14ResponseHelper15DownloadHandler13UploadHandler12HeaderHelper14AsyncOperationE9DoRequestEv
NTa:__ZZ23InitPlayerLoopCallbacksvEN41InitializationPlayerUpdateTimeRegistrator7ForwardEv
hjj:_AnchorInfo__ctor_m617409099
ZPc:__Z55Register_UnityEngine_CanvasRenderer_DisableRectClippingv
pgg:_Interval_CompareTo_m2909556284_AdjustorThunk
fvb:__ZN14SafeBinaryRead21TransferSTLStyleArrayI13dynamic_arrayI11ColorRGBA32Lj4EEEEvRT_17TransferMetaFlags
qPi:_AudioClip_get_length_m3881628918
gfg:_Interpreter_GetLastDefined_m2450713313
yij:_Parser_ParseAssertionType_m3316669790
pWb:__ZN9ShaderLab7Program27CreateFromSerializedProgramERKNS_17SerializedProgramE10ShaderTypeiP16PropertyNamesSetPK6Shader
CDi:_Selectable_get_isPointerDown_m774209881
BXb:__ZNSt3__27__sort4IRNS_6__lessIN4core12basic_stringIcNS2_20StringStorageDefaultIcEEEES6_EEPS6_EEjT0_SA_SA_SA_T_
qSj:dynCall_viiiifii
Wed:__ZN6il2cpp2gc19AppendOnlyGCHashMapINSt3__24pairIPK11Il2CppImageP11Il2CppClassEEP22Il2CppReflectionModule17ReflectionMapHashIS9_ENS2_8equal_toIS9_EEEC2Ev
D2:__Z20GetPersistentManagerv
sKc:_UNITY_TT_Set_Var_Design
uda:__ZN21SystemInfoStringCache16StaticInitializeEPv
BZf:_TlsStream__ctor_m4117943603
rFi:_Text_FontTextureChanged_m4236993972
xud:__ZN6il2cpp2gc16GarbageCollector23MakeDescriptorForObjectEPji
hjh:_ParameterModifier_t1820634920_marshal_pinvoke
OBb:__ZNK13MonoBehaviour7GetNameEv
fkd:__ZN6il2cpp6icalls8mscorlib6System10Reflection8Assembly13get_code_baseEP24Il2CppReflectionAssemblyb
Fpd:__ZN15dense_hashtableI10KeyWrapperIP18Il2CppGenericClassES3_N6il2cpp8metadata22Il2CppGenericClassHashEN14dense_hash_setIS3_S6_NS3_14EqualsComparerINS5_25Il2CppGenericClassCompareEEENSt3__29allocatorIS3_EEE8IdentityESA_SD_E6insertERKS3_
oQ:__Z15_CheckFMODError11FMOD_RESULTPKciS1_
Klb:__Z20RenderMultipleMeshesRK15RenderNodeQueueRK18RenderMultipleData17ShaderChannelMask
R9c:__ZN6il2cpp2vm4Type19GetGenericParameterEPK10Il2CppType
zPc:__Z51Register_UnityEngine_CanvasGroup_get_blocksRaycastsv
xcj:_InternalEnumerator_1_get_Current_m2826780083_gshared
_$j:b119
c0i:_Context_UnregisterDynamicProperty_m4064851633
Juc:__ZN8JSONRead21TransferSTLStyleArrayI13dynamic_arrayI11ColorRGBA32Lj4EEEEvRT_18MemLabelIdentifier17TransferMetaFlags
Ad:_glBeginQuery
C7g:_Assembly_GetCustomAttributes_m95309865
_kh:_GUILayoutUtility_INTERNAL_CALL_Internal_GetWindowRect_m3236664463
GVa:__ZN6Camera12RenderStereoENS_10RenderFlagE8CullFlagPNS_24PerformEyeRenderFunctionE
tea:__ZN20LocalFileSystemPosix10ToAbsoluteEPKc
T4d:_GridLayoutGroup__ctor_m1099847132
Qwd:__ZN6il2cpp2vm13ComObjectBase16DisconnectObjectEj
OAe:_Enum_ToObject_m275924358
Dm:f0
Yie:_ArrayListWrapper_set_Capacity_m2792463350
MNj:_getcwd
ftg:_StringBuilder_Append_m1128243247
oKi:_AnimatorControllerPlayable_GetBool_m3606320557
Pfb:__ZN25ThreadsafeLinearAllocatorD2Ev
yOe:_Array_InternalArray__set_Item_TisVector4_t2243707581_m3878172417_gshared
Bga:__Z21SendMessageToEveryoneRK17MessageIdentifier11MessageData
D8:__ZN21BillboardBatchManager16StaticInitializeEPv
boh:_Object_get_name_m2079638459
x$:__ZN12_GLOBAL__N_138ArchiveRedirectFileSystemStaticDestroyEPv
nBe:_EventHandler_Invoke_m1137722757
eob:__ZN12CubemapArray34UpdateFileTextureUploadInstructionEP26FileAssetUploadInstructionj
g9e:_MonoType_IsSubclassOf_m2211166238
eHf:_Collection_1_System_Collections_ICollection_CopyTo_m2859266050_gshared
dLa:__Z23CreateSparseTextureGLES9TextureIDii14GraphicsFormati
q0e:_InvalidCastException__ctor_m2730571470
Bdg:_X509ChainElementCollection_System_Collections_IEnumerable_GetEnumerator_m2559704689
Rag:_PublicKey_get_Key_m126090744
azc:__ZNSt3__23mapIN20TextRenderingPrivate7FontRefEP11FT_FaceRec_NS_4lessIS2_EENS_9allocatorINS_4pairIKS2_S4_EEEEEixERS9_
IPa:__ZN17ArchiveFileSystem10AddStorageEP20ArchiveStorageReader
LTi:_Color_Equals_m661618137
mTi:_CanvasRenderer_SplitIndicesStreamsInternal_m817541557
VMh:_EqualityComparer_1_System_Collections_IEqualityComparer_GetHashCode_m1203798961_gshared
CYc:__ZN6il2cpp2vm5Class15GetEnumBaseTypeEP11Il2CppClass
Nob:__ZNK9Texture2D16GetNpotTexelSizeEv
Zxi:_Mask_get_rectTransform_m3304369086
Osj:_TooltipAttribute__ctor_m2640804852
eHa:__ZN9GfxDevice22GetDefaultVertexBufferE26GfxDefaultVertexBufferTypej
GFf:_Collection_1__ctor_m3903788797_gshared
EPf:_ReadOnlyCollection_1_System_Collections_ICollection_CopyTo_m1129689124_gshared
cOj:___fseeko_unlocked
wYj:_glGetActiveUniform__wrapper
WNj:_sscanf
zvb:__ZN14SafeBinaryRead21TransferSTLStyleArrayINSt3__26vectorI17BlendShapeChannelNS1_9allocatorIS3_EEEEEEvRT_17TransferMetaFlags
Roa:__Z17BeginSplashScreenv
AVb:__ZN9ShaderLab16SerializedShader8TransferI19StreamedBinaryWriteILb0EEEEvRT_
TAg:_UInt32_Parse_m2400360707
tC:__ZN7mecanim9animation18CreateAvatarMemoryEPKNS0_14AvatarConstantERNS_6memory9AllocatorE
Foe:_Stack_Pop_m3788808882
BAh:_Enumerator_VerifyCurrent_m4246196125_AdjustorThunk
Dve:_DateTime_op_Equality_m1867073872
lB:__ZN7mecanim8skeleton16SkeletonPoseCopyIN4math4trsXENS2_7affineXEEEvPKNS0_13SkeletonPoseTIT_EEPNS5_IT0_EE
LGa:__ZN18GfxFramebufferGLES18GetFramebufferNameERK20GfxRenderTargetSetup
nmd:__ZN6il2cpp6icalls8mscorlib6System2IO6MonoIO11GetFileTypeE12Il2CppIntPtrPi
dmc:__Z30Event_Get_Custom_PropCharacterP12Il2CppObject
faa:__ZN13PlayableGraph27SchedulePlayableDestructionERK9HPlayable
EVj:_glGetFramebufferAttachmentParameteriv__wrapper
nVc:__Z13RegisterClassI20UnityConnectSettingsEvv
YFb:__Z22scripting_array_length17ScriptingArrayPtr
SMd:_SecurityElement_GetAttribute_m4288291176
bAj:_IndexedSet_1_get_Count_m2839545138_gshared
Uva:__ZN14SafeBinaryRead20TransferTypelessDataEjPvi
vXi:_RenderPipelineManager_get_currentPipeline_m679160301
MXh:__ZL66StringFreezingAttribute_t2691375565_CustomAttributesCacheGeneratorP21CustomAttributesCache
Spc:__ZN9rapidjson13GenericReaderINS_4UTF8IcEES2_13JSONAllocatorE10ParseFalseILj1ENS_25GenericInsituStringStreamIS2_EENS_15GenericDocumentIS2_S3_S3_EEEEvRT0_RT1_
bIi:_AnimationClipPlayable_INTERNAL_CALL_SetApplyFootIKInternal_m4116451205
HP:__ZN13dynamic_arrayI12SoundChannelLj4EE9push_backERKS0_
l0:__Z19GetActiveColorSpacev
mNh:_EqualityComparer_1__cctor_m1672307556_gshared
tjg:_SoapTypeAttribute_get_IsInteropXmlElement_m2941294827
Gxb:__ZN14SpriteRenderer18UpdateCachedSpriteEv
Rof:_Enumerator_System_Collections_IEnumerator_get_Current_m3542273247_gshared
nhe:_Char_System_IConvertible_ToUInt32_m1557991717_AdjustorThunk
jsg:_Encoding_get_UTF8Unmarked_m628720656
bVe:_NumberFormatter_RoundBits_m1545255255
U0:__Z6StrCmpPKcS0_
ZWb:__Z21CheckGpuProgramUsable20ShaderGpuProgramType
x8g:_Binder__cctor_m3736115807
Ptd:__ZN6il2cpp2os9Directory20GetFileSystemEntriesERKNSt3__212basic_stringIcNS2_11char_traitsIcEENS2_9allocatorIcEEEESA_iiPi
b1g:__Z84RuntimeInvoker_Int32_t2071877448_Color32_t874517518_Color32_t874517518_RuntimeObjectPFvvEPK10MethodInfoPvPS4_
aYc:__ZN30dense_hashtable_const_iteratorINSt3__24pairIK10KeyWrapperIPK22Il2CppGenericParameterEP11Il2CppClassEES6_N6il2cpp5utils11PointerHashIS4_EEN14dense_hash_mapIS6_S9_SE_NS6_14EqualsComparerINS0_8equal_toIS5_EEEENS0_9allocatorISA_EEE9SelectKeyESJ_SL_EppEv
vKh:_Dictionary_2_OnDeserialization_m2160537783_gshared
$xc:__ZN20TextRenderingPrivate19NativeTextGenerator5SetupEv
Izb:__ZN12AspectRatios8TransferI18StreamedBinaryReadILb0EEEEvRT_
Y3b:__ZN10GameObject14CopyPropertiesERS_
goc:__Z44Register_UnityEngine_GUIStyle_get_fixedWidthv
wJd:_RSACryptoServiceProvider_Common_m2581564813
XLi:_AnimatorControllerPlayable_INTERNAL_CALL_GetCurrentAnimatorClipInfoInternal_m3360626147
L3e:_MemoryStream_CheckIfClosedThrowDisposed_m2253054610
d3i:_ArrayReadOnlyList_1_GetEnumerator_m634288642_gshared
wbb:__ZNK13ScreenManager12IsFullScreenEv
xOj:_rand
fWj:_emscripten_glFramebufferRenderbuffer__wrapper
hYg:__Z72RuntimeInvoker_Boolean_t3825574718_Ray_t2469606224_SingleU26_t4173844468PFvvEPK10MethodInfoPvPS4_
MGb:__ZN14SafeBinaryRead21TransferSTLStyleArrayINSt3__26vectorI17AnimationCurveTplIfE13stl_allocatorIS4_L18MemLabelIdentifier1ELi16EEEEEEvRT_17TransferMetaFlags
Bbc:__Z60Register_UnityEngine_AsyncOperation_set_allowSceneActivationv
kmg:_ObjectManager_RegisterObject_m872610295
c5a:__Z22PrepareOptimizedPlanesPK5PlaneiPKN4math7_float4E
Wyh:_RectOffset_t3387826427_marshal_pinvoke
H3d:_Graphic_SetVerticesDirty_m1607014370
RY:__ZN11UnityEngine15CloudWebService17WebFileDownloaderINS0_20WebRequestRestClientENS0_23WebRequestRestHeaderMapEE10InitializeERKN4core12basic_stringIcNS5_20StringStorageDefaultIcEEEE
B8:__ZN17UniqueIDGenerator15CreatePureIndexEv
Coc:__Z59Register_UnityEngine_GUIStyle_Internal_GetCursorFlashOffsetv
ds:__ZN11UnityEngine9Animation28GenericAnimationBindingCache15DidReloadDomainEv
flf:_AppDomain_InternalGetProcessGuid_m1278588156
W8d:_InputField_MoveRight_m386206014
_Hg:__Z116RuntimeInvoker_Boolean_t3825574718_RuntimeObject_Int32_t2071877448_RuntimeObject_Int32_t2071877448_Int32_t2071877448PFvvEPK10MethodInfoPvPS4_
M0e:_BinaryReader_ReadBoolean_m2892291883
RXc:__ZN15dense_hashtableINSt3__24pairIK10KeyWrapperIPK22Il2CppGenericParameterEP11Il2CppClassEES6_N6il2cpp5utils11PointerHashIS4_EEN14dense_hash_mapIS6_S9_SE_NS6_14EqualsComparerINS0_8equal_toIS5_EEEENS0_9allocatorISA_EEE9SelectKeyESJ_SL_E14squash_deletedEv
uAb:__ZNSt3__26__treeINS_12__value_typeIN4core12basic_stringIcNS2_20StringStorageDefaultIcEEEE4PPtrI6ObjectEEENS_19__map_value_compareIS6_SA_NS_4lessIS6_EELb1EEE13stl_allocatorISA_L18MemLabelIdentifier51ELi16EEE7destroyEPNS_11__tree_nodeISA_PvEE
mXg:__Z139RuntimeInvoker_Void_t1841601450_IntPtr_t_Rect_t3681755626_RuntimeObject_SByte_t454417549_SByte_t454417549_SByte_t454417549_SByte_t454417549PFvvEPK10MethodInfoPvPS4_
jkc:__Z14GUIClipTextureP9Texture2DPhiiii
z1f:_TlsServerCertificate_validateCertificates_m1988583701
B0:__ZNK9Transform18TransformDirectionERK8Vector3f
Llh:_GUILayoutEntry_SetHorizontal_m1828181654
i$j:_emscripten_glClearStencil__wrapper
d2c:__ZN15dense_hashtableINSt3__24pairIK10KeyWrapperIPK11Il2CppClassEPKcEES6_N6il2cpp5utils11PointerHashIS3_EEN14dense_hash_mapIS6_S9_SE_NS6_14EqualsComparerINS0_8equal_toIS5_EEEENS0_9allocatorISA_EEE9SelectKeyESJ_SL_E12resize_deltaEjj
gQj:__ZNK10__cxxabiv120__si_class_type_info27has_unambiguous_public_baseEPNS_19__dynamic_cast_infoEPvi
QTj:_glTexSubImage3D__wrapper
Deg:_FactoryCache_Add_m2602974721
dHa:__Z30AddDefaultStreamsToMeshBuffersR9GfxDeviceR11MeshBuffersj17ShaderChannelMaskS3_
z7:__ZL16GetInterfaceImpl18UnityInterfaceGUID
YWe:_RegionInfo_construct_internal_region_from_name_m3316088619
VYc:__ZN6il2cpp2vmL17SetupFieldOffsetsENS0_15FieldLayoutKindEP11Il2CppClassjRKNSt3__26vectorIjNS4_9allocatorIjEEEE
Eqf:_List_1_System_Collections_IList_get_Item_m936612973_gshared
Fwd:__ZN6il2cpp6icalls8mscorlib6System15MonoCustomAttrs27GetCustomAttributesInternalEP12Il2CppObjectP20Il2CppReflectionTypeb
AKc:_UNITY_TT_Set_MM_Blend
umg:_ObjectReader_ReadAssembly_m869834280
Qra:__ZN14PreloadManager35WaitForAllAsyncOperationsToCompleteEv
qLf:_Collection_1_IsSynchronized_m971497175_gshared
_Vd:_ExecuteEvents_Execute_m1617536317
oFi:_Text_get_cachedTextGeneratorForLayout_m1357670532
EK:__ZL31InitializeAudioScriptingClassesv
ZXa:__Z14SortGUIByDepthP10GUIElementS0_
KZe:_NumberFormatter_NumberToString_m126384393
IXj:_emscripten_glVertexAttrib4fv__wrapper
Mgg:_LogicalCallContext__ctor_m3173272863
UB:__ZN12_GLOBAL__N_120ProcessRootMotionMixER33AnimationPlayableEvaluationOutputR35AnimationPlayableEvaluationConstantR32AnimationPlayableEvaluationInputS1_f
U7e:_MonoCustomAttrs__cctor_m2608447972
xZe:_Int32_FindSign_m3803672540
iBh:_Enumerator_System_Collections_IEnumerator_Reset_m70453843_AdjustorThunk
dfa:__ZNK20LocalFileSystemPosix21GetAvailableDiskSpaceEPKcRy
xda:__ZNSt3__26__treeIiNS_4lessIiEENS_9allocatorIiEEE7destroyEPNS_11__tree_nodeIiPvEE
rZf:_CipherSuite_InitializeCipher_m229247572
MAa:__ZNK9GfxDevice14GetWorldMatrixEv
yih:_MonoProperty_GetGetMethod_m1100580870
q7a:__Z19scripting_array_new17ScriptingClassPtrjj
vP:__ZN11SoundHandle13CreateChannelEb
VLg:__Z90RuntimeInvoker_Void_t1841601450_IntPtr_t_Int32_t2071877448_RuntimeObject_Int32_t2071877448PFvvEPK10MethodInfoPvPS4_
aqb:__ZN14SafeBinaryRead21TransferSTLStyleArrayI13dynamic_arrayI12LightmapDataLj4EEEEvRT_17TransferMetaFlags
zlf:_ArgumentException__ctor_m3312963299
aUb:__ZNSt3__26vectorIN9ShaderLab20SerializedSubProgram16TextureParameterENS_9allocatorIS3_EEE6assignIPS3_EENS_9enable_ifIXaasr21__is_forward_iteratorIT_EE5valuesr16is_constructibleIS3_NS_15iterator_traitsISA_E9referenceEEE5valueEvE4typeESA_SA_
J0c:__ZN13Il2CppHashMapIN6il2cpp5utils13dynamic_arrayIPK10Il2CppTypeLj4EEEPFvvENS0_8metadata19Il2CppSignatureHashENS9_22Il2CppSignatureCompareENSt3__29allocatorINSC_4pairIK10KeyWrapperIS6_ES8_EEEEEC2EjRKSA_RKSB_
ZKj:_U3CCreateWhereIteratorU3Ec__Iterator1D_1_MoveNext_m3533253043_gshared
Cfd:__ZN15dense_hashtableINSt3__24pairIK10KeyWrapperIPK22Il2CppGenericParameterEPK24MonoGenericParameterInfoEES6_N6il2cpp5utils11PointerHashIS4_EEN14dense_hash_mapIS6_SA_SF_NS6_14EqualsComparerINS0_8equal_toIS5_EEEENS0_9allocatorISB_EEE9SelectKeyESK_SM_E15set_deleted_keyERKSB_
FYb:__ZN6prcoreL11inner_clearILj2EEEvPhjjj
geg:_X509SubjectKeyIdentifierExtension__ctor_m3887138480
Zmf:_Enumerator_System_Collections_IEnumerator_get_Current_m2853089017_AdjustorThunk
Ng:_emscripten_exit_fullscreen
U6d:_InputField_get_mesh_m3276583786
qZi:_GCHandle_Free_m1639542352_AdjustorThunk
Bsd:__ZN6il2cpp6icalls8mscorlib6System6String19InternalAllocateStrEi
fvc:__Z29Transfer_Blittable_ArrayFieldI8JSONRead11QuaternionfEvRT_R9ArrayInfoRK23StaticTransferFieldInfo
PZh:__ZL65SoapParameterAttribute_t2780084514_CustomAttributesCacheGeneratorP21CustomAttributesCache
pcc:__Z45Register_UnityEngine_Camera_get_targetDisplayv
e2b:__ZNK24RendererAnimationBinding15GenerateBindingERKN4core12basic_stringIcNS0_20StringStorageDefaultIcEEEEbRN11UnityEngine9Animation14GenericBindingE
Pkb:__Z15GetFlareManagerv
Egj:_Enumerator_System_Collections_IEnumerator_get_Current_m1429268283
lNf:_ReadOnlyCollection_1_System_Collections_Generic_ICollectionU3CTU3E_Clear_m388357963_gshared
wMj:___toread
CY:__ZN19CloudServiceHandler10QueueEventEPN11UnityEngine15CloudWebService14CloudEventInfoE
JQj:___cxa_is_pointer_type
MRd:_String_Concat_m56707527
WB:__ZN7mecanim9animation16EvaluateAvatarDXEPKNS0_14AvatarConstantEPKNS0_11AvatarInputEPNS0_12AvatarMemoryEPNS0_15AvatarWorkspaceEPNS0_12AvatarOutputE
sKa:__ZN4gles20DestroyRenderSurfaceEP7ApiGLESP17RenderSurfaceGLES
Ymf:_Enumerator_System_Collections_IEnumerator_get_Current_m2853089017_gshared
Uic:__Z34Transform_CUSTOM_SetAsFirstSiblingP12Il2CppObject
ooa:__ZN17PersistentManager40GlobalToLocalSerializedFileIndexInternalERK26SerializedObjectIdentifier
SV:__ZN11UnityEngine15CloudWebService17SessionEventQueue14ParseEventDataERKN4core12basic_stringIcNS2_20StringStorageDefaultIcEEEE
KTd:_BaseEventData_get_selectedObject_m3551206992
lcf:_SimpleCollator_CompareOrdinal_m2176988387
aCe:_CCGregorianCalendar_GetYear_m1289900195
IZe:_Int16_ToString_m2592645088
pFa:__ZN13TranslateGLES4InitERK12GraphicsCaps16GfxDeviceLevelGL
LT:__Z60AudioClipPlayable_CUSTOM_INTERNAL_CALL_GetPauseDelayInternalR9HPlayable
Tng:_SerializationInfoEnumerator_Reset_m2206466680
dWj:_emscripten_glGetShaderPrecisionFormat__wrapper
mEj:_GenericEqualityComparer_1_Equals_m1934771410_gshared
LDd:__ZN6il2cpp5utils9Exception26FormatInvalidCastExceptionEPK11Il2CppClassS4_
gBb:__ZNSt3__26vectorIN30RuntimeInitializeOnLoadManager15ClassMethodInfoE13stl_allocatorIS2_L18MemLabelIdentifier12ELi16EEE8__appendEj
l0b:__ZN13ProduceHelperI10TagManagerLb0EE7ProduceE18MemLabelIdentifier18ObjectCreationMode
fyd:__ZN6il2cpp8metadataL7CompareEPK10Il2CppTypeS3_
Z9g:_TypeBuilder_get_is_created_m736553860
ikh:_GameObject_set_layer_m2712461877
YXf:_RSAManaged__ctor_m1370411656
vqd:__ZNSt3__218uninitialized_fillIPNS_4pairIK10KeyWrapperIP12Il2CppObjectEN6il2cpp2gc9CachedCCWEEESA_EEvT_SC_RKT0_
Ynb:__ZN12CubemapArray23VirtualRedirectTransferER17RemapPPtrTransfer
r9b:__ZL27GetComponentsImplementationILb0ELi0EEbR10GameObjectbRK17CompareParametersRK39GetComponentsImplementation_ReturnValue
x9f:_WebHeaderCollection_GetObjectData_m3940120977
vCb:__ZN9Scripting36IsSystemCollectionsGenericDictionaryE17ScriptingClassPtr
jAi:_Raycast3DCallback_EndInvoke_m3234280377
v0d:_ColorTweenCallback__ctor_m3619686788
z5:__ZL16ReadTypeTreeImplILb0EEbR8TypeTreeRK16TypeTreeIteratorRPKhS6_i
Lgc:__Z28PlayableOutputValidityChecksRK15HPlayableOutput
Px:__ZN27AnimationLayerMixerPlayable16SetLayerMaskCopyEjRKN7mecanim6bitsetILj70EEEPKNS0_8skeleton12SkeletonMaskE
vH:__Z104Register_UnityEngine_Animations_AnimatorControllerPlayable_INTERNAL_CALL_GetNextAnimatorClipInfoInternalv
Lmb:__ZNK22BuiltinResourceManager21GetResourceInstanceIDEPKN5Unity4TypeERKN4core12basic_stringIcNS4_20StringStorageDefaultIcEEEE
fDa:__ZN9GfxDevice15BeginFrameStatsEv
xdc:__Z42Register_UnityEngine_RectOffset_set_bottomv
gje:_ArrayListWrapper_IndexOf_m3574835167
IF:__Z92Register_UnityEngine_Animations_AnimationClipPlayable_INTERNAL_CALL_GetAnimationClipInternalv
y_a:__ZN28LightProbeProxyVolumeContext8CopyFromERKS_
Aqh:_GUIUtility_TakeCapture_m3115231813
V6a:__ZN23TransformChangeDispatch32QueueTransformChangeIfHasChangedER18TransformHierarchy
s3a:__ZN18DeferredRenderLoop15RenderFinalPassEP13RenderTextureS1_
tKa:__ZN7ApiGLES18DeleteRenderbufferERj
hJa:__ZL23ProgramUniformMatrix4fvPK7ApiGLESjiihPKv
Uza:__ZN7ApiGLES13CreateTextureEjj14GraphicsFormatiiiii
KTb:__ZN9ShaderLab20SerializedSubProgram15MatrixParameter8TransferI14SafeBinaryReadEEvRT_
uZe:_Int32_Parse_m124693431
t9b:__ZL27GetComponentsImplementationILb0ELi1EEbR10GameObjectbRK17CompareParametersRK39GetComponentsImplementation_ReturnValue
CJc:_Round_Down_To_Grid
Vug:_UTF8Decoder__ctor_m1460357288
gka:__ZN13RenderTexture7ReleaseEv
Kwb:__ZN10MeshFilter23VirtualRedirectTransferER14SafeBinaryRead
ype:_Convert_ToByte_m1201588964
Uwb:__ZN12MeshRenderer17MainThreadCleanupEv
pbc:__Z36AsyncOperation_Get_Custom_PropIsDoneP12Il2CppObject
$Ma:__ZN22CreateGpuProgramOutput12CreateParamsEv
hFa:__ZNK14GfxContextGLES13GetDefaultFBOEv
oFe:_Array_InternalArray__ICollection_Remove_TisSByte_t454417549_m2474211570_gshared
Nga:__ZN14GraphicsHelper5ClearE13GfxClearFlagsRK10ColorRGBAffjR17ShaderPassContext
r6b:__Z13GetImagePixelI10ColorRGBAfET_PKhii13TextureFormat15TextureWrapModeS5_ii
t7c:_il2cpp_class_is_enum
cjd:__ZN6il2cpp2vm6Thread49CheckCurrentThreadForInterruptAndThrowIfNecessaryEv
pma:__ZNSt3__23mapIN9ShaderLab16FastPropertyNameEN18UnityPropertySheet11UnityTexEnvENS_4lessIS2_EENS_9allocatorINS_4pairIKS2_S4_EEEEEixERS9_
Vza:__ZNK13TranslateGLES25GetTextureTargetDimensionEj
zNe:_Array_InternalArray__set_Item_TisByte_t3683104436_m1694926640_gshared
rhj:_PatternCompiler_EmitInfo_m597931026
nVf:_ModulusRing_Multiply_m3113924743
kic:__Z47Texture2D_CUSTOM_INTERNAL_CALL_GetPixelBilinearP12Il2CppObjectffR10ColorRGBAf
gOc:__ZZN2UI6Canvas15InitializeClassEvEN39FunctorImpl_1413kCanvasHierarchyChanged4CallEPviR11MessageData
Mi:_emscripten_glVertexAttrib4f
RMf:_ReadOnlyCollection_1_System_Collections_IEnumerable_GetEnumerator_m531171980_gshared
yWb:__ZNSt3__26vectorIN20GpuProgramParameters14ConstantBufferENS_9allocatorIS2_EEE8__appendEj
fQe:_Array_Sort_TisUILineInfo_t3621277874_m3105833015_gshared
C9e:_MonoType_GetGenericArguments_m2708198481
Kqf:_List_1_AddEnumerable_m2489692396_gshared
mwj:_WaitForSecondsRealtime__ctor_m1734539010
$w:__ZN7mecanim12statemachine24CreateStateMachineMemoryEPKNS0_20StateMachineConstantERNS_6memory9AllocatorE
FEh:_Enumerator_get_Current_m419581838_AdjustorThunk
kDa:__ZN9GfxDevice18SetGlobalDepthBiasEff
I4c:__ZN6il2cpp6icalls8mscorlib6System8MonoType12get_AssemblyEP20Il2CppReflectionType
Zi:_emscripten_glGetPointerv
LB:__ZN8Animator22ApplyBuiltinRootMotionEv
UEe:_Array_InternalArray__ICollection_Remove_TisKeyValuePair_2_t3716250094_m2566517826_gshared
$md:__ZN30dense_hashtable_const_iteratorINSt3__24pairIK10KeyWrapperIP14Il2CppIUnknownEjEES5_N6il2cpp5utils11PointerHashIS3_EEN14dense_hash_mapIS5_jSB_NS5_14EqualsComparerINS0_8equal_toIS4_EEEENS0_9allocatorIS7_EEE9SelectKeyESG_SI_EppEv
Xrb:__ZN8Renderer23VirtualRedirectTransferER14SafeBinaryRead
bbh:_DerivedType_get_UnderlyingSystemType_m3904230233
GXa:__Z27ConvertSubMeshesToTrianglesR13dynamic_arrayI7SubMeshLj4EERS_ItLj2EE
jlc:__ZN5IMGUI14GUIWindowStateD2Ev
Kcg:_X509Certificate2Collection__ctor_m819526826
lK:__ZN12AudioManager5ResetEv
Q6g:__Z75RuntimeInvoker_RuntimeObject_Single_t2076509932_RuntimeObject_RuntimeObjectPFvvEPK10MethodInfoPvPS4_
AWf:_KeyBuilder_Key_m3814433741
Alf:_ArgumentException__ctor_m158205422
xIe:_Array_compare_TisVector3_t2243707580_m3709184876_gshared
x5d:_HorizontalLayoutGroup_SetLayoutHorizontal_m3237355818
vB:__ZN7mecanim5human14RetargetToTDoFEPKNS0_5HumanEPNS0_9HumanPoseEPNS_8skeleton13SkeletonPoseTIN4math4trsXEEESB_
Jud:__ZN6il2cpp6icalls8mscorlib6System11Environment20GetWindowsFolderPathEi
Hvi:__ZL60AspectRatioFitter_t3114550109_CustomAttributesCacheGeneratorP21CustomAttributesCache
Lv:__ZN7mecanim5human18HumanPoseBlendNodeERNS0_9HumanPoseEPS1_f
sFc:_UNITY_FT_RoundFix
HWb:__ZN9ShaderLab20SerializedSubProgram15AddTextureParamEPKcii16TextureDimension
N_c:__ZN15dense_hashtableINSt3__24pairIK10KeyWrapperIPKcEP11Il2CppClassEES5_N6il2cpp5utils11StringUtils12StringHasherIS4_EEN14dense_hash_mapIS5_S8_SE_NS5_14EqualsComparerINSB_13VmStringUtils21CaseSensitiveComparerEEENS0_9allocatorIS9_EEE9SelectKeyESJ_SL_E14squash_deletedEv
OQ:__ZNK18AudioMixerPlayable11DerivesFromE17ScriptingClassPtr
slj:_Uri_get_Parser_m2250631932
KIc:_cff_parse_cid_ros
Wwb:__ZNK12MeshRenderer22GetTypeVirtualInternalEv
iWi:_Event_GetHashCode_m2214628668
A3d:_Graphic_set_color_m646149893
nQi:_AudioMixerPlayable_CreateAudioMixerPlayableInternal_m167003040
INj:_write
Ima:__ZN14SafeBinaryRead19TransferSTLStyleMapINSt3__23mapIN4core12basic_stringIcNS3_20StringStorageDefaultIcEEEES7_NS1_4lessIS7_EE13stl_allocatorINS1_4pairIKS7_S7_EEL18MemLabelIdentifier1ELi16EEEEEEvRT_17TransferMetaFlags
MNc:__ZN2UI6Canvas27UpdateEventIndexesRecursiveERi
YV:__ZN11UnityEngine15CloudWebService16SessionContainer21PrepareDataErrorEventERN4core12basic_stringIcNS2_20StringStorageDefaultIcEEEE
tBc:_UNITY_FT_Outline_New
zMb:__Z19TransferField_ArrayI19StreamedBinaryWriteILb0EE27Converter_SimpleNativeClassI8GUIStyleEEvRK23StaticTransferFieldInfoR31RuntimeSerializationCommandInfoRT0_
WMi:_AnimatorControllerPlayable_CrossFade_m1077061813_AdjustorThunk
Pkg:_RemotingServices_RegisterInternalChannels_m1827304423
zoh:_GUIStyle_get_onNormal_m1675201777
zr:__ZL32CleanupAnimationScriptingClassesv
Hsc:__Z35Transfer_Blittable_FixedBufferFieldI8JSONReadiEvRK29SerializationCommandArgumentsR31RuntimeSerializationCommandInfo
N3c:__ZNSt3__213__vector_baseIN6il2cpp2os19SocketHandleWrapperENS_9allocatorIS3_EEED2Ev
xqh:_GUIStyleState_Cleanup_m705006206
JQg:__Z77RuntimeInvoker_RuntimeObject_Int32_t2071877448_RuntimeObject_SByte_t454417549PFvvEPK10MethodInfoPvPS4_
lc:invoke_viiffi
Iv:__ZN7mecanim18ValueArrayBlendEndILb0EEEvPKNS_10ValueArrayERKNS_14ValueArrayMaskERKNS_16ValueArrayWeightERS1_
Fbb:__ZN13sorted_vectorINSt3__24pairIN4core12basic_stringIcNS2_20StringStorageDefaultIcEEEEPK17MessageIdentifierEEN10vector_mapIS6_S9_NS0_4lessIS6_EENS0_9allocatorISA_EEE13value_compareESF_E10insert_oneERKSA_
hwg:_Thread_GetCachedCurrentUICulture_m5590127
tvj:_Vector3_Dot_m3161182818
AUb:__Z14resize_trimmedINSt3__26vectorIN9ShaderLab18SerializedPropertyENS0_9allocatorIS3_EEEEEvRT_j
nAf:_List_1_CheckMatch_m4018158235_gshared
Ocf:_Context_t2636657155_marshal_pinvoke_back
N1c:__ZN6il2cpp2vm13MetadataCache38GetMethodInfoFromMethodDefinitionIndexEi
Ife:_Byte_System_IConvertible_ToDateTime_m1583041031
agc:__Z39MonoBehaviour_CUSTOM_GetScriptClassNameP12Il2CppObject
stb:__ZN10VertexData8TransferI24GenerateTypeTreeTransferEEvRT_
dvd:__ZN13Il2CppHashMapIPK19Il2CppGenericMethodP10MethodInfoN6il2cpp8metadata23Il2CppGenericMethodHashENS6_26Il2CppGenericMethodCompareENSt3__29allocatorINS9_4pairIK10KeyWrapperIS2_ES4_EEEEEC2EjRKS7_RKS8_
G4a:__ZL10CullLightsRK22SceneCullingParametersR11CullResults
G2d:_Dropdown__cctor_m264401557
Jce:_Array_IndexOf_m2819632474
Ifj:_Comparer_1__cctor_m3996541505_gshared
Ww:__ZN7mecanim12statemachine20GetBlendTreeConstantERKNS0_13StateConstantEi
g5b:__Z40GetTemporaryCachePathApplicationSpecificv
tBa:__ZN9GfxDevice16EndAsyncJobFrameEv
nCc:_UNITY_tt_face_load_hhea
QWi:_PersistentCall__ctor_m2079279187
Yoe:_Convert_ToBase64String_m1936815455
Sk:___syscall3
Vk:___syscall6
Xk:___syscall4
Oxe:_Decimal_ToString_m759431975
l_d:_ColorBlock_get_fadeDuration_m987725262
Kqd:__ZN6il2cpp2vm3RCW14QueryInterfaceILb1EEEP14Il2CppIUnknownP15Il2CppComObjectRK10Il2CppGuid
Hpg:_CryptographicException__ctor_m2415891459
F9b:__ZN9Scripting25BroadcastScriptingMessageER10GameObjectPKc18ScriptingObjectPtr
ll:_emscripten_glShaderBinary
gSi:_Camera_INTERNAL_CALL_RaycastTry_m1030092423
Tea:__ZNK20LocalFileSystemPosix6ExistsERK13FileEntryData
B6f:_DictionaryNodeEnumerator_get_DictionaryNode_m3521889822
_t:__ZN7mecanim5human19MaskHasLeftFootGoalERKNS_6bitsetILj70EEE
o1g:__Z101RuntimeInvoker_Int32_t2071877448_RuntimeObject_Color32_t874517518_Int32_t2071877448_Int32_t2071877448PFvvEPK10MethodInfoPvPS4_
tth:_Mesh_get_colors32_m4153271224
hRc:__Z58Register_UnityEngine_Canvas_GetETC1SupportedCanvasMaterialv
MOb:__ZN17AnimationCurveTplIfE8TransferI18StreamedBinaryReadILb1EEEEvRT_
Yve:_DateTimeOffset_GetHashCode_m3312197462_AdjustorThunk
cTc:__ZN18UnityConnectClientD2Ev
L6c:_il2cpp_set_data_dir
nlj:_Uri_get_IsUnc_m2111738174
grj:_DataUtility_INTERNAL_CALL_GetPadding_m1621366113
afh:_TypeBuilder_IsValueTypeImpl_m1499671481
nSc:__ZN11UnityEngine15PlatformWrapper30GetGraphicsDriverLibraryStringEv
tCh:_Enumerator_VerifyState_m262343092_AdjustorThunk
Iuj:_Vector2_ToString_m775491729
IXf:_EncryptedPrivateKeyInfo_Decode_m1706190306
RPb:__Z18Transfer_BlittableI18StreamedBinaryReadILb0EELb0E4AABBEvRK29SerializationCommandArgumentsR31RuntimeSerializationCommandInfo
zD:__ZN16MecanimAnimation24DeleteAnimatedPropertiesERP26IAnimatedPropertyEvaluator
dte:_Convert_ToUInt16_m1665900934
VWe:_RegionInfo__ctor_m2058831971
fVa:__Z14DrawGUITextureRK5RectTIfEP7Texture11ColorRGBA32P8Materiali
vFi:_Text_get_supportRichText_m3291105891
Gzh:_RectTransform_GetParentSize_m1571597933
yA:__ZN9BlobWrite8TransferI22OffsetPtrArrayTransferIKN4math7_float4EEEEvRT_PKc17TransferMetaFlags
_9d:_LayoutElement_set_ignoreLayout_m1530090081
Dja:__ZN15TextureSettings8TransferI24GenerateTypeTreeTransferEEvRT_
Bgj:_MatchCollection_GetEnumerator_m3516985966
tsc:__ZN9JSONWrite8TransferI4AABBEEvRT_PKc17TransferMetaFlags
hsg:_UTF7Encoding__ctor_m2365939916
QQa:__ZN25MultiBlocksMemoryFileData9SetLengthEy
Rrj:_TextGenerationSettings_Equals_m3944651893_AdjustorThunk
$Ui:_DelegatePInvokeWrapper_StateChanged_t2480912210
oyi:_MatEntry__ctor_m3650167335
Dob:__ZNK9Texture2D20GetRuntimeMemorySizeEv
aAg:_TypeInitializationException__ctor_m2993591639
Eud:__ZN6il2cpp2gc16GarbageCollector16InvokeFinalizersEv
VYe:_Int16_System_IConvertible_ToInt64_m733340257
Osh:_Matrix4x4_ToString_m1982554457_AdjustorThunk
Nyc:_UNITY_FT_Outline_Transform
eic:__Z60Register_UnityEngine_Sprites_DataUtility_Internal_GetMinSizev
hZc:__ZN6il2cpp2vm5Class10GetMethodsEP11Il2CppClassPPv
r0a:__Z30AddDefaultStreamsToMeshBuffersR9GfxDeviceR11MeshBuffersRK16DrawBuffersRange17ShaderChannelMaskS6_
BNd:_Hash_GetObjectData_m315532943
YJa:__ZN7ApiGLES17DeleteFramebufferERN2gl6HandleILNS0_10ObjectTypeE9EEES3_
dMa:__ZN15UniformTFMethod13MapBoneBufferEj
V_f:_RecordProtocol_SendAlert_m2816808523
OMc:__ZN2UI14CanvasRendererD2Ev
thg:_MethodCall_get_LogicalCallContext_m3769562079
Cjd:__ZN6il2cpp6icalls8mscorlib6System5Array8SetValueEP11Il2CppArrayP12Il2CppObjectS5_
Y5e:_SynchronizedReader_Read_m1399666181
_gh:_MonoEvent_get_Name_m2796714646
Nfa:__Z9SetupArgviPPKc
gXd:_PointerEventData_set_worldNormal_m2025727441
a0f:_Context_get_SentConnectionEnd_m3114190867
Znb:__ZN12CubemapArray23VirtualRedirectTransferER24GenerateTypeTreeTransfer
d6:__ZN12FileAccessor4OpenER15FileSystemEntry14FilePermission16FileAutoBehavior
pOf:_ReadOnlyCollection_1__ctor_m2364452928_gshared
Otd:__ZN6il2cpp2os9Directory6CreateERKNSt3__212basic_stringIcNS2_11char_traitsIcEENS2_9allocatorIcEEEEPi
BNi:_AnimatorControllerPlayable_Play_m1490151611_AdjustorThunk
U6a:__ZN23TransformChangeDispatch32QueueTransformChangeIfHasChangedERK15TransformAccess
LWd:_PointerEventData_set_clickTime_m3931922487
GX:__ZNSt3__24listIP19CloudServiceHandler13stl_allocatorIS2_L18MemLabelIdentifier86ELi16EEE6removeERKS2_
VUe:_NumberFormatter_AppendNonNegativeNumber_m629862866
roa:__ZNSt3__26vectorINS_4pairIN9ShaderLab16FastPropertyNameEN18UnityPropertySheet11UnityTexEnvEEENS_9allocatorIS6_EEE21__push_back_slow_pathIKS6_EEvRT_
kYi:_ResourceInfo__ctor_m2401359321_AdjustorThunk
cme:_Hashtable__ctor_m392789568
Lvg:_Mutex_CreateMutex_internal_m2352956576
fug:_UTF7Encoding__cctor_m4192443836
uUi:_Component_SendMessage_m2241432133
knc:__Z31GUIStyle_CUSTOM_SetFontInternalP12Il2CppObjectS0_
B:tempValue
ZYe:_Int16_System_IConvertible_ToSingle_m3277935657
h2:__Z29scripting_class_from_fullnamePKcS0_S0_
hAi:_Raycast3DCallback_Invoke_m2271859924
ux:__ZN26AnimatorControllerPlayable18DeallocateBindingsEv
HNi:_AnimatorControllerPlayable_HasState_m3003093532
MP:__ZN11AudioSource19CreateOpenALRolloffEfff
aDc:_UNITY_FT_Stream_ReadAt
XAh:_Enumerator_get_CurrentKey_m2387752419_AdjustorThunk
$oh:_GUIStyle_get_lineHeight_m2132859383
IH:__Z87Register_UnityEngine_Animations_AnimatorControllerPlayable_INTERNAL_CALL_GetFloatStringv
Y0c:__ZN15dense_hashtableINSt3__24pairIK10KeyWrapperIN6il2cpp5utils13dynamic_arrayIPK10Il2CppTypeLj4EEEEPFvvEEESA_NS3_8metadata19Il2CppSignatureHashEN14dense_hash_mapISA_SD_SG_NSA_14EqualsComparerINSF_22Il2CppSignatureCompareEEENS0_9allocatorISE_EEE9SelectKeyESK_SM_E9set_valueEPSE_RKSE_
kXi:_UnityEvent_FindMethod_Impl_m3303953986
gAg:_UInt16_System_IConvertible_ToBoolean_m887616848
NS:__ZN11AudioModule22CreateAudioClipFromWWWEP10IWWWStreamPKcbbi
Xsg:_StringBuilder_set_Length_m3039225444
oJf:_Collection_1_System_Collections_IList_Contains_m3870109702_gshared
wEe:_Array_InternalArray__ICollection_Contains_TisRaycastResult_t21186376_m3188614988_gshared
Ote:_CultureAwareComparer_GetHashCode_m3681260951
KOc:__Z13RegisterClassIN2UI11CanvasGroupEEvv
HYb:__ZN6prcoreL11inner_clearILj4EEEvPhjjj
vf:_emscripten_glClear
qAi:_Selectable__ctor_m1440593935
HAd:_GC_initialize_offsets
eaa:__ZNK8Playable6HandleEv
m4:__ZN14MessageHandler28MessageIDToMessageIdentifierEi
U7f:_HttpRequestCreator_Create_m3607509610
Ptb:__ZNK11SpriteAtlas20GetRuntimeRenderDataEPK6Sprite
wCd:__ZN6il2cpp2vm10WaitHandle19NewManualResetEventEb
iuj:_UISystemProfilerApi_EndSample_m2059427490
IPf:_ReadOnlyCollection_1_System_Collections_IList_Contains_m3707723158_gshared
dEg:_Version_GetHashCode_m880841176
lv:__ZN7mecanim14ValueArrayCopyILb0EEEvPKNS_10ValueArrayEPS1_
qG:__Z51Register_UnityEngine_Animator_get_hasBoundPlayablesv
oLj:_Nullable_1_ToString_m1238126148_AdjustorThunk
Md:emscriptenWebGLGetUniform
Co:FUNCTION_TABLE_iiiiiiiiiii
n6a:__ZL10CleanUpJobP20CullingGroupsJobData
she:_Char_CompareTo_m3044885427_AdjustorThunk
Z1e:_FileStream_GetSecureFileName_m508045384
caj:_InternalEnumerator_1_System_Collections_IEnumerator_get_Current_m2035754659_AdjustorThunk
Jwb:__ZN10MeshFilter23VirtualRedirectTransferER24GenerateTypeTreeTransfer
YUa:__ZN13RenderManager15BatchModeUpdateEv
Wsb:__ZN14SafeBinaryRead21TransferSTLStyleArrayI13dynamic_arrayI8Vector2fLj4EEEEvRT_17TransferMetaFlags
noa:__ZN17PersistentManager51InstanceIDToLocalSerializedObjectIdentifierInternalEiR31LocalSerializedObjectIdentifier
eIc:_UNITY_FT_Create_Class_cff_services
pd:_glVertexAttribIPointer
EGd:_HMAC_set_HashName_m457235014
_6b:__ZNK6Sprite10GetPaddingE20SpriteRenderDataMode
HDe:_Array_InternalArray__ICollection_Contains_TisTableRange_t2011406615_m605506746_gshared
dHh:_Dictionary_2_Add_m1296007576_gshared
Nse:_Decimal_op_Explicit_m729046406
Rpg:_CryptoConfig_CreateFromName_m2169102076
_3d:_Graphic_OnEnable_m2900261811
Upg:_CryptographicUnexpectedOperationException__ctor_m3552441227
cje:_ArrayListWrapper_Clear_m321161741
_8d:_InputField_LineDownCharacterPosition_m2690468785
$Cc:_UNITY_ft_glyphslot_alloc_bitmap
jQe:_Array_Sort_TisVector2_t2243707579_TisVector2_t2243707579_m2582252549_gshared
gCg:_UInt64_System_IConvertible_ToDouble_m2828923873
q$b:__ZZN2UI13RectTransform15InitializeClassEvEN31FunctorImpl_62kTransformChanged4CallEPviR11MessageData
mwf:_List_1_System_Collections_IList_set_Item_m1129584681_gshared
vEc:_ft_raster1_render
hhc:__Z57Register_UnityEngine_RectTransform_INTERNAL_set_anchorMaxv
grf:_List_1_set_Capacity_m491101164_gshared
qPj:__ZNKSt3__221__basic_string_commonILb1EE20__throw_length_errorEv
ttg:_StringBuilder_Insert_m1733097906
J4f:_SslStreamBase_get_HashStrength_m480059173
IKa:__ZN18GfxFramebufferGLES13ReadbackImageER14ImageReferenceiiiiii
nFh:_ValueCollection_System_Collections_Generic_ICollectionU3CTValueU3E_Clear_m3271993638_gshared
Joe:_Enumerator_MoveNext_m1419609883
uL:__ZN4FMOD7Channel19setReverbPropertiesEPK29FMOD_REVERB_CHANNELPROPERTIES
M3:__ZN13MonoBehaviour22GetScriptFullClassNameEv
bvj:_Vector2__cctor_m3670745621
c8f:_ServicePointManager_FindServicePoint_m3137356168
Dua:__ZN20SphericalHarmonicsL211AddWeightedERKS_f
yXd:_PointerInputModule_GetPointerData_m1695674453
YMg:__Z90RuntimeInvoker_Void_t1841601450_RuntimeObject_RuntimeObject_RuntimeObject_SByte_t454417549PFvvEPK10MethodInfoPvPS4_
_Ib:__Z19TransferField_ArrayI17RemapPPtrTransfer27Converter_SimpleNativeClassI8GUIStyleEEvRK23StaticTransferFieldInfoR31RuntimeSerializationCommandInfoRT0_
Jte:_Convert_ToUInt64_m345450801
rLj:_Predicate_1_BeginInvoke_m2559992383_gshared
upc:__ZN9JSONWrite8TransferI10ColorRGBAfEEvRT_PKc17TransferMetaFlags
iVi:_Debug_Log_m920475918
g4:__Z25scripting_method_get_name18ScriptingMethodPtr
qhc:__Z35Register_UnityEngine_Resources_Loadv
zHb:__Z19TransferField_ArrayI14SafeBinaryRead16Converter_StringEvRK23StaticTransferFieldInfoR31RuntimeSerializationCommandInfoRT0_
MOj:_rename
JAd:_GC_exit_check
U9e:_NotSupportedException__ctor_m3232764727
s7f:_TypeConverterAttribute_Equals_m2330345916
jRg:__Z90RuntimeInvoker_Boolean_t3825574718_Int32_t2071877448_Int32U26_t455636984_Int32_t2071877448PFvvEPK10MethodInfoPvPS4_
SJj:_Hacker_Start_m3377866405
z1e:_MonoIO_CreateDirectory_m379525469
pA:__ZN9BlobWrite8TransferI22OffsetPtrArrayTransferI9OffsetPtrIN7mecanim12statemachine18StateMachineMemoryEEEEEvRT_PKc17TransferMetaFlags
CAc:_UNITY_ft_smooth_renderer_class_pic_free
Yyf:_List_1_System_Collections_IList_Remove_m3763718607_gshared
cR:__ZN19AudioPlayableOutput22OnConnectionHashChangeEv
GQd:_String_Concat_m2000667605
WSi:_CanvasRenderer_GetColor_m3395389094
Xvd:__ZN6il2cpp2vm6String8NewUtf16EPKDsi
ltd:__ZN6il2cpp2os10ThreadImpl12QueueUserAPCEPFvPvES2_
VSc:__ZN22BaseUnityConnectClient10QueueEventERN11UnityEngine15CloudWebService17CloudServiceEventEPKcjb
g_g:__Z71RuntimeInvoker_Bounds_t3033363703_RuntimeObject_Matrix4x4U26_t266301477PFvvEPK10MethodInfoPvPS4_
$Te:_ExecuteEvents_GetEventHandler_TisRuntimeObject_m3333041576_gshared
WJc:_UNITY_FT_Hypot
Yde:_BitConverter_ToInt64_m1329623425
Z$b:__ZN8RendererC2E12RendererType18MemLabelIdentifier18ObjectCreationMode
n7c:_il2cpp_class_is_abstract
Ff:_emscripten_glGetError
ffd:__ZN15dense_hashtableINSt3__24pairIK10KeyWrapperIPK14Il2CppAssemblyEPK22Il2CppMonoAssemblyNameEES6_N6il2cpp5utils11PointerHashIS4_EEN14dense_hash_mapIS6_SA_SF_NS6_14EqualsComparerINS0_8equal_toIS5_EEEENS0_9allocatorISB_EEE9SelectKeyESK_SM_E14squash_deletedEv
hM:__Z14FMOD_FILE_SeekPvjS_
whg:_MethodCall_get_Properties_m1893707917
yCh:_ShimEnumerator_get_Entry_m2387156530_gshared
rOe:_Array_InternalArray__set_Item_TisContentType_t1028629049_m703420360_gshared
M7a:__ZNK13RenderTexture32CalculateNeedsInvertedProjectionEv
jfb:__ZN10systeminfo18GetOperatingSystemEv
Nf:emscriptenWebGLGet
Ryh:_Rect_GetHashCode_m559954498_AdjustorThunk
n6:__Z19CanReplaceComponentRN5Unity9ComponentEPKNS_4TypeEPN4core12basic_stringIcNS5_20StringStorageDefaultIcEEEE
h1b:__ZN12CubemapArray11InitTextureEiii13TextureFormatb
yth:_Mesh_SetUVs_m841280343
ubg:_X509Certificate2_get_SignatureAlgorithm_m3069898012
d$e:_Int64_System_IConvertible_ToSingle_m1678482180
Lph:_GUIStyle_INTERNAL_CALL_Internal_CalcSizeWithConstraints_m1203344891
YA:__ZN7mecanim5human13HumanFixTwistEPKNS0_5HumanEPNS_8skeleton13SkeletonPoseTIN4math4trsXEEES9_iiRKf
$0a:__ZL24AssignProjectorQueuesJobP30AssignProjectorQueuesJobHeader
zxg:_TimeSpan_get_Hours_m3804628138
c1c:__ZN15dense_hashtableINSt3__24pairIK10KeyWrapperIN6il2cpp5utils13dynamic_arrayIPK10Il2CppTypeLj4EEEEPFvvEEESA_NS3_8metadata19Il2CppSignatureHashEN14dense_hash_mapISA_SD_SG_NSA_14EqualsComparerINSF_22Il2CppSignatureCompareEEENS0_9allocatorISE_EEE9SelectKeyESK_SM_E4swapERSP_
EWb:__ZN9ShaderLab20SerializedSubProgram14SetConstBufferEPKci
I8c:__ZN6il2cpp2os4File5CloseEPNS0_10FileHandleEPi
E0c:__ZNSt3__27__sort5IRN6il2cpp5utils11collections13ArrayValueMapIPK10Il2CppType17Il2CppInteropData26InteropDataToTypeConverterNS1_8metadata14Il2CppTypeLessENSA_26Il2CppTypeEqualityComparerEE12SortComparerEPS8_EEjT0_SH_SH_SH_SH_T_
QBj:_Check_Source_m3385315029
OTf:_Comparison_1_Invoke_m345024424_gshared
vGc:_cf2_getStdVW
QQf:_ReadOnlyCollection_1_System_Collections_IList_Insert_m3936197025_gshared
b$:__Z40DebugStringToFilePostprocessedStacktraceRK21DebugStringToFileData
ouc:__Z29Transfer_Blittable_ArrayFieldI8JSONReadjEvRT_R9ArrayInfoRK23StaticTransferFieldInfo
Puh:_Object_GetInstanceID_m1920497914
PAd:_GC_check_finalizer_nested
E9i:_InternalEnumerator_1_get_Current_m314017974_AdjustorThunk
sg:__setLetterbox
f3e:_MemoryStream__ctor_m1043059966
msj:_TextGenerator_Populate_Internal_m1817393161
yig:__ZN21InterfaceFuncInvoker3IP12Il2CppObjectP6Type_t28StreamingContext_t1417235061PS1_E6InvokeEjP11Il2CppClassS1_S3_S4_S5_
Dvb:__ZNSt3__26vectorI17BlendShapeChannelNS_9allocatorIS1_EEE6assignINS_11__wrap_iterIPS1_EEEENS_9enable_ifIXaasr21__is_forward_iteratorIT_EE5valuesr16is_constructibleIS1_NS_15iterator_traitsISA_E9referenceEEE5valueEvE4typeESA_SA_
hae:_LayoutElement_set_preferredWidth_m3072758716
dag:_AsnEncodedData_ToString_m724151831
wVa:__ZN11TimeManager11GetRealtimeEv
$Vc:__ZN20UnityWebRequestProtoI19TransportJavaScript16AtomicRefCounter14RedirectHelper14ResponseHelper15DownloadHandler13UploadHandler12HeaderHelper14AsyncOperationE26Job_ExecuteUnityWebRequestEPS8_
uM:__ZN29AudioEffectInternalDefinitionC2EP26UnityAudioEffectDefinitionb
Mgh:_MonoMethodInfo_GetDeclaringType_m4186531677
vjg:_SoapTypeAttribute_SetReflectionObject_m1566293812
sEj:_Enumerator_System_Collections_IEnumerator_Reset_m2573763156_AdjustorThunk
Tkg:_RemotingServices_CreateClientProxy_m1631035355
MCg:_UInt64_ToString_m2892887310
xva:_stbir_resize
kvd:__ZN15dense_hashtableINSt3__24pairIK10KeyWrapperIPK19Il2CppGenericMethodEP10MethodInfoEES6_N6il2cpp8metadata23Il2CppGenericMethodHashEN14dense_hash_mapIS6_S9_SD_NS6_14EqualsComparerINSC_26Il2CppGenericMethodCompareEEENS0_9allocatorISA_EEE9SelectKeyESH_SJ_EC2ERKSM_j
oQa:__Z37ReadDirectoryInfo_UnityWebAndUnityRawR12FileAccessorRKN20ArchiveStorageHeader6HeaderERNS1_13DirectoryInfoE
O0:__ZNSt3__26__treeINS_12__value_typeIPKciEENS_19__map_value_compareIS3_S4_15compare_tstringIS3_ELb1EEENS_9allocatorIS4_EEE7destroyEPNS_11__tree_nodeIS4_PvEE
AKh:_Dictionary_2_ToTValue_m1381983709_gshared
M9e:_MulticastDelegate_KPM_m1592985119
$Lf:_Collection_1_ConvertItem_m3941916604_gshared
j_a:__ZN20DynamicPropertySheet14SetValueQueuedEN9ShaderLab16FastPropertyNameEN19ShaderPropertySheet12PropertyTypeEjNS2_8SetFlagsE
xNc:__ZN2UI6Canvas26MarkAllNestedCanvasesDirtyEv
nnd:__ZN6il2cpp2vm12ReboxIfBoxedEP14Il2CppIUnknownP11Il2CppClass
EMa:__ZN16GeometryJobTasks20ScheduleGeometryJobsER9GfxDevicePFvP15GeometryJobDataEPK22GeometryJobInstructionjb
zdb:__ZN25PathNamePersistentManagerD2Ev
F2:__ZN17PersistentManager48IntegrateObjectAndUnlockIntegrationMutexInternalEi
qda:__ZZ29InitializeSortingGroupManagerPvEN44PostLateUpdateSortingGroupsUpdateRegistrator7ForwardEv
tp:__ZN6Object12SetHideFlagsENS_9HideFlagsE
jea:__ZN20LocalFileSystemPosix4ReadER13FileEntryDatayyPvPy
gWj:_emscripten_glGetFramebufferAttachmentParameteriv__wrapper
EVa:__ZN13RendererScene15InitializeUmbraEv
kOi:_AnimatorTransitionInfo_IsName_m2561957738_AdjustorThunk
nua:__Z28CalculateGlobalMatrixInverse23TransformAccessReadOnly
yrc:__ZN4PPtrI6ObjectE8TransferI9JSONWriteEEvRT_
VSh:__ZL60SecurityAttribute_t2016950496_CustomAttributesCacheGeneratorP21CustomAttributesCache
tvb:__ZN13dynamic_arrayI12BoneWeights4Lj16EE18resize_initializedEjRKS0_12ResizePolicy
tXd:_PointerEventData_ToString_m1218584363
nug:_UTF7Encoding_GetCharCount_m2589913583
J3:__ZN13MonoBehaviour19ReleaseMonoInstanceEv
Y3e:_MemoryStream_CalculateNewCapacity_m3533542025
_xg:_TimeSpan_Equals_m4102942751_AdjustorThunk
mFh:_ValueCollection_System_Collections_Generic_ICollectionU3CTValueU3E_Add_m1903672223_gshared
aWc:__ZN12HeaderHelper14SetUnvalidatedERKN4core12basic_stringIcNS0_20StringStorageDefaultIcEEEES6_b
PI:__ZN4FMOD6SoundI7releaseEv
cRa:__ZN10MemoryFile9SetLengthEy
YAg:_UInt16_ToString_m2038947049_AdjustorThunk
kMi:_AnimatorControllerPlayable_GetNextAnimatorClipInfoInternal_m1102604948
gqb:__ZN14SafeBinaryRead21TransferSTLStyleArrayI13dynamic_arrayI7Hash128Lj8EEEEvRT_17TransferMetaFlags
LCb:__Z28scripting_class_is_interface17ScriptingClassPtr
Hh:_glTexStorage2D
sWb:__ZNK9ShaderLab10SubProgram14EnsureCompiledEv
BEg:__Z79RuntimeInvoker_Boolean_t3825574718_RuntimeObject_RuntimeObject_SByte_t454417549PFvvEPK10MethodInfoPvPS4_
Ezd:_GC_push_marked
Gne:_SortedList_InitTable_m460350503
Y3:__Z18BuildScriptClassId17ScriptingClassPtr
w6i:_InternalEnumerator_1_get_Current_m4279678504_AdjustorThunk
N1b:__ZN8Renderer28HandleParentHierarchyChangesEPK23TransformAccessReadOnlyj
nfa:__ZL31DeleteLastPathNameComponentImplRKN4core12basic_stringIcNS_20StringStorageDefaultIcEEEEPKc
OZb:__Z13RegisterClassI18DelayedCallManagerEvv
fTc:__ZN18UnityConnectClient15GetCloudServiceEv
mJb:__Z18Transfer_BlittableI24GenerateTypeTreeTransferLb0EiEvRK29SerializationCommandArgumentsR31RuntimeSerializationCommandInfo
FCb:__ZL28SerializationCommandGroupForRK31TransferFunctionScriptingTraits17ScriptingClassPtr17ScriptingFieldPtrRK20CoreScriptingClasses
Eib:__ZN10TagManager32RegisterDefaultTagsAndLayerMasksEv
ywh:_PlayableHandle_SetDuration_m1990009798_AdjustorThunk
j2c:__ZN15dense_hashtableINSt3__24pairIK10KeyWrapperIPKcEP11Il2CppClassEES5_N6il2cpp5utils11StringUtils12StringHasherIS4_EEN14dense_hash_mapIS5_S8_SE_NS5_14EqualsComparerINSB_13VmStringUtils21CaseSensitiveComparerEEENS0_9allocatorIS9_EEE9SelectKeyESJ_SL_E15insert_noresizeERKS9_
Wvg:_SynchronizationLockException__ctor_m549086841
Aie:_ArrayList_InsertRange_m1478230997
oFa:__ZN4gles8InitCapsEP7ApiGLESP12GraphicsCapsR16GfxDeviceLevelGL
bpa:__ZN6prcore14BlitImageFloatERK14ImageReferenceRS0_NS0_8BlitModeE
Hwa:__Z24CalculateVertexLightDataRK15SharedLightDataR14GfxVertexLight
Jsh:_Matrix4x4_Equals_m1321236479_AdjustorThunk
pi:_glEnable
msa:__ZN15dense_hashtableINSt3__24pairIKiiEEi21InstanceIDHashFunctorN14dense_hash_mapIiiS4_NS0_8equal_toIiEE13stl_allocatorIS3_L18MemLabelIdentifier1ELi16EEE9SelectKeyES7_SA_E12maybe_shrinkEv
iYa:__ZNK25CameraStackRenderingState21GetImageEffectTextureEb
mog:_RuntimeMethodHandle__ctor_m2437574937_AdjustorThunk
iqc:__Z35Transfer_Blittable_FixedBufferFieldI9JSONWriteiEvRK29SerializationCommandArgumentsR31RuntimeSerializationCommandInfo
xAg:_UInt16_System_IConvertible_ToInt64_m2835280558_AdjustorThunk
p8h:__ZL53g_UnityEngine_Assembly_CustomAttributesCacheGeneratorP21CustomAttributesCache
Ewj:_Predicate_1_BeginInvoke_m3926587117_gshared
nAb:__ZNSt3__26vectorI4PPtrI6ObjectE13stl_allocatorIS3_L18MemLabelIdentifier51ELi16EEE6assignINS_11__wrap_iterIPS3_EEEENS_9enable_ifIXaasr21__is_forward_iteratorIT_EE5valuesr16is_constructibleIS3_NS_15iterator_traitsISD_E9referenceEEE5valueEvE4typeESD_SD_
mx:__ZN26AnimatorControllerPlayable17ProcessRootMotionEP35AnimationPlayableEvaluationConstantP32AnimationPlayableEvaluationInputP33AnimationPlayableEvaluationOutput
$tf:_List_1_get_Item_m1231764300_gshared
TEg:__Z94RuntimeInvoker_Boolean_t3825574718_Int32_t2071877448_SByte_t454417549_ExceptionU26_t1467204777PFvvEPK10MethodInfoPvPS4_
j1d:_DefaultControls_CreateToggle_m1568873127
kKh:_Dictionary_2_InitArrays_m2270022740_gshared
PRc:__ZN11UnityEngine7Connect15DeviceInfoEvent16CollectExtraInfoEv
Etg:_UnicodeEncoding_GetChars_m3765282346
T$e:_IntPtr__ctor_m4104029105
Qaj:_InternalEnumerator_1_System_Collections_IEnumerator_get_Current_m771161214_AdjustorThunk
K8e:_MonoType_get_attributes_m1493788675
zCd:__ZN6il2cpp6icalls8mscorlib6System10Reflection9FieldInfo25internal_from_handle_typeE12Il2CppIntPtrS5_
Gre:_Convert_ToDouble_m4236754739
z2d:_Dropdown_CreateItem_m2702141380
pUh:__ZL48Stack_t1043988394_CustomAttributesCacheGeneratorP21CustomAttributesCache
Ho:FUNCTION_TABLE_viifi
Io:FUNCTION_TABLE_viiff
eU:__Z75AudioPlayableGraphExtensions_CUSTOM_INTERNAL_CALL_InternalCreateAudioOutputR14HPlayableGraphP12Il2CppStringP15HPlayableOutput
Xgh:_MonoEvent_GetAddMethod_m4289563120
T0g:__Z59RuntimeInvoker_Boolean_t3825574718_RaycastHit2D_t4063908774PFvvEPK10MethodInfoPvPS4_
jKc:_UNITY_tt_face_free_hdmx
P8c:__ZN6il2cpp2vm14TypeNameParser5ParseEb
Xzi:_ReflectionMethodsCache__ctor_m1835220
lVc:__ZN23UnityPurchasingSettingsC2Ev
Uze:_Double_ToString_m1864290157
Dva:__ZL37stbir__resample_horizontal_downsampleP11stbir__infoiPf
Ksa:__ZNK5Unity9Component38MarkGameObjectAndComponentDependenciesER27GarbageCollectorThreadState
q$:__ZL16OutOfMemoryErrorjj18MemLabelIdentifieriPKc
cke:_SynchronizedArrayListWrapper_Contains_m2259439339
x4:__ZNK11TypeManager15ClassNameToRTTIEPKcb
CQb:__Z18Transfer_BlittableI18StreamedBinaryReadILb0EELb1EdEvRK29SerializationCommandArgumentsR31RuntimeSerializationCommandInfo
PXe:_Guid__ctor_m2599802704
x2e:_FileStream_get_CanRead_m4148920720
THa:__ZN4crnd12symbol_codec32decode_receive_static_data_modelERNS_25static_huffman_data_modelE
l$b:__ZN18ScriptingArguments8AddFloatEf
iWe:_GregorianCalendar_set_CalendarType_m2438362222
HEe:_Array_InternalArray__ICollection_Contains_TisVector2_t2243707579_m3625698589_gshared
arc:__Z18Transfer_BlittableI9JSONWriteLb0EaEvRK29SerializationCommandArgumentsR31RuntimeSerializationCommandInfo
sV:__ZN11UnityEngine15CloudWebService14DataDispatcher34OnSessionContainerArchivedAndReadyERNS0_16SessionContainerE
TWe:_NumberFormatInfo_GetFormat_m3247563525
MZf:_CipherSuiteCollection__ctor_m2154226461
uLb:__Z18Transfer_BlittableI19StreamedBinaryWriteILb0EELb0E8Vector3fEvRK29SerializationCommandArgumentsR31RuntimeSerializationCommandInfo
dlh:_RectOffset__ctor_m2227510254
DSb:__ZN14SafeBinaryRead19TransferSTLStyleMapINSt3__23mapIN4core12basic_stringIcNS3_20StringStorageDefaultIcEEEEiNS1_4lessIS7_EENS1_9allocatorINS1_4pairIKS7_iEEEEEEEEvRT_17TransferMetaFlags
SBc:_gray_move_to
Vqg:_DSAParameters_t1872138834_marshal_pinvoke
P1i:_ConstructionCall_InitDictionary_m4046452035
Tdd:__ZN6il2cpp2vm10Reflection14GetEventObjectEP11Il2CppClassPK9EventInfo
d$f:_TlsStream_Write_m2271546135
X8b:__Z30RegisterValidateMethodCallbackiPF18ScriptingMethodPtrS_17ScriptingClassPtrP6ObjectEPKc
SCe:_CultureInfo_ConstructInternalLocaleFromCurrentLocale_m1342751405
Jsg:_Latin1Encoding_GetString_m3553289597
oDc:_tt_cmap_init
Ja:invoke_viidi
Kpd:__ZN15dense_hashtableI10KeyWrapperIP18Il2CppGenericClassES3_N6il2cpp8metadata22Il2CppGenericClassHashEN14dense_hash_setIS3_S6_NS3_14EqualsComparerINS5_25Il2CppGenericClassCompareEEENSt3__29allocatorIS3_EEE8IdentityESA_SD_E12maybe_shrinkEv
R_b:__ZN9TextAssetC2E18MemLabelIdentifier18ObjectCreationMode
HVi:_Display_RecreateDisplayList_m3412638488
M$j:_emscripten_glCheckFramebufferStatus__wrapper
Bid:__ZNK15dense_hashtableINSt3__24pairIK10KeyWrapperIP11Il2CppClassES4_EES5_N6il2cpp8metadata16SZArrayClassHashEN14dense_hash_mapIS5_S4_SA_NS5_14EqualsComparerINS9_19SZArrayClassCompareEEENS0_9allocatorIS7_EEE9SelectKeyESE_SG_E12test_deletedEj
Itc:__Z18Transfer_BlittableI8JSONReadLb0EdEvRK29SerializationCommandArgumentsR31RuntimeSerializationCommandInfo
c0g:__Z83RuntimeInvoker_Boolean_t3825574718_NavigationU26_t3929175072_Navigation_t1571958496PFvvEPK10MethodInfoPvPS4_
owg:_Thread_ClrState_m822263449
zcf:_SimpleCollator_LastIndexOfOrdinalIgnoreCase_m550798345
Eph:_GUIStyle_INTERNAL_CALL_Internal_GetCursorStringIndex_m3074318281
NAa:__ZNK9GfxDevice13GetViewMatrixEv
Wsa:__ZN17RemapPPtrTransferC2E24TransferInstructionFlagsb
s5:__ZN8TypeTree8BlobReadERPKhS1_ib
FHh:_Dictionary_2_System_Collections_Generic_ICollectionU3CSystem_Collections_Generic_KeyValuePairU3CTKeyU2CTValueU3EU3E_Remove_m3080541539_gshared
fta:__ZN18LoadSceneOperation23GetAllowSceneActivationEv
Bjb:__ZN6CameraD0Ev
_df:_ModulusRing_Multiply_m386339435
xba:__ZN31CanvasBatchIntermediateRenderer16StaticInitializeEPv
R4d:_GraphicRaycaster_U3CRaycastU3Em__0_m3971200721
iPf:_ReadOnlyCollection_1_System_Collections_IList_RemoveAt_m3004588099_gshared
yw:__ZN7mecanim12AndValueMaskILb0EEEvPKNS_14ValueArrayMaskEPS1_
mre:_Decimal_op_Implicit_m4246329390
Glf:_ArgumentNullException__ctor_m2252076819
j9a:__ZN10GameObjectC2E18MemLabelIdentifier18ObjectCreationMode
UAc:_raccess_guess_apple_double
t6f:_ListDictionary_GetEnumerator_m1511032609
Lmg:_SerializationInfo__ctor_m4016423422
cDd:__ZN6il2cpp2os12Cryptography24OpenCryptographyProviderEv
s1b:__ZN14Texture2DArray13RebuildMipMapEv
d_c:__ZN13Il2CppHashSetIPK17Il2CppGenericInstN6il2cpp8metadata21Il2CppGenericInstHashENS4_24Il2CppGenericInstCompareENSt3__29allocatorI10KeyWrapperIS2_EEEEC2EjRKS5_RKS6_
sFb:__Z18Transfer_BlittableI14SafeBinaryReadLb1EaEvRK29SerializationCommandArgumentsR31RuntimeSerializationCommandInfo
uud:__ZN6il2cpp2gc16GarbageCollector14RemoveWeakLinkEPPv
FWb:__ZN9ShaderLab20SerializedSubProgram14AddVectorParamEPKcii15ShaderParamTypei
RRf:_ReadOnlyCollection_1_System_Collections_IEnumerable_GetEnumerator_m1734360860_gshared
wYi:_ResourceSet_ReadResources_m1669023823
Pjf:_PKCS12_RemoveCertificate_m1590055870
njd:__ZN6il2cpp2vm6Thread7SetNameEP12Il2CppThreadP12Il2CppString
zga:__ZN13ScreenManager18SetAllowCursorLockEb
MW:__ZN11UnityEngine15CloudWebService10RestClientINS0_23WebRequestRestHeaderMapEE16SetRequestHeaderERKN4core12basic_stringIcNS4_20StringStorageDefaultIcEEEESA_
dBb:__ZN30RuntimeInitializeOnLoadManager15ClassMethodInfo8TransferI14SafeBinaryReadEEvRT_
Pvi:__ZL73CanvasScaler_t2574720772_CustomAttributesCacheGenerator_m_ScreenMatchModeP21CustomAttributesCache
kT:__ZL22InitializeModule_Audiov
veb:__ZN16MemoryFileSystem8IsLockedERK13FileEntryData
Euj:_Vector2_get_Item_m2792130561_AdjustorThunk
Egh:_MonoCMethod_Invoke_m931478014
rGg:__Z86RuntimeInvoker_Int32_t2071877448_Int16_t4041245914_Int32_t2071877448_Int32_t2071877448PFvvEPK10MethodInfoPvPS4_
DYi:_SatelliteContractVersionAttribute__ctor_m2605651717
Yk:_emscripten_glBindRenderbuffer
Ymc:__Z32GUIStyle_Set_Custom_PropClippingP12Il2CppObjecti
EAd:_GC_dirty_init
Fce:_Array_Copy_m1969461849
Uod:__ZN6il2cpp2vm5Image33GetCachedMemoryMappedResourceFileEP24Il2CppReflectionAssembly
hrd:__ZN6il2cpp2vm5Field14GetValueObjectEP9FieldInfoP12Il2CppObject
zOc:__ZNK2UI6Canvas16GetTargetDisplayEv
aBe:_Environment_get_OSVersion_m1247315981
g9:__ZN6Object17FindObjectsOfTypeEPKN5Unity4TypeER13dynamic_arrayIPS_Lj4EEb
cCb:__ZN13MonoBehaviour17RemoveFromManagerEv
akb:__ZN12ImageFilters14AddImageFilterERK11ImageFilter
Gsb:__ZL11DecodeValuePPKcS0_
ZCh:_ShimEnumerator_MoveNext_m2013866013_gshared
c_:__ZN13MemoryManagerC2Ev
MLa:__ZN12SkinMeshInfo10DeallocateEPS_
Ltj:_Transform_SetParent_m1963830867
eMi:_AnimatorControllerPlayable_GetAnimatorClipInfoCountInternal_m2158191784
pTa:__ZN20ArchiveStorageReader28AcquireAndPrefillUnusedBlockEjPNS_11CacheResultE
l1b:__Z12NHxRoughnessIA4_tEvP9Texture2DPT_iiii
H9:__ZN18AsyncUploadManagerD2Ev
tYb:__ZN9Transform5ResetEv
fLb:__Z22TransferField_NonArrayI24GenerateTypeTreeTransfer16Converter_StringEvRK23StaticTransferFieldInfoR31RuntimeSerializationCommandInfoRT0_
fDc:_UNITY_FT_CMap_New
pga:__Z17MainLoopKeepalivePv
tgj:_MatchCollection__ctor_m1944681790
hHd:_HMACSHA512__ctor_m1667460019
f6a:__Z24ScheduleCullingAllGroupsR8JobFenceRK22SceneCullingParameters4PPtrI6CameraERK13CullingOutputRK13dynamic_arrayIP12CullingGroupLj4EERKS_
HMj:_printf_core
r5a:__Z14CalcHullBoundsPK8Vector3fPKhhRK5PlaneRK10Matrix4x4fR10MinMaxAABB
dkg:_RealProxy__ctor_m2147093603
vQ:__ZNK14SoundHandleAPI12GetFrequencyEv
e_a:__Z19SetupLODFadeKeywordR17ShaderPassContexti
fLa:__ZL25CheckCopyTextureArgumentsRK7ApiGLESP11GLESTextureS3_
A9:__ZN13dynamic_arrayI26EnlightenSystemInformationLj8EE6insertEPS0_PKS0_S4_
LCc:_tt_name_entry_ascii_from_utf16
O9e:_MulticastNotSupportedException__ctor_m2164514827
hue:_DateTime_System_IConvertible_ToChar_m2489529194_AdjustorThunk
KKb:__Z29Transfer_Blittable_ArrayFieldI24GenerateTypeTreeTransferyEvRT_R9ArrayInfoRK23StaticTransferFieldInfo
ML:__ZN4FMOD7SystemI9playSoundE17FMOD_CHANNELINDEXPNS_5SoundEbPPNS_7ChannelE
hPi:_AttributeHelperEngine_GetRequiredComponents_m120894667
HZ:__GLOBAL__sub_I_runtime_graphics_mesh2_lump_cpp
Uzh:_RectTransformUtility_PixelAdjustRect_m93024038
xw:__ZN27AnimationLayerMixerPlayable17LayerMixerProcessEP35AnimationPlayableEvaluationConstantP32AnimationPlayableEvaluationInputP33AnimationPlayableEvaluationOutputM17AnimationPlayableFvS1_S3_S5_EMS_FvS1_S3_S5_ESA_MS_FvS5_S1_S3_S5_ifE
M8c:__ZN6il2cpp2os4File4ReadEPNS0_10FileHandleEPciPi
oK:__ZN12AudioManager23VirtualRedirectTransferER18StreamedBinaryReadILb0EE
aPj:_realloc
$ic:__Z57Register_UnityEngine_Transform_INTERNAL_get_localRotationv
Qyg:_Type_get_IsInterface_m3583817465
_Sj:dynCall_viif
ohh:_MonoField_get_DeclaringType_m1591666235
Jgg:_Enumerator_MoveNext_m4234629003
yIb:__ZL26Transfer_SimpleNativeClassI17RemapPPtrTransfer8GradientLb0EEvRK29SerializationCommandArgumentsR31RuntimeSerializationCommandInfo
J4c:__ZN6il2cpp6icalls8mscorlib6System8MonoType14get_attributesEP20Il2CppReflectionType
L8e:_MonoType_GetDefaultConstructor_m925465120
Czg:_Type_IsArrayImpl_m3073208555
uX:__ZN13UploadHandlerD2Ev
qRj:dynCall_viiiiiffi
Hc:_emscripten_glBlendFuncSeparate
Q1:__Z20scripting_string_newPKc
whc:__Z43Material_CUSTOM_Internal_CreateWithMaterialP12Il2CppObjectS0_
s1e:_Directory_GetCurrentDirectory_m44486537
dod:__ZNK24NamespaceAndNamePairHashclERKNSt3__24pairIPKcS3_EE
QCf:_Collection_1_System_Collections_ICollection_CopyTo_m1047946700_gshared
kag:_AsnEncodedData_Default_m4197142414
GB:__ZNSt3__26__sortIRPFbPKN8Animator11AnimatorJobES4_EPS4_EEvT0_S9_T_
EJ:__ZN17AudioCustomFilterD2Ev
UH:__Z91Register_UnityEngine_Animations_AnimatorControllerPlayable_INTERNAL_CALL_ResetTriggerStringv
Blc:__ZNK8GUIStyle13GetLineHeightEv
pKa:__ZN18GfxFramebufferGLES18ReleaseFramebufferEP17RenderSurfaceBaseP14GfxContextGLES
Y$i:_Context_GetDynamicPropertyCollection_m1987747444
xbg:_X509Certificate2_get_Version_m1927399907
j3b:__ZN13ProduceHelperI6CameraLb0EE7ProduceE18MemLabelIdentifier18ObjectCreationMode
x6d:_Image_RadialCut_m3229543088
SY:__ZN19CloudServiceHandler34HandleSaveFileWebRequestPlayerLoopEv
Ox:__ZN7mecanim21ValueArrayReverseCopyEPKNS_18ValueArrayConstantEPKNS_10ValueArrayES2_PS3_PKi
pJ:__Z31GetParentSampleClipFromInstancePN11SoundHandle8InstanceE
s$b:__ZNK28RectTransformPropertyBinding13GetFloatValueERKN11UnityEngine9Animation10BoundCurveE
h8a:__ZN6Camera22StandaloneCustomRenderENS_10RenderFlagEP6ShaderRKN4core12basic_stringIcNS3_20StringStorageDefaultIcEEEEPNS_21PerformRenderFunctionE
rFd:__ZN6il2cpp2os16ThreadLocalValue8GetValueEPPv
q2c:__ZN6il2cpp2vm13MetadataCache14GetGenericInstEPKPK10Il2CppTypej
HKd:_SHA384Managed_Initialize_m712692291
y_i:_ChannelInfo__ctor_m2502026239
hd:_glUniform1uiv
rjc:__Z52Object_CUSTOM_GetOffsetOfInstanceIDInCPlusPlusObjectv
mp:setThrew
d1b:__ZL21BuildEmptyCubeTexturePKci11ColorRGBA3217TextureColorSpace
GSb:__ZN14SafeBinaryRead21TransferSTLStyleArrayINSt3__26vectorIN9ShaderLab20SerializedSubProgramENS1_9allocatorIS4_EEEEEEvRT_17TransferMetaFlags
Psc:__Z15Transfer_StringI8JSONReadLb1EEvRK29SerializationCommandArgumentsR31RuntimeSerializationCommandInfo
xqa:__ZN6prcoreL17RemapGenericFloatI17TexFormatRGBFloat15TexFormatRGHalfEEvPKNS_9InnerInfoE
w$a:__Z25DoForwardShaderRenderLoopR17RenderLoopContextR13dynamic_arrayI16RenderObjectDataLj4EERK11CullResultsbbbN6Camera10RenderFlagE
qTe:_GameObject_GetComponent_TisRuntimeObject_m2812611596_gshared
jCc:_sfnt_load_face
Yif:_PKCS12_GetSymmetricAlgorithm_m1812022677
Dug:_UTF8Encoding_GetByteCount_m2372933408
V$i:_Context_get_NeedsContextSink_m1907794755
aCc:_UNITY_ft_service_list_lookup
zWf:_ARC4Managed_GenerateKey_m716135508
elc:__ZN5IMGUI21SelectReceivingWindowER8GUIStateb
$E:__ZNK26AnimatorControllerPlayable17ValidateGoToStateERiS0_
vaj:_InternalEnumerator_1_get_Current_m3179981210_gshared
Nfb:__ZN13BaseAllocator13TryDeallocateEPv
pce:_Array_CreateInstance_m1054139389
cnh:_GUIStyleState_GetGUIStyleState_m2816150617
jkb:__ZNSt3__26vectorIN12FlareManager10FlareEntryENS_9allocatorIS2_EEE21__push_back_slow_pathIKS2_EEvRT_
Q8g:_Default_check_arguments_with_score_m1714931543
jGd:_SHA1_Create_m4086509717
Zhh:_MonoMethodInfo_GetMethodInfo_m3298558752
$J:__ZN13AudioListener17RemoveFromManagerEv
Bd:_glAttachShader
D2d:_Dropdown_SetAlpha_m2769981009
_Ya:__ZNK6Camera19GetProjectionMatrixEv
DLj:_Predicate_1_BeginInvoke_m1856151290_gshared
Uye:_StackTrace__ctor_m2404985356
G3:__Z38PreallocateObjectFromPersistentManagerib
vue:_DateTime_System_IConvertible_ToSingle_m3927769066
JZ:__GLOBAL__sub_I_runtime_interfaces_lump_cpp
Kob:__ZNK9Texture2D20GetUnscaledTextureIDEv
Gse:_Convert_ToSByte_m883113940
PYj:_glFenceSync__wrapper
xBe:_Exception_get_Message_m173095527
XH:__Z103Register_UnityEngine_Animations_AnimatorControllerPlayable_INTERNAL_CALL_IsParameterControlledByCurveIDv
fCf:_Queue_1_Peek_m1463479953_gshared
OPi:_AudioClipPlayable_INTERNAL_CALL_GetStartDelayInternal_m3715907549
mti:__ZL53InputField_t1631627530_CustomAttributesCacheGeneratorP21CustomAttributesCache
c_d:_ButtonClickedEvent__ctor_m938038541
sRb:__ZN18StreamedBinaryReadILb0EE21TransferSTLStyleArrayI13dynamic_arrayI4AABBLj4EEEEvRT_17TransferMetaFlags
xNg:__Z119RuntimeInvoker_Int32_t2071877448_RuntimeObject_Int32_t2071877448_Int32_t2071877448_CharU26_t1894467670_SByte_t454417549PFvvEPK10MethodInfoPvPS4_
rAg:_UInt16_System_IConvertible_ToDouble_m4100549304_AdjustorThunk
Jta:__Z29ClearRepeatingLogMessageStatev
lPd:_Single_System_IConvertible_ToInt16_m962677079
W8:__ZN21EnlightenSceneMappingaSERKS_
w5e:_StreamWriter__cctor_m1332667003
zPd:_Single_System_IConvertible_ToUInt32_m2447833283
ePa:__ZN7ApiGLESD2Ev
U9a:__ZN9Transform47ClearTransformHierarchyAndApplyToSerializedDataEv
S8i:_InternalEnumerator_1_get_Current_m4083613828_AdjustorThunk
ERi:_Bounds_op_Equality_m2161830280
Fdb:__ZN17PersistentManager9AddStreamEv
rTj:dynCall_fidi
Yad:__ZN15dense_hashtableINSt3__24pairIK10KeyWrapperINS1_IPK9FieldInfoP11Il2CppClassEEEjEES9_17ReflectionMapHashIS8_EN14dense_hash_mapIS9_jSD_NS9_14EqualsComparerINS0_8equal_toIS8_EEEENS0_9allocatorISB_EEE9SelectKeyESI_SK_E12resize_deltaEjj
Xnc:__Z47Register_UnityEngine_GUIStyle_set_imagePositionv
ync:__Z49GUIStyle_CUSTOM_INTERNAL_CALL_Internal_DrawCursor13Il2Cpp_IntPtrRK5RectTIfEP12Il2CppObjectiRK10ColorRGBAf
ezh:_RectTransform_set_anchorMin_m4247668187
S8b:__ZNK13MonoBehaviour13GetScriptTypeEv
ria:__ZN13RenderTexture12SetDimensionE16TextureDimension
gqj:_ScriptableObject_CreateInstance_m3921674852
$Wf:_MD4Managed__ctor_m796835377
qe:_SDL_FreeRW
nhf:_PKCS1_OS2IP_m1273945439
hKd:_SHA1Internal_FillBuff_m891541953
SPc:__Z34CanvasRenderer_Get_Custom_PropCullP12Il2CppObject
BP:__ZN20SoundChannelInstance8getDelayE14FMOD_DELAYTYPEPjS1_
C7d:_InputField_set_customCaretColor_m3534590098
UBi:_ScrollRect_set_viewport_m323693490
pVe:_NumberFormatter_FormatExponential_m3975285307
yxc:__ZNSt3__26vectorIN20TextRenderingPrivate8FontImpl13CharacterInfoE13stl_allocatorIS3_L18MemLabelIdentifier1ELi16EEE8__appendEj
v:tempBigInt
ye:_emscripten_glVertexAttrib1fv
kTb:__ZNSt3__26vectorIN9ShaderLab20SerializedSubProgram12UAVParameterENS_9allocatorIS3_EEE7reserveEj
nWg:__Z116RuntimeInvoker_Void_t1841601450_PlayableHandleU26_t4210769902_Int32_t2071877448_Int32_t2071877448_Single_t2076509932PFvvEPK10MethodInfoPvPS4_
E6f:_NameObjectCollectionBase__ctor_m2433753948
gHi:_AnimationCurve_Init_m1486386337
mUi:_Component_GetComponents_m3712441745
c2h:__ZL99Thread_t241561612_CustomAttributesCacheGenerator_Thread_t241561612____ExecutionContext_PropertyInfoP21CustomAttributesCache
Qyj:_UnityAction_4_Invoke_m3312096275_gshared
Lzh:_RectTransformUtility_ScreenPointToRay_m1842507230
v7a:__ZN16ReflectionProbes16UpdateSampleDataEv
gEb:__ZN14SafeBinaryRead21TransferSTLStyleArrayI10vector_setI4PPtrI10MonoScriptENSt3__24lessIS4_EE13stl_allocatorIS4_L18MemLabelIdentifier76ELi16EEEEEvRT_17TransferMetaFlags
RZi:_SafeHandle_Finalize_m1839546519
uuc:__ZN8JSONRead21TransferSTLStyleArrayINSt3__26vectorI10RectOffset13stl_allocatorIS3_L18MemLabelIdentifier1ELi16EEEEEEvRT_S5_17TransferMetaFlags
E0i:_Context_AllocateNamedDataSlot_m3200404053
vag:_X509EnhancedKeyUsageExtension_Decode_m3866320499
lVe:_NumberFormatter_AppendIntegerStringWithGroupSeparator_m1401773574
j9c:__ZNK6il2cpp2vm14TypeNameParser10NextWillBeEcb
Ve:_JS_Sound_Play
M6d:_Image_IsRaycastLocationValid_m864962354
GJg:__Z181RuntimeInvoker_Void_t1841601450_RuntimeObject_Int32_t2071877448_Int32_t2071877448_RuntimeObject_Int32_t2071877448_Int32_t2071877448_RuntimeObject_Int32_t2071877448_Int32_t2071877448PFvvEPK10MethodInfoPvPS4_
hSb:__ZN9ShaderLab16SerializedShader8TransferI14SafeBinaryReadEEvRT_
_A:__ZN7mecanim8skeleton13SkeletonAlignEPKNS0_8SkeletonERKN4math7_float4ES7_i
Y1b:__ZN19ShaderPropertySheet16SetVectorIndexedEN9ShaderLab16FastPropertyNameEifRK8Vector4fNS_8SetFlagsE
Fq:__ZN14SafeBinaryRead21TransferSTLStyleArrayIN4core12basic_stringIcNS1_20StringStorageDefaultIcEEEEEEvRT_17TransferMetaFlags
zkg:_RemotingConfiguration_RegisterWellKnownServiceType_m2491506630
OYh:__ZL55_TypeBuilder_t2783404358_CustomAttributesCacheGeneratorP21CustomAttributesCache
Vae:_LayoutRebuilder_Initialize_m2671585490
gvf:_List_1_System_Collections_IList_IndexOf_m4061554721_gshared
zY:__ZN11UnityEngine15CloudWebService14DataDispatcher4StopEv
DIi:_AnimationLayerMixerPlayable_SetLayerAdditive_m4206337590_AdjustorThunk
mTb:__ZNSt3__26vectorIN9ShaderLab20SerializedSubProgram12UAVParameterENS_9allocatorIS3_EEE8__appendEj
Xkc:__ZN5IMGUI9GUIWindow5OnGUIER8GUIState
PEh:_Enumerator_get_Current_m2986380627_gshared
bla:__ZN17ScriptingGCHandle7AcquireE18ScriptingObjectPtr25ScriptingGCHandleWeakness
F$i:_LifetimeServices_set_LeaseTime_m1487876644
aah:_ConstructorBuilder_not_supported_m3687319507
wT:__ZN19AudioPlayableOutputC2EjP13PlayableGraph
qPd:_Single_System_IConvertible_ToInt64_m3555853323_AdjustorThunk
hSj:dynCall_iifiii
nva:__Z21HasAlphaTextureFormat13TextureFormat
tS:__ZN12AudioManager6UpdateEv
iva:__ZN14ImageReference9BlitImageERKS_NS_8BlitModeE
zs:__ZN8Animator12AddToManagerEv
_Cb:__ZN23CachedSerializationDataD2Ev
$6a:__ZNK25CameraStackRenderingState31CalculateStereoCameraTargetTypeEv
ymb:__ZN14RenderSettings23VirtualRedirectTransferER14SafeBinaryRead
ttd:__ZN6il2cpp2os10ThreadImpl15CurrentThreadIdEv
vEe:_Array_InternalArray__ICollection_Contains_TisColor32_t874517518_m2818328910_gshared
z5d:_LayoutGroup_SetChildAlongAxis_m1615929339
oKc:_UNITY_tt_face_load_fpgm
Lxb:__ZN12InputManagerD0Ev
CDd:__ZN6il2cpp6icalls8mscorlib6System11Diagnostics10StackTrace9get_traceEP15Il2CppExceptionib
X0d:_DefaultControls_CreateUIObject_m2810394112
Poh:_GUIStyle_get_overflow_m1125058093
ytg:_UnicodeEncoding_GetBytes_m1337660232
_Pb:__Z18Transfer_BlittableI18StreamedBinaryReadILb0EELb1EtEvRK29SerializationCommandArgumentsR31RuntimeSerializationCommandInfo
fPj:_posix_memalign
m2b:__ZN13ProduceHelperI12MeshRendererLb0EE7ProduceE18MemLabelIdentifier18ObjectCreationMode
Sdj:_InternalEnumerator_1_get_Current_m747506907_AdjustorThunk
QRi:_Camera_get_eventMask_m4241372419
L4:__ZNK15MonoScriptCache7ReleaseEv
TYc:__ZN6il2cpp2vm5Class13HasReferencesEP11Il2CppClass
ig:_glBindTexture
vNj:_snprintf
j8d:_InputField_set_caretPosition_m888572237
rdh:_ILGenerator__cctor_m3943061018
qje:_ArrayListWrapper_Clone_m1506311066
nWi:_Event_get_character_m3740896233
usa:__Z36scripting_liveness_calculation_begin17ScriptingClassPtriPFvPP12Il2CppObjectiPvES3_PFvvES7_
aNa:__ZN16UniformCacheGLES6CreateERK20GpuProgramParameters
Mug:_UTF8Encoding_Fallback_m811555654
zCg:_UInt64_CompareTo_m3513742483
RJe:_Array_InternalArray__IndexOf_TisPlayableBinding_t2498078091_m398853908_gshared
nsg:_Encoding_GetString_m1894033578
HPf:_ReadOnlyCollection_1_System_Collections_IList_Clear_m1918003010_gshared
eWj:_emscripten_glGetProgramInfoLog__wrapper
DD:__ZN25AnimatedPropertyEvaluator29BindCurveToScriptingObjectPtrERKN13AnimationClip10FloatCurveEj18ScriptingObjectPtrb
Qug:_UTF8Encoding_InternalGetChars_m373801468
B6:__ZN17PersistentManager23DestroyFromFileInternalEi
Rwe:_Decimal_System_IConvertible_ToChar_m2425091200_AdjustorThunk
I$a:__Z19SetupMotionMatricesR6CameraR18RPDataMotionVector
UAe:_Enum_ToString_m2112979707
$rj:_TextGenerator_ValidatedSettings_m1640214759
iig:_MonoMethodMessage_get_MethodName_m3580519713
nC:__ZN26AnimatorControllerPlayable18PrepareForPlaybackERN7mecanim6memory9AllocatorE
IIe:_Array_FindLastIndex_TisRuntimeObject_m986818300_gshared
Hug:_UTF8Encoding_GetBytes_m4170182058
Xla:__ZN22CreateGpuProgramOutputC2Ev
K3e:_MemoryStream_InternalConstructor_m2423667240
djg:_SoapMethodAttribute_SetReflectionObject_m3431595769
uEi:_Slider_set_maxValue_m2951480075
OYc:__ZN6il2cpp2vmL17SetupGCDescriptorEP11Il2CppClass
x9d:_InputField_OnSubmit_m2856515494
ga:invoke_vidi
ZNc:__ZN2UI14CanvasRenderer17SyncDirtyElementsER8JobFence
O$d:_ColorBlock_op_Inequality_m1517672458
Awd:__ZN6il2cpp5utils11StringUtils15StringDuplicateEPKc
_8a:__Z15CanAddComponentR10GameObjectPKN5Unity4TypeE
ola:__ZNK9ShaderLab21ShaderRasterStateDesc16ToGfxRasterStateEPK19ShaderPropertySheetS3_R14GfxRasterState
J7d:_InputField_set_onValueChange_m1749304609
aqg:_CspParameters__ctor_m2480441577
yFd:__ZN6il2cpp2os9EventImplC2Ebb
f0i:_DynamicPropertyCollection_NotifyMessage_m840388347
alj:_Uri_ParseUri_m5711497
OSg:__Z98RuntimeInvoker_RuntimeObject_RuntimeObject_RayU26_t3651946800_Single_t2076509932_Int32_t2071877448PFvvEPK10MethodInfoPvPS4_
B$:__Z20IsMatrixBuiltinParamPKcPi
oGf:_Collection_1_CheckWritable_m2467777750_gshared
F1b:__ZN8Renderer19PostInitializeClassEv
a4i:_InternalEnumerator_1_get_Current_m1943362081_AdjustorThunk
xvj:_Vector3_get_sqrMagnitude_m1814096310_AdjustorThunk
OBd:__ZN6il2cpp6icalls8mscorlib6System8Delegate23CreateDelegate_internalEP20Il2CppReflectionTypeP12Il2CppObjectP22Il2CppReflectionMethodb
K8g:_Default_check_type_m2363631305
oCb:__ZN18DelayedCallManager18CancelCallDelayed2E4PPtrI6ObjectEPF15CallObjectStatePS1_PvES7_
Sfb:__ZN25ThreadsafeLinearAllocator10ReallocateEPvji
NEb:__Z18Transfer_BlittableI14SafeBinaryReadLb1E11QuaternionfEvRK29SerializationCommandArgumentsR31RuntimeSerializationCommandInfo
nda:__ZN18SpriteAtlasManagerD0Ev
TJe:_Array_InternalArray__IndexOf_TisRaycastHit2D_t4063908774_m3739817942_gshared
xih:_MonoProperty_GetAccessors_m3704698731
pBd:_GC_disable
wvb:__ZN10Matrix4x4f8TransferI14SafeBinaryReadEEvRT_
$6e:_UnmanagedMemoryStream_ReadByte_m2501145010
Afd:__ZN14dense_hash_mapI10KeyWrapperIPK22Il2CppGenericParameterEPK24MonoGenericParameterInfoN6il2cpp5utils11PointerHashIS2_EENS4_14EqualsComparerINSt3__28equal_toIS3_EEEENSD_9allocatorINSD_4pairIKS4_S7_EEEEE15set_deleted_keyERSJ_
U6:__Z6AppendRKN4core12basic_stringIcNS_20StringStorageDefaultIcEEEEPKc
kNb:__Z18Transfer_BlittableI18StreamedBinaryReadILb1EELb0E8Vector3fEvRK29SerializationCommandArgumentsR31RuntimeSerializationCommandInfo
NSg:__Z81RuntimeInvoker_RuntimeObject_Ray_t2469606224_Single_t2076509932_Int32_t2071877448PFvvEPK10MethodInfoPvPS4_
cGa:__ZN7ApiGLES18ClearBufferSubDataEjN2gl12BufferTargetEll
dcc:__Z37Camera_Get_Custom_PropAllCamerasCountv
Jub:__ZN14Texture2DArray8TransferI18StreamedBinaryReadILb0EEEEvRT_
xjd:__ZN6il2cpp6icalls8mscorlib6System5Array9GetLengthEP11Il2CppArrayi
a4a:__Z18ApplyOcclusionMaskR19ProbeOcclusionCacheRK17LightProbeContextRK10RenderNodeb
c3e:_FileStreamAsyncResult__ctor_m1096228032
REc:_Split_Cubic
gb:invoke_fiiii
rwe:_DBNull_System_IConvertible_ToSByte_m1228193074
VEf:_Collection_1__ctor_m2818834331_gshared
cTe:_Array_InternalArray__get_Item_TisUICharInfo_t3056636800_m3872982785_gshared
gRg:__Z68RuntimeInvoker_UInt16_t986882611_UInt16_t986882611_UInt16_t986882611PFvvEPK10MethodInfoPvPS4_
Sxf:_List_1__ctor_m2168280176_gshared
zLi:_AnimatorControllerPlayable_INTERNAL_CALL_GetLayerIndexInternal_m2875146206
vtd:__ZN6il2cpp2os10ThreadImpl22CreateForCurrentThreadEv
E2e:_FileStream_FlushBuffer_m2594140542
qoc:__Z64Register_UnityEngine_GUIStyle_GetFontInternalDuringLoadingThreadv
DEc:_ft_black_render
mxd:__ZN6il2cpp2vm8Profiler12GCHeapResizeEx
xTj:dynCall_viiifi
TJa:__ZN18GfxFramebufferGLES20ActiveContextChangedEPP17RenderSurfaceBaseS2_
PJa:__Z19PluginsRenderMarkeri
cE:__ZN10HumanTrait18InitializeBoneNameEv
Zod:__ZNSt3__214__split_bufferIN6il2cpp2vm5Image20EmbeddedResourceDataERNS_9allocatorIS4_EEEC2EjjS7_
B5d:_HorizontalOrVerticalLayoutGroup_get_spacing_m2859152439
ZXh:__ZL57DispIdAttribute_t607560947_CustomAttributesCacheGeneratorP21CustomAttributesCache
NJ:__ZN12AudioManager17RemoveAudioSourceEP11AudioSource
OXj:_emscripten_glBindProgramARB__wrapper
WUi:_CullingGroup_Finalize_m3172731580
Psh:_Matrix4x4__cctor_m3092679229
TSe:_Array_InternalArray__get_Item_TisUInt64_t2909196914_m2580870875_gshared
$ug:_UTF8Decoder_GetChars_m3819660582
tU:__ZN5physx14PxLightCpuTask12addReferenceEv
Lqb:__ZN21EnlightenSceneMapping8TransferI19StreamedBinaryWriteILb0EEEEvRT_
yqd:__ZN6il2cpp2gc16GarbageCollector19InitializeFinalizerEv
Qx:__ZN7mecanim8skeleton18CreateSkeletonMaskEjPKNS0_19SkeletonMaskElementERNS_6memory9AllocatorE
Kkc:__ZN10GUIManager10DoGUIEventER10InputEventb
MJb:__Z35Transfer_Blittable_FixedBufferFieldI24GenerateTypeTreeTransferxEvRK29SerializationCommandArgumentsR31RuntimeSerializationCommandInfo
C0:__Z20CalculateSqrDistanceRK8Vector3fRK4AABB
DN:__Z32AudioMixerDuckingProcessCallbackP21UnityAudioEffectStatePfS1_jii
x9g:_CustomAttributeTypedArgument_GetHashCode_m999147081_AdjustorThunk
I0b:__ZN26CustomRenderTextureManagerD2Ev
Dec:__Z32Input_Get_Custom_PropInputStringv
N2e:_FileStream_Read_m3880951166
tK:__ZN12AudioManager8TransferI24GenerateTypeTreeTransferEEvRT_
Yoa:__Z25GetBytesFromTextureFormat13TextureFormat
mPi:_AudioClipPlayable__ctor_m1273139759
wD:__ZN16MecanimAnimation25RegisterIAnimationBindingEPKN5Unity4TypeEiP17IAnimationBinding
H4:__Z32scripting_class_get_assemblyname17ScriptingClassPtr
DSc:__ZN11UnityEngine15PlatformWrapper15GetVRDeviceNameEv
cHh:_Dictionary_2_Resize_m2532139610_gshared
prj:_StackTraceUtility__cctor_m1132099289
Wxg:_TimeSpan_Equals_m2029123271_AdjustorThunk
P2c:__ZN6il2cpp2vm13MetadataCache23GetInvokerMethodPointerEPK10MethodInfoPK20Il2CppGenericContext
iOa:__ZN9GfxDevice21RegisterNativeTextureE9TextureIDi16TextureDimension
OCe:_CultureInfo__ctor_m456863818
RCd:__ZN6il2cpp6icalls8mscorlib6System10Reflection4Emit11TypeBuilder20create_generic_classEP27Il2CppReflectionTypeBuilder
zof:_Enumerator_MoveNext_m2504790928_gshared
snh:_GUISkin_set_button_m412653849
Yi:_emscripten_glUniformMatrix4fv
Dhd:__ZN15dense_hashtableINSt3__24pairIK10KeyWrapperINS1_IP11Il2CppClassjEEES4_EES6_N6il2cpp8metadata14ArrayClassHashEN14dense_hash_mapIS6_S4_SB_NS6_14EqualsComparerINSA_17ArrayClassCompareEEENS0_9allocatorIS8_EEE9SelectKeyESF_SH_E13set_empty_keyERKS8_
fXb:__ZN12ScriptMapperD2Ev
OGd:_KeyedHashAlgorithm_Dispose_m1864300576
hnj:_X509Certificate_PEM_m49854707
DMi:_AnimatorControllerPlayable_GetParameter_m4243058543_AdjustorThunk
yag:_X509BasicConstraintsExtension__ctor_m3320418592
rmj:_ExtendedKeyUsageExtension_Decode_m901297139
tic:__Z52Register_UnityEngine_RenderTexture_Internal_GetWidthv
$zd:_GC_check_leaked
NVb:__ZN9ShaderLab20SerializedSubProgram16TextureParameter8TransferI19StreamedBinaryWriteILb0EEEEvRT_
vNe:_Array_InternalArray__Insert_TisVector4_t2243707581_m1643342708_gshared
lhb:__ZNK7Hash12812PackToUInt32Ev
HY:__ZN11UnityEngine15CloudWebService16SessionContainer8AddEventEPNS0_14CloudEventInfoE
cNa:__Z4TrimRKN4core12basic_stringIcNS_20StringStorageDefaultIcEEEES5_
CFi:_Text_set_resizeTextMaxSize_m4034967714
WSh:__ZL55GuidAttribute_t222072359_CustomAttributesCacheGeneratorP21CustomAttributesCache
Fkh:_GUIStyle_SetDefaultFont_m2095841351
i9g:_CustomAttributeNamedArgument_Equals_m2691468532
etb:__ZN10VertexData8TransferI14SafeBinaryReadEEvRT_
GL:__ZN4FMOD8ChannelI8setDelayE14FMOD_DELAYTYPEjj
toe:_Stack__ctor_m2410583781
VAd:_GC_malloc_atomic
xDd:__ZN6il2cpp5utils6Memory13AlignedMallocEjj
lah:_ConstructorBuilder_GetILGenerator_m1731893569
$od:__ZNSt3__214__split_bufferIN6il2cpp2vm5Image20EmbeddedResourceDataERNS_9allocatorIS4_EEED2Ev
N2:__ZL20SortItemByInstanceIDRKN18AwakeFromLoadQueue4ItemES2_
Reh:_TypeBuilder_create_runtime_class_m2719530260
kJd:_RNGCryptoServiceProvider_RngClose_m2921734810
iy:__ZNK34AnimationStateMachineMixerPlayable26GetInterruptedPosePlayableEv
kUc:__ZN20UnityConnectSettings8TransferI24GenerateTypeTreeTransferEEvRT_
BA:__ZN34BlobWriteTransferSTLStyleArrayImplI22OffsetPtrArrayTransferIbEEclERS1_17TransferMetaFlagsR9BlobWrite
Nbf:_SimpleCollator_IsHalfKana_m4255579023
TCf:_Collection_1_System_Collections_IList_Contains_m3365884450_gshared
WSa:__Z16FlaggedAsSkippedIN4core12basic_stringIcNS0_20StringStorageDefaultIcEEEEEbRK13FileEntryInfoRKT_19FileEnumerationFlag
M8:__ZL31InitializeRendererUpdateManagerPv
APg:__Z106RuntimeInvoker_RuntimeObject_Int16_t4041245914_RuntimeObject_BooleanU26_t3168250738_BooleanU26_t3168250738PFvvEPK10MethodInfoPvPS4_
uKj:_Terminal_Awake_m2961603900
x$f:_ClientSessionInfo_Dispose_m2571428025
Hae:_LayoutGroup_DelayedSetDirty_m4276695617
J2f:_RecordProtocol_decryptRecordFragment_m2510859489
Ayb:__ZN11TimeManager8TransferI19StreamedBinaryWriteILb0EEEEvRT_
t3e:_DelegatePInvokeWrapper_ReadDelegate_t3184826381
QFc:_compare_uni_maps
sSc:__ZN11UnityEngine15PlatformWrapper27GetGraphicsCapsSupportFlagsEv
Ixe:_Decimal_Equals_m1115043331
VMb:__ZN12NativeBufferI16Converter_StringE15SetupForWritingER9ArrayInfo
iVj:___cxa_end_catch__wrapper
bGh:_ValueCollection_System_Collections_Generic_ICollectionU3CTValueU3E_Clear_m231380274_gshared
IVd:_Entry__ctor_m1176697586
I8a:__ZN13MonoBehaviour22DoScriptRebuildWarningEv
fcc:__Z38Camera_CUSTOM_INTERNAL_CALL_RaycastTryP12Il2CppObjectRK3Rayfi
LFi:_Text_get_verticalOverflow_m3134063496
sjd:__ZN6il2cpp6icalls8mscorlib6System5Array13ClearInternalEP11Il2CppArrayii
kZi:_GCHandle_get_Target_m2327042781
UQj:_llvm_cttz_i32
Tag:_PublicKey_DecodeDSA_m1169363495
Slc:__ZN11IMGUIModule25GetGUIStyleScriptingClassEv
OIc:_tt_get_interface
JPe:_Array_Sort_TisRuntimeObject_m143182644_gshared
vkd:__ZN6il2cpp5utils9PathUtils7CombineIcEENSt3__212basic_stringIT_NS3_11char_traitsIS5_EENS3_9allocatorIS5_EEEERKSA_SC_
U6f:_NameObjectCollectionBase_BaseGet_m667273025
rMg:__Z104RuntimeInvoker_RuntimeObject_Byte_t3683104436_RuntimeObject_SByte_t454417549_RuntimeObject_RuntimeObjectPFvvEPK10MethodInfoPvPS4_
Esc:__ZN9JSONWrite8TransferI13dynamic_arrayIiLj4EEEEvRT_PKc17TransferMetaFlags
T1:__Z18ConvertUTF16toUTF8PPKtS0_PPhS2_15ConversionFlags
Rud:__ZN6il2cpp2os20PathErrnoToErrorCodeERKNSt3__212basic_stringIcNS1_11char_traitsIcEENS1_9allocatorIcEEEEi
kzg:_TypeLoadException__ctor_m1903359728
lXc:__ZL16my_g_bit_nth_msfj
lHd:_KeySizes__ctor_m3526899007
UYe:_Int16_System_IConvertible_ToInt32_m191782913_AdjustorThunk
cuj:_SpriteAtlasManager__cctor_m1344469326
Lni:__ZL69ArgumentCache_t4810721_CustomAttributesCacheGenerator_m_FloatArgumentP21CustomAttributesCache
drg:_EncoderReplacementFallback__ctor_m2208438262
TYa:__Z23SetupStereoFlareElementP11FlareVertexRK8Vector2fS3_S3_RK11ColorRGBA32RK10Matrix4x4fRK8Vector3fb
sa:invoke_iiiifiiii
XOf:_ReadOnlyCollection_1_System_Collections_Generic_ICollectionU3CTU3E_Remove_m3751131234_gshared
Ovc:__ZN9rapidjson8internal6u64toaEyPc
D1e:_Directory_GetFiles_m4036267478
_F:__Z64AnimationOffsetPlayable_CUSTOM_INTERNAL_CALL_GetRotationInternalR9HPlayableR11Quaternionf
vKa:__ZL19BlitFramebufferImplRN4gles23BlitFramebufferDrawQuadER9GfxDevice9TextureIDRK8Vector4f
ybd:__ZN15dense_hashtableINSt3__24pairIK10KeyWrapperIPK10Il2CppTypeEjEES6_N6il2cpp8metadata14Il2CppTypeHashEN14dense_hash_mapIS6_jSB_NS6_14EqualsComparerINSA_26Il2CppTypeEqualityComparerEEENS0_9allocatorIS8_EEE9SelectKeyESF_SH_E4findERS7_
uNf:_ReadOnlyCollection_1_System_Collections_IList_Add_m2333231354_gshared
nzc:_UNITY_FT_List_Add
Heh:_OpCodes__cctor_m939885911
jG:__Z87Register_UnityEngine_Animations_AnimationPlayableOutput_INTERNAL_CALL_InternalGetTargetv
kmj:_UriParser_InitializeAndValidate_m251943319
yLd:_SymmetricAlgorithm_set_Padding_m3081984460
jyb:__ZN9InputAxis8TransferI18StreamedBinaryReadILb0EEEEvRT_
Ung:_StreamingContext_t1417235061_marshal_pinvoke_back
Die:_ArrayList_RemoveAt_m2578928333
rFb:__Z18Transfer_BlittableI14SafeBinaryReadLb0EaEvRK29SerializationCommandArgumentsR31RuntimeSerializationCommandInfo
AMf:_ReadOnlyCollection_1_System_Collections_IList_set_Item_m1233322304_gshared
ymj:_GeneralNames_get_DNSNames_m2721668874
gAe:_Enum_System_IConvertible_ToByte_m38374586
iMf:_ReadOnlyCollection_1_System_Collections_Generic_IListU3CTU3E_RemoveAt_m1592158292_gshared
qUj:_emscripten_glFrustum__wrapper
$2f:_ReceiveRecordAsyncResult_get_CompletedWithError_m2670396551
txe:_Decimal_Equals_m1798565377
Y6b:__ZNSt3__26vectorINS_4pairI11ShaderTagIDS2_EENS_9allocatorIS3_EEE6assignIPS3_EENS_9enable_ifIXaasr21__is_forward_iteratorIT_EE5valuesr16is_constructibleIS3_NS_15iterator_traitsISA_E9referenceEEE5valueEvE4typeESA_SA_
xbh:_TypeBuilder_check_created_m2929267877
kQg:__Z121RuntimeInvoker_Int64_t909078037_Int32_t2071877448_Int32_t2071877448_Int32_t2071877448_Int32_t2071877448_Int32_t2071877448PFvvEPK10MethodInfoPvPS4_
LVa:__Z20SyncFenceCullResultsR11CullResults
TLa:__ZN15TextureTFMethod20IsBoneCountSupportedEi
bF:__ZN26AnimatorControllerPlayable9GotoStateEiifff
Inh:_GUISkin_set_horizontalScrollbarThumb_m2119687595
fGe:_PlayableHandle_IsPlayableOfType_TisAudioMixerPlayable_t1831808911_m1065481197_AdjustorThunk
xmb:__ZN14RenderSettings23VirtualRedirectTransferER24GenerateTypeTreeTransfer
uue:_DateTime_System_IConvertible_ToSByte_m2575078084_AdjustorThunk
bJb:__Z22TransferField_NonArrayI17RemapPPtrTransfer27Converter_SimpleNativeClassI8GUIStyleEEvRK23StaticTransferFieldInfoR31RuntimeSerializationCommandInfoRT0_
eOi:_AnimatorStateInfo_IsTag_m1529621725_AdjustorThunk
L$b:__ZNK17AnimationCurveTplIfE20EvaluateWithoutCacheEfRf
Wsd:__ZN6il2cpp2os6Thread12QueueUserAPCEPFvPvES2_
sma:__ZN19ShaderPropertySheet10SetTextureERK23FastTexturePropertyNameP7Texture
tqh:_GUIStyleState__ctor_m3611888666
BFf:_Collection_1_IsValidItem_m1304951912_gshared
y6b:__ZN4Mesh10SetNormalsEPK8Vector3fj
Iqe:_Convert_ToDateTime_m4161927553
Dbh:_TypeBuilder_GetConstructors_m774120094
Er:__ZN17AnimationCurveTplIfE8TransferI14SafeBinaryReadEEvRT_
NBe:_Calendar_get_EraNames_m452820602
osb:__ZNSt3__26vectorIN15QualitySettings14QualitySettingENS_9allocatorIS2_EEE6assignIPS2_EENS_9enable_ifIXaasr21__is_forward_iteratorIT_EE5valuesr16is_constructibleIS2_NS_15iterator_traitsIS9_E9referenceEEE5valueEvE4typeES9_S9_
cXa:__ZNK19ShaderPropertySheet11HasPropertyERKN9ShaderLab16FastPropertyNameE
fue:_DateTime_System_IConvertible_ToByte_m2670443498_AdjustorThunk
WZ:__GLOBAL__sub_I_runtime_utilities4_lump_cpp
rVf:_BigInteger_op_Addition_m1734797151
Itf:_List_1_CheckMatch_m1814522134_gshared
Ybh:_EnumBuilder_CreateNotSupportedException_m62763134
RVc:__ZNK12HeaderHelper3GetERKN4core12basic_stringIcNS0_20StringStorageDefaultIcEEEE
bcg:_X509Chain_CheckRevocation_m2480313486
w7e:_Math_Log_m3371716878
Tkh:_GUILayoutUtility_Layout_m3812180708
ayb:__ZN9InputAxis8TransferI14SafeBinaryReadEEvRT_
a3:__ZNK21ExecutionOrderManager30GetCustomAwakeFromLoadQueueForEPKN5Unity4TypeE
oVc:__Z27RegisterModule_UnityConnectv
Med:__ZN6il2cpp2vm10Reflection27GetCustomAttributesCacheForEP25Il2CppReflectionParameter
Xih:_ParameterInfo_get_IsRetval_m1881464570
vRi:_Bounds_get_size_m1728027642_AdjustorThunk
_jg:_RealProxy__ctor_m3041043303
FUe:_NumberFormatter_Init_m2654758994
YGd:_HMACSHA1__ctor_m1168389339
MF:__Z96Register_UnityEngine_Animations_AnimationClipPlayable_INTERNAL_CALL_SetRemoveStartOffsetInternalv
_M:__ZN10ObjectPoolIN4FMOD12ChannelGroupENS0_13ChannelGroupIEE7SetSizeEi
Gef:_PrimalityTest_BeginInvoke_m966469054
Yca:__ZN15dense_hashtableINSt3__24pairIKN4core12basic_stringIcNS2_20StringStorageDefaultIcEEEE13dynamic_arrayI4PPtrI6SpriteELj4EEEES6_20StringHash32FunctionIS6_EN14dense_hash_mapIS6_SC_SF_NS0_8equal_toIS6_EE13stl_allocatorISD_L18MemLabelIdentifier79ELi16EEE9SelectKeyESI_SL_E9copy_fromERKSO_j
jCg:_UInt64_System_IConvertible_ToInt16_m2797150165_AdjustorThunk
FSe:_Array_InternalArray__get_Item_TisLabelData_t3712112744_m863115768_gshared
y_e:_Int32_Parse_m753946802
gsh:_Material_DisableKeyword_m1204728089
Azf:_List_1_RemoveAt_m2331128844_gshared
vgd:__ZN14dense_hash_mapI10KeyWrapperINSt3__24pairIPK9EventInfoP11Il2CppClassEEEj17ReflectionMapHashIS8_ENS9_14EqualsComparerINS1_8equal_toIS8_EEEENS1_9allocatorINS2_IKS9_jEEEEE15set_deleted_keyERSH_
nfh:_UnmanagedMarshal_ToMarshalAsAttribute_m3695569337
OGb:__Z14resize_trimmedINSt3__26vectorI17AnimationCurveTplIfE13stl_allocatorIS3_L18MemLabelIdentifier1ELi16EEEEEvRT_j
_6a:__ZN25CameraStackRenderingState19SetupLastEyeCamerasERK11CameraStack
Qac:__Z12GUIDToStringRK9UnityGUID
aXc:__GLOBAL__sub_I_runtime_vr_plugininterface_lump_cpp
mJ:__ZN11SoundHandleC2ERKS_
dyi:_Mask_OnEnable_m501850981
Z1c:__ZNK6il2cpp5utils11collections13ArrayValueMapIPK10Il2CppType17Il2CppInteropData26InteropDataToTypeConverterNS_8metadata14Il2CppTypeLessENS8_26Il2CppTypeEqualityComparerEE10find_firstERKS5_
FG:__Z75AnimatorControllerPlayable_CUSTOM_INTERNAL_CALL_GetAnimatorClipInfoInternalR9HPlayableihP12Il2CppObject
lef:_BigInteger_op_Addition_m1196561843
L$i:_FormatterData__ctor_m3974986124
wId:_RijndaelManagedTransform_get_CanReuseTransform_m3735256596
Fle:_Comparer__cctor_m1327316974
y1e:_MonoIO_ExistsFile_m1421941572
Eve:_DateTime_op_GreaterThanOrEqual_m3818963848
Av:__ZN17AnimationPlayable18DeallocateBindingsEv
$9a:__ZN6Camera25StandaloneRenderToCubemapEP7TextureiPFvPK9SceneNodePK4AABBR9IndexListPvESA_j
_0d:_DefaultControls_SetDefaultTextValues_m1707718380
ZYd:_TouchInputModule_UseFakeInput_m2112019004
_Ud:_EventSystem_get_baseEventDataCache_m4294741599
Cmb:__ZN14RenderSettings18TransferDeprecatedI14SafeBinaryReadEEvRT_
p$:__ZN12TLSAllocatorI14StackAllocatorE8AllocateEji
X3:__ZN16ScriptingManager18GetMonoScriptCacheEi
dIg:__Z62RuntimeInvoker_Void_t1841601450_RuntimeObject_Int64_t909078037PFvvEPK10MethodInfoPvPS4_
Vlh:_GUIStyle_get_stretchHeight_m3396762700
DJa:__ZNSt3__227__insertion_sort_incompleteIR25ValueParameterArraySorterPN20GpuProgramParameters14ValueParameterEEEbT0_S6_T_
f5d:_GridLayoutGroup_CalculateLayoutInputHorizontal_m2355123124
yFb:__Z18Transfer_BlittableI14SafeBinaryReadLb1EyEvRK29SerializationCommandArgumentsR31RuntimeSerializationCommandInfo
ipc:__ZN8JSONRead8TransferIfEEvRT_PKc17TransferMetaFlagsb
s2i:_U3CGetEnumeratorU3Ec__Iterator0_Reset_m2980566576_gshared
FPj:__ZNSt3__212basic_stringIcNS_11char_traitsIcEENS_9allocatorIcEEE6appendEPKcj
hWh:__ZL54TypeBuilder_t3308873219_CustomAttributesCacheGeneratorP21CustomAttributesCache
Mqa:__ZN6prcoreL17RemapGenericFloatI18TexFormatARGBFloat17TexFormatRGBAHalfEEvPKNS_9InnerInfoE
$Gf:_Collection_1_CheckWritable_m691269733_gshared
BO:__ZN11AudioSource21ApplyCachedParametersE12SoundChannel
Ach:_GenericTypeParameterBuilder_GetAttributeFlagsImpl_m3338182267
RU:__ZN13Simd4iFactoryIN6detail9FourTupleEEC2Eiiii
T5e:_SynchronizedReader__ctor_m1408327515
Epj:_X509Store_LoadCrl_m1146720614
TRf:_ReadOnlyCollection_1_System_Collections_IList_Clear_m1858417639_gshared
lqb:__ZN15SerializeTraitsI33EnlightenTerrainChunksInformationE8TransferI14SafeBinaryReadEEvRS0_RT_
V1b:__ZNK32RendererMaterialAnimationBinding9BindValueER6ObjectRKN11UnityEngine9Animation14GenericBindingERNS3_10BoundCurveE
lnb:__Z13GetIAnimationv
Jva:__ZL18stbir__support_onef
rsf:_List_1_System_Collections_IList_Remove_m2040310137_gshared
qrc:__Z26Transfer_UnityEngineObjectI9JSONWriteLb0EEvRK29SerializationCommandArgumentsR31RuntimeSerializationCommandInfo
pha:__ZN9ShaderLab4Pass9ApplyPassEjPK19ShaderPropertySheetR17ShaderPassContextP6ShaderiPKNS_10GrabPassesEPNS_11SubProgramsE
rna:__ZNSt3__26vectorIN4core12basic_stringIcNS1_20StringStorageDefaultIcEEEE13stl_allocatorIS5_L18MemLabelIdentifier1ELi16EEE6assignINS_11__wrap_iterIPS5_EEEENS_9enable_ifIXaasr21__is_forward_iteratorIT_EE5valuesr16is_constructibleIS5_NS_15iterator_traitsISF_E9referenceEEE5valueEvE4typeESF_SF_
qBg:_UInt32_System_IConvertible_ToInt16_m2251335934_AdjustorThunk
kNc:__ZNSt3__27__sort5IRNS_6__lessIN2UI14DepthSortEntryES3_EEPS3_EEjT0_S7_S7_S7_S7_T_
cee:_Boolean_System_IConvertible_ToType_m3990189691
Ba:invoke_vdd
Jsd:__ZN6il2cpp2os6ThreadC2EPNS0_10ThreadImplE
Gze:_Double_System_IConvertible_ToUInt32_m624993430
Fn:FUNCTION_TABLE_fiif
$Kc:__ZZ29InitializeTextRenderingModulevEN27cleanupAfterLoadRegistrator7ForwardEv
Rwg:_Scheduler_Add_m376749205
ww:__ZN27AnimationLayerMixerPlayable24ProcessAnimationLayerMixEP33AnimationPlayableEvaluationOutputP35AnimationPlayableEvaluationConstantP32AnimationPlayableEvaluationInputS1_if
x6a:__Z29PluginsIssueRenderingExtEvent26UnityRenderingExtEventTypePv
V0b:__Z14RandomRotationP9Texture2DPhiiii
Wbf:_SimpleCollator_IsIgnorable_m2485013022
bxf:_List_1_System_Collections_IList_Insert_m2036969360_gshared
H8d:_InputField_GetUnclampedCharacterLineFromPosition_m1912794077
YKi:_AnimatorControllerPlayable_SetTrigger_m2446912300
bwe:_DateTimeOffset_ToString_m2121173678_AdjustorThunk
_Pg:__Z74RuntimeInvoker_RuntimeObject_RuntimeObject_Int16_t4041245914_RuntimeObjectPFvvEPK10MethodInfoPvPS4_
kj:_JS_WebRequest_SetResponseHandler
x_j:_glDeleteProgram__wrapper
mcc:__Z50Register_UnityEngine_Camera_INTERNAL_get_pixelRectv
cqa:__ZN6prcoreL18BlitFloatToIntegerERK14ImageReferenceRS0_
fkf:_X509CertificateCollection_get_Item_m410866272
amh:_Rect_get_yMax_m2915146103
aY:__ZN11UnityEngine15CloudWebService14RestDownloader17OnCompleteContentEv
rad:__ZN15dense_hashtableINSt3__24pairIK10KeyWrapperINS1_IPK14Il2CppAssemblyP11Il2CppClassEEEjEES9_17ReflectionMapHashIS8_EN14dense_hash_mapIS9_jSD_NS9_14EqualsComparerINS0_8equal_toIS8_EEEENS0_9allocatorISB_EEE9SelectKeyESI_SK_E15insert_noresizeERKSB_
cQg:__Z75RuntimeInvoker_RuntimeObject_RuntimeObject_Double_t4078015681_RuntimeObjectPFvvEPK10MethodInfoPvPS4_
rPg:__Z200RuntimeInvoker_Boolean_t3825574718_RuntimeObject_RuntimeObject_RuntimeObject_Int32_t2071877448_DateTimeU26_t3448131235_SByte_t454417549_BooleanU26_t3168250738_SByte_t454417549_ExceptionU26_t1467204777PFvvEPK10MethodInfoPvPS4_
Ra:invoke_viffi
Qaa:__ZNSt3__26vectorI20ProcessCallbackGroupNS_9allocatorIS1_EEEC2ERKS4_
uy:__ZN17AnimationPlayable28UpdateInternalStateRecursiveILi1ELb0EEEvPK35AnimationPlayableEvaluationConstant
Ua:invoke_vifff
Rec:__Z53Register_UnityEngine_Input_INTERNAL_get_mousePositionv
iZj:_glGetVertexAttribiv__wrapper
Ue:_emscripten_request_fullscreen
Jea:__ZN20LocalFileSystemWebGL6DeleteER13FileEntryDatab
fxe:_Decimal_System_IConvertible_ToUInt16_m1621568250
We:_emscripten_glDisableVertexAttribArray
Wm:FUNCTION_TABLE_iiiifiiii
Mxg:_TimeSpan_get_TotalMinutes_m1645177229_AdjustorThunk
rc:invoke_fifffi
DGa:__ZN4gles23ClearCurrentFramebufferEP7ApiGLESbbbRK10ColorRGBAffi
Xw:__ZN7mecanim12statemachine20CreateStateWorkspaceEjjjRNS_6memory9AllocatorE
I4i:_InternalEnumerator_1_System_Collections_IEnumerator_get_Current_m3680087284_gshared
ff:_emscripten_glDeleteObjectARB
sIa:__Z14DecompressDXT3iiiPKjPj
J6e:_UnexceptionalStreamReader_Read_m3839775235
uic:__Z53Register_UnityEngine_RenderTexture_Internal_GetHeightv
BTe:_Dropdown_GetOrAddComponent_TisRuntimeObject_m2875934266_gshared
dra:__ZN6prcoreL17RemapGenericFloatI17TexFormatRGBAHalf18TexFormatARGBFloatEEvPKNS_9InnerInfoE
mAe:_Enum_System_IConvertible_ToInt32_m2459904362
ulc:__ZNK8GUIStyle21DrawWithTextSelectionER8GUIStateRK5RectTIfER10GUIContentbbbbbiiRK10ColorRGBAfSA_
fQg:__Z61RuntimeInvoker_RuntimeObject_Double_t4078015681_RuntimeObjectPFvvEPK10MethodInfoPvPS4_
BNg:__Z211RuntimeInvoker_Int32_t2071877448_RuntimeObject_Int32_t2071877448_Int32_t2071877448_Int32_t2071877448_Int32_t2071877448_RuntimeObject_DecoderFallbackBufferU26_t3597875002_ByteU5BU5DU26_t790777611_SByte_t454417549PFvvEPK10MethodInfoPvPS4_
Ilc:__Z14GetBuiltinSkini
oTd:_DecoderReplacementFallbackBuffer_Reset_m2576819665
WTd:_BaseInput_set_compositionCursorPos_m2632248731
rEj:_Enumerator_System_Collections_IEnumerator_Reset_m2573763156_gshared
m1e:_DirectoryInfo_Initialize_m2216118894
dOd:_WindowsIdentity_Dispose_m2649088337
RXb:__ZN2UI13RectTransform23VirtualRedirectTransferER14SafeBinaryRead
sxj:_InvokableCall_1__ctor_m54675381_gshared
_8e:_MonoType_GetMethodImpl_m593754598
tUb:__ZNSt3__26vectorIN9ShaderLab20SerializedSubProgramENS_9allocatorIS2_EEE6assignIPS2_EENS_9enable_ifIXaasr21__is_forward_iteratorIT_EE5valuesr16is_constructibleIS2_NS_15iterator_traitsIS9_E9referenceEEE5valueEvE4typeES9_S9_
ptc:__Z18Transfer_BlittableI8JSONReadLb0E8BitFieldEvRK29SerializationCommandArgumentsR31RuntimeSerializationCommandInfo
glg:_SoapServices_RegisterInteropXmlType_m2949236705
fOb:__ZL17Transfer_GUIStyleI18StreamedBinaryReadILb1EELb0EEvRK29SerializationCommandArgumentsR31RuntimeSerializationCommandInfo
jSd:_String_CharCopy_m2550399897
jSg:__Z234RuntimeInvoker_RuntimeObject_Int16_t4041245914_RuntimeObject_Int32_t2071877448_Int32_t2071877448_Int32_t2071877448_SByte_t454417549_SByte_t454417549_SByte_t454417549_SByte_t454417549_Int16_t4041245914_SByte_t454417549_SByte_t454417549PFvvEPK10MethodInfoPvPS4_
CSb:__ZN9ShaderLab14SerializedPass8TransferI14SafeBinaryReadEEvRT_
Amc:__Z71Register_UnityEngine_GUILayoutUtility_INTERNAL_CALL_Internal_MoveWindowv
rS:__ZN12AudioManager16SetListenerPauseEb
Ekd:__ZN6il2cpp2vm9Exception25RaiseOutOfMemoryExceptionERKNS_5utils10StringViewIDsEE
QEf:_Collection_1_IsValidItem_m2254106115_gshared
Mbh:_TypeBuilder_GetEvent_m3876348075
SEi:_Slider_OnMove_m641164662
da:invoke_viiiiiiiiiii
gMj:___syscall_ret
Uwg:_Scheduler__ctor_m3716265742
jhf:_MACAlgorithm_Final_m4076939925
_8c:__ZNSt3__212basic_stringIcNS_11char_traitsIcEENS_9allocatorIcEEE6assignINS_11__wrap_iterIPKcEEEENS_9enable_ifIXaasr21__is_forward_iteratorIT_EE5valuesr38__libcpp_string_gets_noexcept_iteratorISC_EE5valueERS5_E4typeESC_SC_
Ltb:__ZN11ChannelInfo8TransferI19StreamedBinaryWriteILb0EEEEvRT_
o4i:_InternalEnumerator_1_System_Collections_IEnumerator_get_Current_m3583252352_gshared
nbh:_EnumBuilder_get_FullName_m2818393911
KZa:__ZN14qsort_internal13Partition3WayIP17RODataReplacementi19ROSorterReplacementEENSt3__24pairIT_S6_EES6_S6_T0_T1_
hec:__Z34Register_UnityEngine_Gradient_Initv
xUd:_BaseInputModule_GetAxisEventData_m3903709281
USe:_Array_InternalArray__get_Item_TisUriScheme_t1876590943_m1821482697_gshared
uUf:_BigInteger__ctor_m3239748086
eea:__ZN13ScreenManager23SetIsOrientationEnabledE18EnabledOrientationb
Cw:__ZN7mecanim5human25HumanPoseAddOverrideLayerERNS0_9HumanPoseERKS1_fRKNS_6bitsetILj70EEE
F$b:__ZN13ProduceHelperI9TransformLb0EE7ProduceE18MemLabelIdentifier18ObjectCreationMode
roc:__Z45Register_UnityEngine_GUIStyle_GetFontInternalv
tUi:_Component_SendMessageUpwards_m19741277
hLe:_Array_InternalArray__ICollection_Add_TisHitInfo_t1761367055_m2956071622_gshared
u9a:__ZN10GameObject23VirtualRedirectTransferER18StreamedBinaryReadILb0EE
wg:_glFrontFace
bng:_ObjectRecord_get_IsUnsolvedObjectReference_m2202692850
Eeg:_FactoryCache_Cleanup_m4130035987
ME:__ZN26AnimatorControllerPlayable14SetLayerWeightEif
D_b:__ZN13ProduceHelperI19LowerResBlitTextureLb0EE7ProduceE18MemLabelIdentifier18ObjectCreationMode
O2a:__ZNSt3__26vectorI16ShadowCasterData13stl_allocatorIS1_L18MemLabelIdentifier2ELi16EEE21__push_back_slow_pathIKS1_EEvRT_
VFe:_PlayableHandle_IsPlayableOfType_TisAnimationClipPlayable_t4099382200_m682525715_AdjustorThunk
gyj:_UnityAction_1_Invoke_m1279802577_gshared
UBg:_UInt32_ToString_m1783596809
wtj:_Vector3_get_forward_m1201659139
ILc:__Z51Register_UnityEngine_TextGenerator_GetLinesInternalv
MEj:_HashSet_1_Init_m1258286688_gshared
ANf:_ReadOnlyCollection_1_System_Collections_IList_RemoveAt_m525136953_gshared
v9c:__ZNSt3__26vectorIN6il2cpp2vm17TypeNameParseInfoENS_9allocatorIS3_EEEC2ERKS6_
ZBg:_UInt64_System_IConvertible_ToBoolean_m3012279573_AdjustorThunk
Mzg:_Type_get_IsGenericTypeDefinition_m2147901038
ERa:__ZN12HandlerChain10ToAbsoluteEPKc
bUe:_GregorianCalendar__ctor_m3794576475
PBg:_UInt32_TryParse_m4283512434
NHh:__ZN21InterfaceFuncInvoker2Ib8IntPtr_tS0_E6InvokeEjP11Il2CppClassP12Il2CppObjectS0_S0_
dJ:__ZN9AudioClip11CreateSoundEv
xCh:_ShimEnumerator_MoveNext_m3313047792_gshared
CFf:_Collection_1_ConvertItem_m2185647560_gshared
ryg:_TimeSpan_op_Inequality_m257547441
zvg:_ExecutionContext_GetObjectData_m1456913356
Jgd:__ZN14dense_hash_mapI10KeyWrapperINSt3__24pairIPK9FieldInfoP11Il2CppClassEEEj17ReflectionMapHashIS8_ENS9_14EqualsComparerINS1_8equal_toIS8_EEEENS1_9allocatorINS2_IKS9_jEEEEEC2EjRKSB_RKSF_
fuh:_Object_set_hideFlags_m2204253440
jcd:__ZNK15dense_hashtableINSt3__24pairIK10KeyWrapperINS1_IPK10MethodInfoP11Il2CppClassEEEjEES9_17ReflectionMapHashIS8_EN14dense_hash_mapIS9_jSD_NS9_14EqualsComparerINS0_8equal_toIS8_EEEENS0_9allocatorISB_EEE9SelectKeyESI_SK_E13find_positionERSA_
PDa:__ZN13GfxDeviceGLES20CreateComputeProgramEPKhj
WVe:_DateTimeFormatInfo_get_RoundtripPattern_m562440017
MUc:__ZN11UnityEngine7Connect16PersistentValues13RestoreValuesER8JSONRead
kTa:__ZN20ArchiveStorageReader31TryToReadDirectoryFromBlockDataEyPKvj
lze:_Double_System_IConvertible_ToByte_m3004284950_AdjustorThunk
snd:__ZN6il2cpp2vmL11GetIdentityEP14Il2CppIUnknown
Kgf:_SmallXmlParser_ReadCDATASection_m2558307107
Kzd:_GC_push_gc_structures
X5c:__ZN6il2cpp6icalls8mscorlib6SystemL8IsPublicEPK9EventInfo
noe:_Enumerator_get_Current_m1271212567
Vwd:__ZThn4_N6il2cpp2vm13ComObjectBase18ReleaseMarshalDataEP13Il2CppIStream
orh:_Input_set_compositionCursorPos_m1615567306
p8f:_IPAddress_ParseIPV6_m2209709575
wBi:_U3CClickRepeatU3Ec__Iterator0_MoveNext_m1747924386
STf:_Comparison_1_Invoke_m1670081898_gshared
lGi:_Toggle_set_group_m3833595685
_ae:_LayoutRebuilder_ForceRebuildLayoutImmediate_m566681977
cub:__ZNSt3__213__stable_sortIRNS_4lessI4PPtrI11SpriteAtlasEEENS_11__wrap_iterIPS4_EEEEvT0_SA_T_NS_15iterator_traitsISA_E15difference_typeEPNSD_10value_typeEi
pLe:_Array_InternalArray__ICollection_Add_TisVector4_t2243707581_m698578249_gshared
T0:__ZN8keywords6CreateEPKc
S:Math_imul
yoh:_GUIStyle_set_active_m2896743432
Fxb:__ZN14SpriteRenderer15SetupPropertiesEv
Csb:__ZN11PlayerPrefs6GetIntERKN4core12basic_stringIcNS0_20StringStorageDefaultIcEEEEi
K0c:__ZN6il2cpp5utils13dynamic_arrayIPK10Il2CppTypeLj4EEC2ERKS5_
qLc:__Z45TextGenerator_CUSTOM_INTERNAL_get_rectExtentsP12Il2CppObjectP5RectTIfE
OYf:_CertificateValidationCallback_Invoke_m2500463874
qGe:_SetPropertyUtility_SetStruct_TisChar_t3454481338_m2333420724_gshared
TEf:_Collection_1_IsSynchronized_m2601980439_gshared
Ime:_Hashtable_ContainsKey_m2716576664
mT:__ZN11AudioSource12SetAudioClipEP9AudioClip
Vgj:_PatternCompiler_EmitCategory_m1696942454
qxe:_Decimal_decimalFloorAndTrunc_m3655683429
JLe:_Array_InternalArray__ICollection_CopyTo_TisInt32_t2071877448_m984622488_gshared
J1:__ZN18ScriptingArguments9AddObjectE18ScriptingObjectPtr
tPc:__Z39CanvasGroup_Get_Custom_PropInteractableP12Il2CppObject
mV:__ZN11UnityEngine15CloudWebService16SessionContainerD2Ev
TGa:__ZN17GenericDynamicVBOC2ER9GfxDevice13GfxBufferModejj
j0i:_Context_get_HasDynamicSinks_m1998518649
Fkc:__ZZN10GUIManager14InitGUIManagerEvEN41PreUpdateIMGUISendQueuedEventsRegistrator7ForwardEv
hLi:_AnimatorControllerPlayable_ResetTrigger_m758725835_AdjustorThunk
FW:__ZN11UnityEngine15CloudWebService17SessionEventQueue10PurgeItemsEj
g8a:__ZN6Camera16StandaloneRenderENS_10RenderFlagEP6ShaderRKN4core12basic_stringIcNS3_20StringStorageDefaultIcEEEE
sbe:_Array_System_Collections_IList_get_Item_m2088124007
Mbe:_Array_GetLength_m2083296647
ske:_SynchronizedArrayListWrapper_ToArray_m1522185111
BNb:__Z18Transfer_BlittableI18StreamedBinaryReadILb1EELb1EtEvRK29SerializationCommandArgumentsR31RuntimeSerializationCommandInfo
ZBa:__ZN9GfxDevice20DeallocRenderSurfaceEP17RenderSurfaceBase
NDg:_ValueType_ToString_m3796301715
xJa:__ZN20GpuProgramParameters36UpdatePrepareValuesMaximumBufferSizeEv
hfc:__Z53Register_UnityEngine_Quaternion_INTERNAL_CALL_Inversev
clh:_GUILayoutGroup__ctor_m992523271
ijb:__ZN12BaseRenderer23RendererBecameInvisibleEv
Gxc:__ZN20TextRenderingPrivate8FontImpl13CharacterInfo8TransferI18StreamedBinaryReadILb0EEEEvRT_
gLb:__Z29Transfer_Blittable_ArrayFieldI24GenerateTypeTreeTransferfEvRT_R9ArrayInfoRK23StaticTransferFieldInfo
zIg:__Z76RuntimeInvoker_RuntimeObject_RuntimeObject_SByte_t454417549_SByte_t454417549PFvvEPK10MethodInfoPvPS4_
Vab:__ZN19CustomRenderTexture9AddParentE4PPtrIS_E
rrb:__ZN8Gradient8TransferI14SafeBinaryReadEEvRT_
Gzj:_UnityEvent_1_Invoke_m1533100983_gshared
qna:__ZNSt3__26vectorIN4core12basic_stringIcNS1_20StringStorageDefaultIcEEEE13stl_allocatorIS5_L18MemLabelIdentifier1ELi16EEE7reserveEj
F7f:_FileWebRequest__ctor_m4003648606
tvi:__ZL71SpriteState_t1353336012_CustomAttributesCacheGenerator_m_DisabledSpriteP21CustomAttributesCache
oAe:_Enum_System_IConvertible_ToSByte_m3488526280
Uth:_MonoBehaviour_StopAllCoroutines_m1675795839
FKi:_AnimatorControllerPlayable_GetIntegerString_m2944800090
Cea:__ZNK20LocalFileSystemPosix9IsSymLinkERK13FileEntryData
Eyd:_GC_new_free_list_inner
GKh:_DefaultComparer_Equals_m85211180_gshared
S8e:_MonoType_InternalGetEvent_m532443236
zHf:_Collection_1_IndexOf_m2700825189_gshared
duc:__ZN8JSONRead8TransferI10RectOffsetEEvRT_PKc17TransferMetaFlagsb
nW:__ZN9JSONWrite8TransferIN11UnityEngine15CloudWebService14DataErrorEvent15FileErrorDetailEEEvRT_PKc17TransferMetaFlags
LSd:_Decoder__ctor_m2623573910
uOf:_ReadOnlyCollection_1_System_Collections_Generic_IListU3CTU3E_RemoveAt_m1731148677_gshared
VL:__ZN12SoundManager20RegisterModifiedClipEP10SampleClip
uO:__ZN11AudioSource4PlayEd
G$c:__ZN15dense_hashtableI10KeyWrapperIPK17Il2CppGenericInstES4_N6il2cpp8metadata21Il2CppGenericInstHashEN14dense_hash_setIS4_S7_NS4_14EqualsComparerINS6_24Il2CppGenericInstCompareEEENSt3__29allocatorIS4_EEE8IdentityESB_SE_E13set_empty_keyERKS4_
DNh:_EqualityComparer_1_System_Collections_IEqualityComparer_Equals_m3589836321_gshared
Wgf:_SmallXmlParser_IsNameChar_m1561000202
Snj:_X501__cctor_m2610532554
DBh:_Enumerator_VerifyState_m3173176371_gshared
xzf:_List_1_CheckCollection_m2220107869_gshared
Fob:__ZN7Cubemap23VirtualRedirectTransferER18StreamedBinaryReadILb0EE
b$f:_RecordProtocol_EncodeRecord_m3884270352
uKd:_SHA256_Create_m896954069
sJc:_Read_CVT
tte:_Convert_ToUInt32_m776714429
eQa:__ZN12FileAccessor4SeekEx10FileOrigin
aKb:__ZL26Transfer_SimpleNativeClassI24GenerateTypeTreeTransfer17AnimationCurveTplIfELb0EEvRK29SerializationCommandArgumentsR31RuntimeSerializationCommandInfo
zqb:__ZN24GenerateTypeTreeTransfer8TransferI13dynamic_arrayI33EnlightenTerrainChunksInformationLj4EEEEvRT_PKc17TransferMetaFlags
U8:__ZN16LightmapSettings20DidChangeActiveSceneEP10UnitySceneS1_
vxi:__ZL59g_AssemblyU2DCSharp_Assembly_CustomAttributesCacheGeneratorP21CustomAttributesCache
j6c:__ZN6il2cpp5utils9PathUtils8BasenameIcEENSt3__212basic_stringIT_NS3_11char_traitsIS5_EENS3_9allocatorIS5_EEEERKSA_
kN:__ZN10AudioMixer11SetupGroupsEv
mmc:__Z35Register_UnityEngine_Event_get_typev
Jhf:_PrivateKeyInfo_DecodeRSA_m1427048948
Qkd:__ZN6il2cpp2vm9Exception23GetInvalidCastExceptionERKNS_5utils10StringViewIDsEE
K7g:_Assembly_FillName_m1934025015
dRd:_String_IndexOf_m2126171214
N$e:_Int64_ToString_m1544341651_AdjustorThunk
vy:__ZN8Animator28BuildControllerPlayableCacheEv
MXe:_Guid_CheckNull_m2903986431
kRi:_Bounds__ctor_m1202659404
R2:__Z63ThreadAndSerializationSafeCheckGetMonoBehaviourBeingTransferredv
oBd:_GC_enable
Y0f:_TlsClientCertificateVerify_ProcessAsSsl3_m3377063356
qYd:_StandaloneInputModule_set_repeatDelay_m2820945738
ZAg:_UInt16_ToString_m4213290405
Mec:__Z37Register_UnityEngine_Input_GetAxisRawv
F_i:_ChannelServices_RegisterChannel_m3832858065
vAe:_Enum_GetName_m1226611481
JKj:_Func_2_Invoke_m4121137703_gshared
sub:__ZN14Texture2DArray23VirtualRedirectTransferER18StreamedBinaryReadILb0EE
yjj:_Literal_CompileLiteral_m276843152
IXb:__ZN2UI13RectTransform13AwakeFromLoadE17AwakeFromLoadMode
k2a:__ZN14qsort_internal30FindAndMovePivotToLastPositionIP20ShadowCasterSortDatai26ShadowCasterSortDataSorterEEvT_S4_T0_T1_
k0c:__ZNK15dense_hashtableI10KeyWrapperIPK19Il2CppGenericMethodES4_N6il2cpp8metadata23Il2CppGenericMethodHashEN14dense_hash_setIS4_S7_NS4_14EqualsComparerINS6_26Il2CppGenericMethodCompareEEENSt3__29allocatorIS4_EEE8IdentityESB_SE_E3endEv
yEb:__Z18Transfer_BlittableI14SafeBinaryReadLb1EiEvRK29SerializationCommandArgumentsR31RuntimeSerializationCommandInfo
Lxa:__ZN17PersistentManager13GetAllFileIDsERKN4core12basic_stringIcNS0_20StringStorageDefaultIcEEEER13dynamic_arrayIxLj8EE
Mce:_Array_LastIndexOf_m4096535198
tie:_ArrayList_Add_m1719188324
Bze:_Double_System_IConvertible_ToSByte_m1653690240_AdjustorThunk
hSg:__Z59RuntimeInvoker_RuntimeObject_Byte_t3683104436_RuntimeObjectPFvvEPK10MethodInfoPvPS4_
Ek:_glGetStringi
TD:__ZZN8Animator15InitializeClassEvEN43FunctorImpl_420kDidModifyAnimatorController4CallEPviR11MessageData
gDe:_CultureInfo_set_NumberFormat_m1618950525
Nub:__ZN18StreamedBinaryReadILb0EE21TransferSTLStyleArrayI13dynamic_arrayI8Vector4fLj4EEEEvRT_17TransferMetaFlags
mcg:_X509Store__ctor_m1573680316
Bcg:_X509Chain_get_CertificateCollection_m324631835
VNh:_EqualityComparer_1__cctor_m1011898363_gshared
pZd:_AnimationTriggers__ctor_m2623627182
$Ie:_Array_InternalArray__IndexOf_TisClientCertificateType_t4001384466_m1168139450_gshared
$W:__ZN11UnityEngine15CloudWebService20WebRequestRestClient18GetResponseHeadersEv
V4b:__ZN16PropertyAccessorC2Ev
Esb:__ZNSt3__23mapIN4core12basic_stringIcNS1_20StringStorageDefaultIcEEEE9PrefValueNS_4lessIS5_EENS_9allocatorINS_4pairIKS5_S6_EEEEEixERSB_
u4b:__ZN15DirectorManager22ConstructPlayableGraphEv
rLd:_SymmetricAlgorithm_set_IV_m4262655606
lFi:_StencilMaterial__cctor_m2963056855
DNi:_AnimatorControllerPlayable_Play_m614561002_AdjustorThunk
r9g:_CustomAttributeNamedArgument_GetHashCode_m3715408876_AdjustorThunk
xLc:__Z38Register_UnityEngine_Font_HasCharacterv
Gbg:_X509Certificate2_AppendBuffer_m3517242299
p6a:__Z35IntersectSpherePlaneBoundsOptimizedRKN4math7_float4EPS1_i
cDe:_CultureInfo_get_IsNeutralCulture_m3874876470
eye:_Delegate_CreateDelegate_m3813023227
Jlj:_Uri_get_AbsoluteUri_m2120317928
c7b:__ZNK9Texture2D17CheckHasPixelDataEv
r0d:_ColorTween_TweenValue_m3279916815
pGi:_ToggleGroup_RegisterToggle_m3118973598
u8:__Z22CleanupLODGroupManagerPv
iLe:_Array_InternalArray__ICollection_Add_TisContentType_t1028629049_m2984242302_gshared
imc:__Z21Event_CUSTOM_PopEventP12Il2CppObject
nl:_glUniform3fv
hAb:__ZNSt3__218__insertion_sort_3IRN15ResourceManager10Dependency6SorterEPS2_EEvT0_S6_T_
$of:_Enumerator_System_Collections_IEnumerator_Reset_m3796537546_AdjustorThunk
DKc:_UNITY_FT_Init_Class_tt_service_gx_multi_masters
nQg:__Z53RuntimeInvoker_Int32_t2071877448_TimeSpan_t3430258949PFvvEPK10MethodInfoPvPS4_
sGg:__Z64RuntimeInvoker_RuntimeObject_Int32_t2071877448_Int16_t4041245914PFvvEPK10MethodInfoPvPS4_
B8e:_IntComparer_Compare_m3057931085
S0a:__ZNK16LightmapSettings31GetRealtimeLightmapDecodeValuesEv
JN:__ZN5audio5mixer12SetSuspendedERNS0_16AudioMixerMemoryEb
$sa:__ZN17PersistentManager21UnloadNonDirtyStreamsEv
Gld:__ZN6il2cpp2vm13LivenessStateC2EP11Il2CppClassjPFvPP12Il2CppObjectiPvES7_PFvvESB_
ZTe:_Array_ConvertAll_TisRuntimeObject_TisRuntimeObject_m2423585546_gshared
OWa:__ZN12ImageFilters4BlitER17ShaderPassContextP7TextureP13RenderTextureiPK18SharedMaterialDataPKcP6ShaderiNS_9BlitFlagsE11CubemapFaceRK8Vector2fSH_
W9f:_Oid__ctor_m1936781897
yuh:_Object_INTERNAL_CALL_Internal_InstantiateSingleWithParent_m1401308849
PW:__ZN11UnityEngine15CloudWebService10RestClientINS0_23WebRequestRestHeaderMapEED2Ev
oYi:_ResourceSet__ctor_m1222864106
aDf:_Collection_1_System_Collections_IList_get_Item_m3376056117_gshared
eta:__ZN18LoadSceneOperationD0Ev
QHi:_AnimationClipPlayable_INTERNAL_CALL_CreateHandleInternal_m218917601
_of:_Enumerator_VerifyState_m3639069574_gshared
XHa:__ZN4crnd25static_huffman_data_model22prepare_decoder_tablesEv
_Uf:_ModulusRing_Difference_m662924064
V_d:_CanvasUpdateRegistry_ObjectValidForUpdate_m855695984
K7d:_InputField_set_onValueChanged_m2406388125
Vij:_Regex_Matches_m253372688
zda:__ZL22CleanupUnityWebStreamsPv
rgj:_Regex_get_RightToLeft_m529734879
PPb:__Z18Transfer_BlittableI18StreamedBinaryReadILb0EELb0E10ColorRGBAfEvRK29SerializationCommandArgumentsR31RuntimeSerializationCommandInfo
w6f:_ListDictionary_Add_m4276262662
Z8:__Znaj
YId:_RIPEMD160Managed_GGG_m1639995340
X_j:_emscripten_glEnableClientState__wrapper
X$:__ZN17MessageIdentifierC2EPKcNS_7OptionsEPKN5Unity4TypeES1_
NG:__Z76AnimatorControllerPlayable_CUSTOM_INTERNAL_CALL_CrossFadeInFixedTimeInternalR9HPlayableifif
lEh:_Enumerator_System_Collections_IEnumerator_get_Current_m1648049763_gshared
Fbe:_Array_System_Collections_IList_Remove_m2438892375
u5e:_TextWriter__ctor_m2225796097
Chb:__ZN14SafeBinaryRead8TransferI14ConstantStringEEvRT_PKc17TransferMetaFlags
fqj:_ScriptableObject_Internal_CreateScriptableObject_m1778903390
vka:__ZNK6Camera16GetStereoEnabledEv
w1b:__ZN12LightManager15InitializeClassEv
vla:__ZN9ShaderLab11shaderprops16GetComputeBufferEPK19ShaderPropertySheetS3_NS_16FastPropertyNameE
Yoh:_GUIStyle_GetFontInternal_m3509743324
W1:__ZN18ScriptingArgumentsC2Ev
zyg:_TimeZone_IsDaylightSavingTime_m875882154
rWj:_emscripten_glBlendFuncSeparate__wrapper
PZf:_CipherSuiteCollection_System_Collections_IList_set_Item_m750275607
lKi:_AnimatorControllerPlayable_SetFloatID_m3806317182
rFa:__Z17HasSampledTexture14GraphicsFormat13formatSupport
hYa:__ZNK25CameraStackRenderingState27GetStereoImageEffectTextureEb
$Jd:_SHA1CryptoServiceProvider__ctor_m3127563759
Zp:__ZN8Vector3f8TransferI14SafeBinaryReadEEvRT_
jxi:__ZL103BaseVertexEffect_t2504093552_CustomAttributesCacheGenerator_BaseVertexEffect_ModifyVertices_m3446986347P21CustomAttributesCache
Fo:FUNCTION_TABLE_ii
iFh:_Enumerator_MoveNext_m335649778_AdjustorThunk
Yib:__ZN10TagManager8TransferI18StreamedBinaryReadILb0EEEEvRT_
Sqc:__Z18Transfer_BlittableI9JSONWriteLb0E8BitFieldEvRK29SerializationCommandArgumentsR31RuntimeSerializationCommandInfo
vhd:__ZNK15dense_hashtableINSt3__24pairIK10KeyWrapperINS1_IP11Il2CppClassjEEES4_EES6_N6il2cpp8metadata14ArrayClassHashEN14dense_hash_mapIS6_S4_SB_NS6_14EqualsComparerINSA_17ArrayClassCompareEEENS0_9allocatorIS8_EEE9SelectKeyESF_SH_E10test_emptyEj
YCe:_CultureInfo_get_TextInfo_m1582311326
mKe:_Array_ForEach_TisRuntimeObject_m1849351808_gshared
$ph:_GUIStyle_get_contentOffset_m1904924583
Agf:_SmallXmlParser_Error_m1832158746
Dk:_glDeleteVertexArrays
Sdb:__Z24CreateDirectoryRecursiveRKN4core12basic_stringIcNS_20StringStorageDefaultIcEEEE
IUj:b41
oVb:__ZN9ShaderLab20SerializedSubProgram8TransferI18StreamedBinaryReadILb0EEEEvRT_
W4e:_StreamAsyncResult_get_AsyncWaitHandle_m4218169359
Akc:__Z22MonoGUIContentToNative18ScriptingObjectPtrR10GUIContent
$Lc:__ZN2UI13CanvasManager9AddCanvasEPNS_6CanvasE
gwa:__ZN9Texture3D8TransferI19StreamedBinaryWriteILb0EEEEvRT_
mZa:__ZNK6Camera22CalculateRenderingPathEv
ksc:__ZN9JSONWrite8TransferI5RectTIfEEEvRT_PKc17TransferMetaFlags
eIi:_AnimationClipPlayable_INTERNAL_CALL_GetRemoveStartOffsetInternal_m3895628593
NKa:__Z13ConvertMipmap14GraphicsFormatPKvS_Pviiii
LKd:_SHA384Managed_processBlock_m3232296629
Yjf:_X509Certificate_get_PublicKey_m714501701
WCc:_tt_sbit_decoder_load_image
aja:__Z14IsHalfRTFormat19RenderTextureFormat
sRd:_String_LastIndexOf_m290475879
Skc:__ZNSt3__24listIN10GUIManager12SortedScriptE11memory_poolIS2_EE6__sortI13OldSortScriptEENS_15__list_iteratorIS2_PvEESA_SA_jRT_
bCg:_UInt64_System_IConvertible_ToChar_m1930853313_AdjustorThunk
T0f:_TlsClientCertificate_SendCertificates_m1096074091
une:_SyncHashtable_get_Item_m408601391
zOf:_ReadOnlyCollection_1_System_Collections_IEnumerable_GetEnumerator_m1401363518_gshared
GCf:_Stack_1_System_Collections_ICollection_CopyTo_m2104527616_gshared
qtg:_StringBuilder_AppendFormat_m1666670800
k3a:__ZN18DeferredRenderLoop13RenderGBufferEP13RenderTexturePS1_b8JobFencePK25DeferredRenderLoopScratchRi
EWg:__Z97RuntimeInvoker_Boolean_t3825574718_RuntimeObject_TextGenerationSettings_t2543476768_RuntimeObjectPFvvEPK10MethodInfoPvPS4_
J6g:__Z80RuntimeInvoker_RuntimeObject_RaycastResult_t21186376_RuntimeObject_RuntimeObjectPFvvEPK10MethodInfoPvPS4_
Pjd:__ZN6il2cpp6icalls8mscorlib6System9ThreadingL11ThreadStartEPv
Zaa:__ZN15DirectorManager12OnSampleTimeEv
RQf:_ReadOnlyCollection_1_System_Collections_IList_Remove_m3878418841_gshared
P7d:_InputField_EnforceContentType_m1902926812
Vja:__ZN12CachedReader10Align4ReadEv
ild:__ZN6il2cpp2vm9Exception28GetMarshalDirectiveExceptionEPKc
G9e:_MulticastDelegate_GetObjectData_m3187757658
ehb:__ZNK9Behaviour22GetTypeVirtualInternalEv
o3g:__Z74RuntimeInvoker_Void_t1841601450_Int32_t2071877448_RaycastHit2D_t4063908774PFvvEPK10MethodInfoPvPS4_
r7a:__Z21GetScriptingArraySize17ScriptingArrayPtr
_wc:__ZN20TextRenderingPrivate8FontImpl8TransferI14SafeBinaryReadEEvRT_
_Ii:_AnimationOffsetPlayable_INTERNAL_CALL_CreateHandleInternal_m2301240007
Yna:__Z35UnityPropertySheet_MakeSortedColorsRKNSt3__23mapIN9ShaderLab16FastPropertyNameE10ColorRGBAfNS_4lessIS2_EENS_9allocatorINS_4pairIKS2_S3_EEEEEER10vector_mapIS2_S3_S5_NS6_INS7_IS2_S3_EEEEE
uXg:__Z116RuntimeInvoker_Void_t1841601450_Rect_t3681755626_RuntimeObject_Int32_t2071877448_Int32_t2071877448_Int32_t2071877448PFvvEPK10MethodInfoPvPS4_
dph:_GUIStyle_Draw_m4006459684
VCa:__ZN9GfxDevice17ImmediateTexCoordEifff
Shj:_Parser_ParseRegularExpression_m2390577313
jde:_Array_double_swapper_m1175307080
bdg:_X509CertificateEnumerator_System_Collections_IEnumerator_Reset_m327358896
ANd:_Hash__ctor_m2554411450
aVe:_NumberFormatter_AppendDigits_m1308372770
gPd:_Single_System_IConvertible_ToDateTime_m2510003459_AdjustorThunk
xye:_Delegate_RemoveImpl_m3666700529
iUj:_emscripten_glUniform4f__wrapper
Q6f:_NameObjectCollectionBase_OnDeserialization_m3478980442
B7d:_InputField_set_caretColor_m2252440840
kU:__Z78Register_UnityEngine_Audio_AudioPlayableOutput_INTERNAL_CALL_InternalSetTargetv
bD:__ZN8Animator8TransferI19StreamedBinaryWriteILb0EEEEvRT_
K$a:__ZNK6Camera16GetProjectionFarEv
_q:__Z24InverseTransformRotationRK23TransformAccessReadOnlyRKN4math7_float4E
E7e:_MissingFieldException__ctor_m1161042282
mJe:_Array_InternalArray__IndexOf_TisSlot_t2267560602_m1912863273_gshared
snb:__ZNK14PlayableOutput11DerivesFromE17ScriptingClassPtr
lwa:__ZN7Texture34CreateFileTextureUploadInstructionE18TextureUploadFlagsj
DWa:__ZN13ComputeShader14SetBufferParamEjRKN9ShaderLab16FastPropertyNameE15ComputeBufferID
EQf:_ReadOnlyCollection_1_System_Collections_Generic_IListU3CTU3E_Insert_m3054305464_gshared
UC:__ZN8Animator8TransferI14SafeBinaryReadEEvRT_
DJe:_Array_InternalArray__IndexOf_TisTypeTag_t141209596_m2882894956_gshared
xEi:_Slider_get_value_m4182660424
i6:__Z23AsyncReadForceCloseFileRKN4core12basic_stringIcNS_20StringStorageDefaultIcEEEE
st:__ZN17AnimationPlayable34CollectAnimatorControllerPlayablesER13dynamic_arrayIP26AnimatorControllerPlayableLj4EE
aT:__ZN16BaseVideoTexture19UpdateVideoTexturesEv
Qlb:__Z28BuildSingleStreamChannelInfo17ShaderChannelMaskRK20VertexChannelsLayoutS_S2_P11ChannelInfo
Kua:__ZNK16LightmapSettings23HasLightProbeTetrahedraEv
e0f:_Context_get_WriteSequenceNumber_m243492531
Msb:__ZN6Sprite23VirtualRedirectTransferER19StreamedBinaryWriteILb0EE
kRd:_String_LastIndexOfAny_m1473637802
BFi:_Text_get_resizeTextMaxSize_m2671487437
mbd:__ZNK15dense_hashtableINSt3__24pairIK10KeyWrapperINS1_IPK9FieldInfoP11Il2CppClassEEEjEES9_17ReflectionMapHashIS8_EN14dense_hash_mapIS9_jSD_NS9_14EqualsComparerINS0_8equal_toIS8_EEEENS0_9allocatorISB_EEE9SelectKeyESI_SK_E5beginEv
Ysd:__ZN6il2cpp2os6Thread15CurrentThreadIdEv
SA:__ZN15SerializeTraitsIN4math4trsXEE8TransferI8BlobSizeEEvRS1_RT_
YFa:__ZN14DataBufferGLES11CopySubDataEPKS_jjj
me:_emscripten_glVertexPointer
jPa:__ZNSt3__26__treeI20DeviceDepthStateGLES11memcmp_lessIS1_S1_ENS_9allocatorIS1_EEE7destroyEPNS_11__tree_nodeIS1_PvEE
SNc:__ZN2UI13PrepareOutputERNS_7BatchesEjjNS_30AdditionalCanvasShaderChannelsE
S2a:__Z17GetFrustumPortionPK8Vector3fffPS_
Qmd:__ZN15dense_hashtableINSt3__24pairIK10KeyWrapperIP14Il2CppIUnknownEjEES5_N6il2cpp5utils11PointerHashIS3_EEN14dense_hash_mapIS5_jSB_NS5_14EqualsComparerINS0_8equal_toIS4_EEEENS0_9allocatorIS7_EEE9SelectKeyESG_SI_E14squash_deletedEv
fpi:__ZL60MovedFromAttribute_t922195725_CustomAttributesCacheGeneratorP21CustomAttributesCache
s1d:_DefaultControls_CreateDropdown_m1384069408
iXd:_PointerEventData_get_clickCount_m4064532478
lBe:_EventArgs__cctor_m1350395667
Gpj:_X509Stores_Open_m2057354563
RBe:_CCGregorianCalendar_is_leap_year_m567513478
Kde:_Attribute_IsDefined_m2118467641
RVd:_ExecuteEvents_Execute_m898902863
y4i:_InternalEnumerator_1_System_Collections_IEnumerator_get_Current_m3125080595_gshared
nJf:_Collection_1_System_Collections_IList_Add_m2091889616_gshared
i5b:__ZN16StreamedResource8TransferI24GenerateTypeTreeTransferEEvRT_
O2d:_DropdownItem_OnPointerEnter_m761897861
yIi:_AnimationLayerMixerPlayable_INTERNAL_CALL_IsLayerAdditiveInternal_m364677421
CH:__Z90Register_UnityEngine_Animations_AnimatorControllerPlayable_INTERNAL_CALL_CrossFadeInternalv
Zw:__ZN7mecanim9animation21CreateBlendTreeOutputEjRNS_6memory9AllocatorE
oMa:__ZN10Matrix3x3f15InvertTransposeEv
TEe:_Array_InternalArray__ICollection_Remove_TisKeyValuePair_2_t1174980068_m2768765894_gshared
_Ji:_AnimatorControllerPlayable_GetFloat_m1229536053
XGf:_Collection_1_set_Item_m2199807215_gshared
yHb:__Z29Transfer_Blittable_ArrayFieldI14SafeBinaryRead8Vector3fEvRT_R9ArrayInfoRK23StaticTransferFieldInfo
dBg:_UInt32_System_IConvertible_ToBoolean_m91295134
Fvg:_Monitor_Monitor_test_synchronised_m1542589500
Sxc:__ZN20TextRenderingPrivate8FontImpl18ResetCachedTextureEv
vif:_SymmetricTransform_TransformFinalBlock_m4192185386
zXe:_TextInfo__ctor_m1263401274
Zsj:_TouchScreenKeyboard_Open_m913506328
Xwe:_Decimal_System_IConvertible_ToInt16_m3159038792
$Fh:_ValueCollection__ctor_m927733289_gshared
Rbc:__Z53Register_UnityEngine_Behaviour_get_isActiveAndEnabledv
G8f:_IPAddress_ToString_m267966740
Dq:__ZNSt3__26vectorIN4core12basic_stringIcNS1_20StringStorageDefaultIcEEEENS_9allocatorIS5_EEE8__appendEj
H7c:_il2cpp_gc_collect
Fzb:__ZN26PlayerSettingsSplashScreen8TransferI17RemapPPtrTransferEEvRT_
j8i:_InternalEnumerator_1_get_Current_m3922357178_gshared
f5c:__ZN6il2cpp6icalls8mscorlib6SystemL17CollectTypeFieldsINS_5utils10functional10TrueFilterEEEvP11Il2CppClassPKS7_iRNSt3__26vectorIP9FieldInfoNSB_9allocatorISE_EEEERKT_
Yri:__ZL72ColorBlock_t2652774230_CustomAttributesCacheGenerator_m_HighlightedColorP21CustomAttributesCache
Ryg:_Type_get_IsValueType_m1733572463
fZb:__Z13GetTagManagerv
tFe:_Array_InternalArray__ICollection_Remove_TisUInt16_t986882611_m65494986_gshared
sPf:_ReadOnlyCollection_1_IndexOf_m3054637117_gshared
YU:__ZN11UnityEngine15CloudWebService17CloudJobSchedulerD0Ev
fQd:_String_System_IConvertible_ToBoolean_m2696751322
ita:__ZN18LoadSceneOperation7PerformEv
Alh:_GUILayer_INTERNAL_CALL_HitTest_m693512502
zMc:__ZNK2UI11CanvasGroup22GetTypeVirtualInternalEv
nRd:_String_LastIndexOfAny_m4281325295
RRi:_Camera_get_pixelRect_m2084185953
J_g:__Z163RuntimeInvoker_Void_t1841601450_RuntimeObject_Int32_t2071877448_SByte_t454417549_SByte_t454417549_SingleU26_t4173844468_SingleU26_t4173844468_SingleU26_t4173844468PFvvEPK10MethodInfoPvPS4_
ilc:__Z21CleanupGlobalGUIStatev
txg:_TimeSpan__ctor_m1888018443_AdjustorThunk
h5g:__Z74RuntimeInvoker_Int32_t2071877448_UIVertex_t1204258818_UIVertex_t1204258818PFvvEPK10MethodInfoPvPS4_
pne:_SyncHashtable_get_Count_m3694444082
LNa:__ZN22VertexDeclarationCache5ClearEv
QZj:_emscripten_glUniform2i__wrapper
Sbb:__ZN17PersistentManager12SetPathRemapERKN4core12basic_stringIcNS0_20StringStorageDefaultIcEEEES6_
Ov:__Z27ProcessRootMotionEmptyMixerP35AnimationPlayableEvaluationConstantP32AnimationPlayableEvaluationInputP33AnimationPlayableEvaluationOutput
y4a:__ZN6Camera24PrepareCullingParametersERK23CameraCullingParameters13RenderingPathR11CullResults
E7b:__Z12SetIUISystemP9IUISystem
uta:__ZN19RuntimeSceneManager22EndIntegrateMainThreadEP10UnitySceneNS_11LoadingModeE
SIb:__Z26Transfer_UnityEngineObjectI17RemapPPtrTransferLb0EEvRK29SerializationCommandArgumentsR31RuntimeSerializationCommandInfo
uRd:_String_IsNullOrEmpty_m2802126737
vge:_Byte_Parse_m1442736478
v$e:_Int64_Parse_m3258022240
eRd:_String_IndexOfOrdinal_m3591623977
Fsj:_Texture2D_get_whiteTexture_m1979591766
Vpg:_CryptoConfig_EncodeLongNumber_m2352037787
uzg:_Type_GetMethod_m475234662
b_i:_ActivationServices_get_ConstructionActivator_m1726426854
$Kb:__Z29Transfer_Blittable_ArrayFieldI24GenerateTypeTreeTransfer4AABBEvRT_R9ArrayInfoRK23StaticTransferFieldInfo
XJj:_Hacker_RunMainMenu_m908116088
n2h:__ZL52Activator_t1850728717_CustomAttributesCacheGeneratorP21CustomAttributesCache
oAd:_GC_adj_bytes_allocd
dLe:_Array_InternalArray__ICollection_Add_TisKeyframe_t1449471340_m887263954_gshared
kuj:_UIVertex__cctor_m803910084
IMe:_Array_InternalArray__Insert_TisDateTime_t693205669_m1484996356_gshared
luf:_List_1_System_Collections_IList_Remove_m3933652540_gshared
g4e:_MonoIO_get_ConsoleInput_m2976499023
Deh:_OpCode_get_Size_m481593949_AdjustorThunk
Mke:_BitArrayEnumerator_checkVersion_m3839504595
_be:_Array_GetUpperBound_m1352329707
K$b:__ZNK17AnimationCurveTplIfE20FindIndexForSamplingERKNS0_5CacheEfRiS4_
Ca:invoke_fiiifii
B_f:_RecordProtocol__ctor_m168945279
Uve:_DateTimeOffset_Equals_m3728302791_AdjustorThunk
D2a:__ZN20SphericalHarmonicsL219AddDirectionalLightERKN4math7_float3ERKNS0_7_float4E
qyg:_TimeSpan_op_GreaterThanOrEqual_m3997050520
Saa:__Z26ScheduleJobForEachInternalR8JobFencePFvPvjES1_iPFvS1_E11JobPriority
Mag:_OidEnumerator_MoveNext_m1889267785
sUa:__ZZ23InitPlayerLoopCallbacksvEN41PostLateUpdateProfilerEndFrameRegistrator7ForwardEv
$7b:__ZN9Scripting18RaiseMonoExceptionEPKcz
vpb:__ZN9Texture2D8TransferI19StreamedBinaryWriteILb0EEEEvRT_
knh:_GUISkin_set_box_m877476512
EAj:_TweenRunner_1_StartTween_m3792842064_gshared
W1b:__ZN9ShaderLab16FastPropertyName15InitBy28BitHashEj
oPd:_Single_System_IConvertible_ToInt32_m3269519527_AdjustorThunk
fKd:_SHA1Internal_ProcessBlock_m4070037334
Qva:__ZN17PersistentManager17IsObjectAvailableEi
NNe:_Array_InternalArray__set_Item_TisDouble_t4078015681_m24756265_gshared
Kjg:_ObjRef_GetObjectData_m3081609242
n$b:__ZN13ProduceHelperIN2UI13RectTransformELb0EE7ProduceE18MemLabelIdentifier18ObjectCreationMode
qvb:__ZN17PackedFloatVector12UnpackFloatsEPfiiii
HMf:_ReadOnlyCollection_1__ctor_m3671019970_gshared
Uy:__ZN17AnimationPlayable28UpdateInternalStateRecursiveILi3ELb0EEEvPK35AnimationPlayableEvaluationConstant
QDa:__ZN13GfxDeviceGLES21DestroyComputeProgramER12ObjectHandleI18ComputeProgram_TagPvE
_qe:_Convert_ToDecimal_m2007036836
y8:__ZN17UniqueIDGenerator16DestroyPureIndexEj
I4:__ZL21AppendNestedClassName17ScriptingClassPtrRN4core17string_with_labelILi1EEE
cTb:__ZN14SafeBinaryRead21TransferSTLStyleArrayINSt3__26vectorIN9ShaderLab20SerializedSubProgram12UAVParameterENS1_9allocatorIS5_EEEEEEvRT_17TransferMetaFlags
i0i:_Context_NotifyDynamicSinks_m1367144344
fW:__ZN24TextDOMTransferWriteBaseI9JSONWriteE12PushMetaFlagEi
Xsc:__Z18Transfer_BlittableI8JSONReadLb1E10ColorRGBAfEvRK29SerializationCommandArgumentsR31RuntimeSerializationCommandInfo
H_f:_TlsClientCertificateVerify__ctor_m110646389
wra:__ZN6prcoreL26RemapGenericIntegerToFloatI17TexFormatARGB888815TexFormatRFloatEEvPKNS_9InnerInfoE
r0i:_Context_GetServerContextSinkChain_m390126977
n9c:__ZN6il2cpp2vm17TypeNameParseInfoD2Ev
P5e:_StringReader_Read_m513112775
crb:__ZNK8Renderer8GetLayerEv
Qkb:__ZN12FlareManager11DeleteFlareEi
X_a:__ZNK6Camera20GetReplacementShaderEv
UVj:_glProgramBinary__wrapper
Ewe:_Decimal__ctor_m569480123_AdjustorThunk
Z7f:_HttpWebRequest__cctor_m3013631978
mDd:__ZNSt3__26__treeINS_12__value_typeINS_12basic_stringIcNS_11char_traitsIcEENS_9allocatorIcEEEEPFvvEEENS_19__map_value_compareIS7_SA_NS_4lessIS7_EELb1EEENS5_ISA_EEE4findIS7_EENS_15__tree_iteratorISA_PNS_11__tree_nodeISA_PvEEiEERKT_
pTb:__ZNSt3__26vectorIN9ShaderLab20SerializedSubProgram14ConstantBufferENS_9allocatorIS3_EEE7reserveEj
zva:__ZL23stbir__calculate_memoryP11stbir__info
IMg:__Z83RuntimeInvoker_Void_t1841601450_Int64_t909078037_Int32_t2071877448_Int64_t909078037PFvvEPK10MethodInfoPvPS4_
nBi:_Scrollbar_FindSelectableOnRight_m3219495255
yvc:__ZNK9rapidjson12GenericValueINS_4UTF8IcEE13JSONAllocatorE6AcceptINS_12PrettyWriterI16TempBufferWriterS2_S2_S3_EEEEbRT_
_Wa:__ZNK6Camera18GetRenderRectangleEv
rMe:_Array_InternalArray__ICollection_CopyTo_TisVector3_t2243707580_m509487340_gshared
gH:__Z82AnimatorControllerPlayable_CUSTOM_INTERNAL_CALL_IsParameterControlledByCurveStringR9HPlayableP12Il2CppString
ytc:__ZL26Transfer_SimpleNativeClassI8JSONRead10RectOffsetLb1EEvRK29SerializationCommandArgumentsR31RuntimeSerializationCommandInfo
BPc:__Z44CanvasRenderer_CUSTOM_INTERNAL_CALL_SetColorP12Il2CppObjectRK10ColorRGBAf
mTe:_Component_GetComponentInChildren_TisRuntimeObject_m1823576579_gshared
zni:__ZL68PreferBinarySerialization_t2472773525_CustomAttributesCacheGeneratorP21CustomAttributesCache
p_i:_UrlAttribute_Equals_m1587451932
Cqc:__Z18Transfer_BlittableI9JSONWriteLb1EsEvRK29SerializationCommandArgumentsR31RuntimeSerializationCommandInfo
MZe:_Int16_ToString_m4099416068_AdjustorThunk
Xqg:_DSAParameters_t1872138834_marshal_pinvoke_cleanup
Eac:__ZN9Transform16SetLocalRotationERK11Quaternionf
KKi:_AnimatorControllerPlayable_INTERNAL_CALL_GetIntegerID_m1635852922
M7i:_InternalEnumerator_1_get_Current_m3206960238_AdjustorThunk
xVa:__ZN13RenderManager37RenderCamerasWithScriptableRenderLoopEi
Yef:_ASN1_Element_m2600236165
N9:__ZN23InstancedPropInfoStaticL16RegisterCallbackEPv
$A:__ZN7mecanim8skeleton25SkeletonPoseComputeLocalQEPKNS0_8SkeletonEPKNS0_13SkeletonPoseTIN4math4trsXEEEPS7_ii
Vqd:__ZN6il2cpp2os19ReleaseSocketHandleEj
GS:__ZN11AudioModule16GetDSPSampleRateEv
wah:_TypeBuilder_get_next_table_index_m1415870184
IQj:___cxa_can_catch
LVf:_SequentialSearchPrimeGeneratorBase_GenerateNewPrime_m296245934
Ahe:_Char_GetUnicodeCategory_m4273361321
s7e:_Math_Round_m565516458
$$i:_Identity_get_ClientDynamicProperties_m767245959
asd:__ZN6il2cpp2os5posix15PosixWaitObjectC2ENS2_4TypeE
hZa:__ZN6Camera21PostMultiCustomRenderENS_10RenderFlagEb
Neh:_TypeBuilder_create_generic_class_m986834171
mLa:__ZN12_GLOBAL__N_112UploadImagesEP7ApiGLESjji14GraphicsFormatPKhjS2_iiii16TextureUsageModePh
Uya:__ZN23ShaderVariantCollection13WarmupShadersEv
T$f:_Context_set_ProtocolNegotiated_m1177527245
hBg:_UInt32_System_IConvertible_ToChar_m1056040486
n4:__Z25GetCommonScriptingClassesv
A5f:_TlsStream_get_Length_m1562309511
Lta:__Z27scripting_gc_collect_unsafei
LS:__ZN11AudioModule20SuspendVideoTexturesEv
r1b:__ZN12CubemapArrayC2E18MemLabelIdentifier18ObjectCreationMode
zpe:_Convert_ToByte_m395020137
hvh:_Plane_ToString_m3541300360_AdjustorThunk
wKb:__Z26Transfer_UnityEngineObjectI24GenerateTypeTreeTransferLb0EEvRK29SerializationCommandArgumentsR31RuntimeSerializationCommandInfo
QHc:_UNITY_FT_GlyphLoader_CheckPoints
C6e:_TextWriter_WriteLine_m1754475888
Fwa:__ZN15SharedLightData7PrecalcEv
DFd:__ZNK6il2cpp8metadata22Il2CppGenericClassHashclEPK18Il2CppGenericClass
kxj:_InvokableCall_1_Invoke_m769918017_gshared
xSe:_Array_InternalArray__get_Item_TisDouble_t4078015681_m2215331088_gshared
YGh:_Dictionary_2_Init_m3666073812_gshared
YSa:__ZN15ArchiveReadFileD0Ev
oif:_SymmetricTransform_TransformBlock_m1524716432
hIe:_Array_compare_TisColor32_t874517518_m3842009370_gshared
ySc:__ZN11UnityEngine15PlatformWrapper18GetOperatingSystemEv
LRf:_ReadOnlyCollection_1_System_Collections_Generic_ICollectionU3CTU3E_Remove_m974176789_gshared
bye:_Delegate_return_type_match_m4278947849
p9d:_InputField_GenerateHightlight_m1346735465
ilj:_Uri_ParseNoExceptions_m1151989845
Soe:_GC_SuppressFinalize_m953228702
MHc:_FT_MSB
Zph:_GUIStyle_get_clipping_m2754700641
flg:_SoapServices_PreLoad_m490411755
_Jg:__Z63RuntimeInvoker_RuntimeObject_Int32_t2071877448_SByte_t454417549PFvvEPK10MethodInfoPvPS4_
NDd:__ZN6il2cpp6icalls8mscorlib4Mono8Security12Cryptography18KeyPairPersistence10_CanSecureEP12Il2CppString
k2i:_Action_1_Invoke_m4180501989_gshared
D8c:__ZN6il2cpp2os4File11GetFileStatERKNSt3__212basic_stringIcNS2_11char_traitsIcEENS2_9allocatorIcEEEEPNS0_8FileStatEPi
wAa:__ZN13GfxDeviceGLES14SetRasterStateEPK17DeviceRasterState
f8d:_InputField_set_caretPositionInternal_m231166704
Qtj:_Transform_InverseTransformPoint_m2648491174
n$f:_TlsServerHello__ctor_m3032108168
eja:__ZN14SafeBinaryRead11EndTransferEv
YVh:__ZL98ILGenerator_t99948092_CustomAttributesCacheGenerator_ILGenerator_Mono_GetCurrentOffset_m3553856682P21CustomAttributesCache
VFb:__ZN14SafeBinaryRead8TransferI8MonoPPtrEEvRT_PKc17TransferMetaFlags
mcj:_InternalEnumerator_1_System_Collections_IEnumerator_get_Current_m1533037706_gshared
YLa:__ZN21UniformBufferTFMethod13MapBoneBufferEj
d3f:_RecordProtocol_SendChangeCipherSpec_m3542001341
xOe:_Array_InternalArray__set_Item_TisVector3_t2243707580_m1390667454_gshared
lkd:__ZNSt3__26vectorIcNS_9allocatorIcEEEC2Ej
lgf:_KeyPairPersistence_CanSecure_m2251009700
Dw:__ZN7mecanim5human14HumanPoseClearERNS0_9HumanPoseERKNS_6bitsetILj70EEE
Jig:_ReturnMessage_get_Properties_m531965085
xch:_GenericTypeParameterBuilder_IsSubclassOf_m563999142
CBe:_Exception_ToString_m627574695
wyc:__ZNSt3__26vectorIN20TextRenderingPrivate8FontImpl7IntRectE13stl_allocatorIS3_L18MemLabelIdentifier34ELi16EEE21__push_back_slow_pathIKS3_EEvRT_
cmc:__Z30Event_Get_Custom_PropModifiersP12Il2CppObject
It:__ZN7mecanim9animation16CreateClipOutputEPKNS0_4ClipERNS_6memory9AllocatorE
JMe:_Array_InternalArray__Insert_TisDecimal_t724701077_m1429254816_gshared
xxg:_TimeSpan_get_Days_m1002111510
vya:__ZNSt3__218__stable_sort_moveIRN10vector_mapI17ScriptingClassPtrPKN5Unity4TypeENS_4lessIS2_EENS_9allocatorINS_4pairIS2_S6_EEEEE13value_compareENS_11__wrap_iterIPSB_EEEEvT0_SJ_T_NS_15iterator_traitsISJ_E15difference_typeEPNSM_10value_typeE
YRb:__ZN6Shader21AwakeFromLoadThreadedEv
yqa:__ZN6prcoreL17RemapGenericFloatI17TexFormatRGBFloat17TexFormatRGBAHalfEEvPKNS_9InnerInfoE
wti:__ZL70InputField_t1631627530_CustomAttributesCacheGenerator_m_CharacterLimitP21CustomAttributesCache
jvc:__ZN8JSONRead21TransferSTLStyleArrayI13dynamic_arrayI8Vector2fLj4EEEEvRT_18MemLabelIdentifier17TransferMetaFlags
ZEd:__ZN6il2cpp2os9SemaphoreC2Eii
u4i:_InternalEnumerator_1_get_Current_m2960188445_AdjustorThunk
XFb:__ZNSt3__26vectorI8MonoPPtr13stl_allocatorIS1_L18MemLabelIdentifier1ELi16EEE8__appendEj
GFi:_Text_set_alignByGeometry_m1514652028
MZa:__ZN14qsort_internal30FindAndMovePivotToLastPositionIP17RODataReplacementi19ROSorterReplacementEEvT_S4_T0_T1_
hMa:__ZN15UniformTFMethod20IsBoneCountSupportedEi
vuh:_Object_Internal_InstantiateSingle_m2776302597
iMd:_X509Certificate_GetExpirationDateString_m2351894475
G2e:_FileStream_get_Position_m465478322
_$c:__ZN14dense_hash_setI10KeyWrapperIPK19Il2CppGenericMethodEN6il2cpp8metadata23Il2CppGenericMethodHashENS4_14EqualsComparerINS6_26Il2CppGenericMethodCompareEEENSt3__29allocatorIS4_EEEC2EjRKS7_RKSA_
RRj:dynCall_viidi
NMe:_Array_InternalArray__Insert_TisInt64_t909078037_m3039874636_gshared
qGi:_ToggleGroup_NotifyToggleOn_m997426227
n3f:_RSASslSignatureDeformatter_SetKey_m1150106904
f2:__ZN24ScriptingMethodFiltering17FilterOnSignatureENS_18MethodSearchFilterE
ZAi:_Scrollbar_ClickRepeat_m3403943364
YR:__ZN13ProduceHelperI9AudioClipLb0EE7ProduceE18MemLabelIdentifier18ObjectCreationMode
Nda:__ZN18ScreenManagerWebGL13SetLockCursorE14CursorLockMode
iHc:_cf2_arrstack_finalize
Y8e:_MonoType_GetMethodsByName_m1854415088
SAh:_Enumerator_get_CurrentValue_m3147984131_gshared
IJj:_DisplayBuffer_CutViewport_m34694897
Fah:_DerivedType_GetMethods_m165266904
Vhf:_RSAManaged_EncryptValue_m4089823119
Y_b:__ZN13MonoBehaviour19HandleNotificationsEPviR11MessageData
AFd:__ZN6il2cpp2os9EventImpl5ResetEv
Goh:_GUIStyle_set_focused_m1547304893
u3e:_ReadDelegate_Invoke_m2091885836
Obh:_TypeBuilder_GetField_m2112455315
rVj:b58
sVj:b59
$Uj:b52
aVj:b53
ZUj:b50
_Uj:b51
nVj:b56
qVj:b57
bVj:b54
cVj:b55
yia:__ZNK13RenderTexture22GetTypeVirtualInternalEv
$te:_DateTime__ctor_m3604679583_AdjustorThunk
ihf:_MACAlgorithm_Core_m2390605245
qbj:_InternalEnumerator_1_System_Collections_IEnumerator_get_Current_m30488070_gshared
TZb:__ZN10GameObject12CleanupClassEv
dZi:_DllImportAttribute__ctor_m1165454237
aBa:__ZN9GfxDevice25SetShaderPropertiesSharedERK19ShaderPropertySheet
Yzj:_IndexedSet_1_GetEnumerator_m3646001838_gshared
mDb:__ZN10MonoScript17MainThreadCleanupEv
oHa:__ZN18AsyncUploadManager19AsyncResourceUploadER9GfxDeviceii9TextureID
tzi:_VertexHelper_AddUIVertexTriangleStream_m4009409241
E2b:__ZL25InitializeDefaultMaterialv
$Pc:__Z53Register_UnityEngine_CanvasRenderer_get_materialCountv
kxg:_WaitHandle_Dispose_m441403862
UGi:_VertexHelper_AddVert_m3290455716
Ixa:__ZN17PersistentManager12UnloadStreamERKN4core12basic_stringIcNS0_20StringStorageDefaultIcEEEEb
Eda:__ZN13ScreenManager17RequestResolutionEiibi
qqg:_DESTransform__ctor_m4096028381
S7c:_il2cpp_unity_liveness_calculation_from_statics
kx:__ZNK26AnimatorControllerPlayable11DerivesFromE17ScriptingClassPtr
Mwg:_Scheduler_get_Instance_m1989471839
J9f:_WebProxy_GetProxy_m1249556681
Q9f:_WebRequest_System_Runtime_Serialization_ISerializable_GetObjectData_m3377822910
Drb:__ZN8Renderer8TransferI17RemapPPtrTransferEEvRT_
X5g:__Z76RuntimeInvoker_Boolean_t3825574718_UIVertex_t1204258818_UIVertex_t1204258818PFvvEPK10MethodInfoPvPS4_
wHf:_Collection_1_Contains_m1299140035_gshared
pVj:_glBlitFramebuffer__wrapper
jLe:_Array_InternalArray__ICollection_Add_TisUICharInfo_t3056636800_m968274080_gshared
gBj:_ObjectPool_1__ctor_m1532275833_gshared
uyf:_List_1_GetIndex_m3262928832_gshared
NZi:_SafeHandle_DangerousRelease_m2167699172
V7a:__Z24LookRotationToQuaternionRK8Vector3fS1_P11Quaternionf
T7a:__ZN16ReflectionProbes9GetCameraEv
rMi:_AnimatorControllerPlayable_ResolveHash_m3629783965_AdjustorThunk
uWb:__ZL18IsGpuProgramUsable20ShaderGpuProgramTypePK6Shader
xlf:_ArgumentException__ctor_m2105824819
BOc:__ZN2UI6Canvas17SetSortingLayerIDEi
XZd:_BaseMeshEffect_get_graphic_m3358796463
Zrd:__ZN6il2cpp2vm11MethodStack23CleanupForCurrentThreadEv
qLj:_Predicate_1_Invoke_m695569038_gshared
anf:_Enumerator_VerifyState_m825848279_AdjustorThunk
mlb:__ZN20TierGraphicsSettings8TransferI24GenerateTypeTreeTransferEEvRT_
f1c:__ZN15dense_hashtableINSt3__24pairIK10KeyWrapperIN6il2cpp5utils13dynamic_arrayIPK10Il2CppTypeLj4EEEEPFvvEEESA_NS3_8metadata19Il2CppSignatureHashEN14dense_hash_mapISA_SD_SG_NSA_14EqualsComparerINSF_22Il2CppSignatureCompareEEENS0_9allocatorISE_EEE9SelectKeyESK_SM_E16reset_thresholdsEv
qHb:__ZN14SafeBinaryRead21TransferSTLStyleArrayI13dynamic_arrayI4AABBLj4EEEEvRT_17TransferMetaFlags
Tna:__ZN18UnityPropertySheet8TransferI19StreamedBinaryWriteILb0EEEEvRT_
B1f:_TlsServerCertificate_checkServerIdentity_m3836435780
Gba:__ZNSt3__26__treeINS_12__value_typeIiN11TypeManager18TypeCallbackStructEEENS_19__map_value_compareIiS4_NS_4lessIiEELb1EEENS_9allocatorIS4_EEE7destroyEPNS_11__tree_nodeIS4_PvEE
Xif:_PKCS12_Decrypt_m2353135969
aXi:_PersistentCallGroup_Initialize_m3908067069
$gh:_MonoEvent_ToString_m386956596
ani:__ZL70RuntimePlatform_t1869584967_CustomAttributesCacheGenerator_FlashPlayerP21CustomAttributesCache
GPe:_Array_Sort_TisRuntimeObject_m3309514378_gshared
wka:__ZL19GetCameraTargetRectRK6Camerabb
jDh:_Transform_1_BeginInvoke_m1786442111_gshared
pZe:_Int32_GetFormatException_m1729046182
M8a:__ZN13dynamic_arrayIN10GameObject13ComponentPairELj4EE6insertEPS1_RKS1_
dgb:__ZN21UnityDefaultAllocatorI17LowLevelAllocatorE10DeallocateEPv
tZ:__GLOBAL__sub_I_runtime_camera2_lump_cpp
Kr:__ZN15PackedIntVector8TransferI14SafeBinaryReadEEvRT_
yfh:_FieldInfo_get_IsLiteral_m267898096
B4f:_SslStreamBase_EndNegotiateHandshake_m1732321201
HDh:_Transform_1_BeginInvoke_m1167293475_gshared
bK:__ZN13AudioListener8DoUpdateEv
upe:__Z13bankers_roundd
wzb:__ZN14SafeBinaryRead8TransferI5RectTIfEEEvRT_PKc17TransferMetaFlags
vi:_emscripten_glGenFramebuffers
Ame:_Hashtable_CopyTo_m2778915805
Bba:__ZN17BaseObjectManager16StaticInitializeEPv
V9g:_ConstructorBuilder_get_IsCompilerContext_m2796899803
WIe:_Array_IndexOf_TisUIVertex_t1204258818_m613887160_gshared
AAb:__ZN18StreamedBinaryReadILb0EE19TransferSTLStyleMapINSt3__28multimapIN4core12basic_stringIcNS4_20StringStorageDefaultIcEEEE4PPtrI6ObjectENS2_4lessIS8_EE13stl_allocatorINS2_4pairIKS8_SB_EEL18MemLabelIdentifier51ELi16EEEEEEvRT_17TransferMetaFlags
Vpe:_DateTime_CoreParse_m2014268103
Yvf:_List_1__ctor_m3698273726_gshared
COi:_Application_InvokeOnBeforeRender_m799598445
grc:__Z18Transfer_BlittableI9JSONWriteLb0EyEvRK29SerializationCommandArgumentsR31RuntimeSerializationCommandInfo
Cka:__ZN13RenderTexture15ThreadedCleanupEv
yWc:__ZNK20UnityWebRequestProtoI19TransportJavaScript16AtomicRefCounter14RedirectHelper14ResponseHelper15DownloadHandler13UploadHandler12HeaderHelper14AsyncOperationE19GetDownloadProgressEv
WHe:_Array_BinarySearch_TisRuntimeObject_m3361740551_gshared
_nb:__ZN12CubemapArray23VirtualRedirectTransferER14SafeBinaryRead
Lt:__ZN21AnimationClipPlayable16ProcessHumanPassEPK35AnimationPlayableEvaluationConstantPK32AnimationPlayableEvaluationInputP33AnimationPlayableEvaluationOutput
pec:__Z51Register_UnityEngine_QualitySettings_set_vSyncCountv
SRf:_ReadOnlyCollection_1_System_Collections_IList_Add_m616574295_gshared
qZe:_Int32_ProcessTrailingWhitespace_m2812079777
ahc:__Z43RectTransform_CUSTOM_INTERNAL_set_sizeDeltaP12Il2CppObjectRK13Vector2fIcall
E9f:_WebProxy__ctor_m3679722173
god:__ZN15dense_hashtableINSt3__24pairIK10KeyWrapperINS1_IPKcS4_EEEiEES6_24NamespaceAndNamePairHashN14dense_hash_mapIS6_iS9_NS6_14EqualsComparerI26NamespaceAndNamePairEqualsEENS0_9allocatorIS8_EEE9SelectKeyESD_SF_E6insertERKS8_
Ija:__ZN24GenerateTypeTreeTransfer18BeginArrayTransferEPKcS1_Ri17TransferMetaFlags
uHa:__Z16DecompressCrunchPKhRjR13TextureFormatiiii18MemLabelIdentifier
nm:___syscall51
rm:___syscall54
Ayj:_UnityAction_2_Invoke_m1994351568_gshared
SC:__ZNK8Animator20IsAnyRendererVisibleEv
RHc:_cff_builder_add_point1
apd:__ZN6il2cpp2vm5Image21GetCachedResourceDataEPK11Il2CppImageRKNSt3__212basic_stringIcNS5_11char_traitsIcEENS5_9allocatorIcEEEE
I5d:_HorizontalOrVerticalLayoutGroup_set_childControlWidth_m4209477792
ZKe:_Array_InternalArray__ICollection_Add_TisUInt32_t2149682021_m2629016323_gshared
OEb:__Z18Transfer_BlittableI14SafeBinaryReadLb0E10ColorRGBAfEvRK29SerializationCommandArgumentsR31RuntimeSerializationCommandInfo
za:invoke_iiiiiiiiii
BMe:_Array_InternalArray__Insert_TisKeyValuePair_2_t888819835_m975554221_gshared
GMg:__Z59RuntimeInvoker_RuntimeObject_Int64_t909078037_RuntimeObjectPFvvEPK10MethodInfoPvPS4_
jta:__ZN18LoadSceneOperation19IntegrateTimeSlicedEi
Xwg:_Scheduler_SchedulerThread_m2209572785
acf:_SortKeyBuffer_GetResultAndReset_m2516956577
Pdb:__ZN10FileSystem19SetCurrentDirectoryERKN4core12basic_stringIcNS0_20StringStorageDefaultIcEEEE
J4:__ZN16ScriptingManager24NotifyScriptCacheReleaseEi
Ibc:__Z47Register_UnityEngine_Coroutine_ReleaseCoroutinev
JK:__ZN15AudioReverbZone13SetFMODValuesEv
dUi:_Component_GetComponentInChildren_m3925629424
i1:__ZL19StaticDestroyShaderPv
he:_glRenderbufferStorageMultisample
qy:__ZN23AnimationPlayableOutput17SetTargetAnimatorEP8Animator
Ioj:_X509Chain__ctor_m1113875360
DHb:__Z35Transfer_Blittable_SingleValueFieldI14SafeBinaryReadfEvRT_R17GeneralMonoObjectRK23StaticTransferFieldInfo
W1f:_TlsServerHello_processProtocol_m1241336522
SEe:_Array_InternalArray__ICollection_Remove_TisKeyValuePair_2_t888819835_m1287715465_gshared
P0i:_ContextAttribute_IsContextOK_m3281216012
G4e:_PathTooLongException__ctor_m3212099251
fng:_ObjectManager_RaiseDeserializationEvent_m1611173032
RJi:_AnimatorControllerPlayable_INTERNAL_CALL_CreateHandleInternal_m1836196929
Tr:__ZN17PackedFloatVector8TransferI18StreamedBinaryReadILb0EEEEvRT_
Gob:__ZN7Cubemap23VirtualRedirectTransferER17RemapPPtrTransfer
sec:__Z37Register_UnityEngine_Screen_get_widthv
$5b:__ZN22BlockMemoryCacheWriter11GetPathNameEv
b4d:_Graphic_Rebuild_m2617722358
zve:_DateTime_ToString_m3108726445_AdjustorThunk
jV:__ZN19CloudServiceHandlerD2Ev
gSe:_Array_InternalArray__get_Item_TisTableRange_t2011406615_m602485977_gshared
i9d:_InputField_Append_m2623574152
qlf:_ApplicationException__ctor_m1120437222
ip:stackAlloc
acc:__Z44Camera_CUSTOM_INTERNAL_CALL_ScreenPointToRayP12Il2CppObjectRK8Vector3fR3Ray
hRa:__ZN25SingleBlockMemoryFileData4LockEPPv
Vdh:_MethodBuilder_GetHashCode_m1713271764
CDe:_Array_get_swapper_TisUIVertex_t1204258818_m1078858558_gshared
jbf:_MSCompatUnicodeTable_GetResource_m3816716847
jdc:__Z32RectOffset_Get_Custom_PropBottomP12Il2CppObject
nce:_Array_CreateInstance_m15016505
QGb:__ZNSt3__26vectorI17AnimationCurveTplIfE13stl_allocatorIS2_L18MemLabelIdentifier1ELi16EEE6assignINS_11__wrap_iterIPS2_EEEENS_9enable_ifIXaasr21__is_forward_iteratorIT_EE5valuesr16is_constructibleIS2_NS_15iterator_traitsISC_E9referenceEEE5valueEvE4typeESC_SC_
LNj:_stat
Wi:_JS_Eval_ClearTimeout
oZj:_glUniform2fv__wrapper
$Le:_Array_InternalArray__ICollection_CopyTo_TisUInt16_t986882611_m3228377237_gshared
fui:__ZL68Navigation_t1571958496_CustomAttributesCacheGenerator_m_SelectOnDownP21CustomAttributesCache
FRi:_Bounds_op_Inequality_m2315096783
Yaj:_InternalEnumerator_1_System_Collections_IEnumerator_get_Current_m3065287496_gshared
iza:__ZNSt3__218__insertion_sort_3IRNS_4lessIN22BuiltinResourceManager8ResourceEEEPS3_EEvT0_S7_T_
zUi:_Component_BroadcastMessage_m1308086896
YHd:_RC2_set_KeySize_m2015782960
la:invoke_iiiiiiiiiiii
Lif:_StrongName_get_PublicKey_m3777577320
WFe:_PlayableHandle_IsPlayableOfType_TisAnimationLayerMixerPlayable_t3057952312_m964258557_gshared
cec:__Z43Register_UnityEngine_GameObject_SendMessagev
R7:__ZNSt3__26__treeINS_12__value_typeIN4core12basic_stringIcNS2_20StringStorageDefaultIcEEEES6_EENS_19__map_value_compareIS6_S7_NS_4lessIS6_EELb1EEE13stl_allocatorIS7_L18MemLabelIdentifier12ELi16EEE7destroyEPNS_11__tree_nodeIS7_PvEE
LYc:__ZN6il2cpp2vm17SetupFieldsLockedEP11Il2CppClassRKNS_2os12FastAutoLockE
cO:__ZN11AudioSourceD0Ev
$Si:_CanvasRenderer_set_hasPopInstruction_m1388844875
oeb:__ZN16MemoryFileSystem4NameEv
KUd:_BaseRaycaster_OnEnable_m3641767070
K7e:_MissingMemberException_get_Message_m2763732423
GVf:_PrimeGeneratorBase_get_PrimalityTest_m308005118
Iph:_GUIStyle_Internal_CalcSize_m1309259680
Flc:__ZNK8GUIStyle8CalcSizeER10GUIContent
Trf:_List_1_CheckIndex_m2328469916_gshared
dQg:__Z75RuntimeInvoker_RuntimeObject_RuntimeObject_Decimal_t724701077_RuntimeObjectPFvvEPK10MethodInfoPvPS4_
pzc:_UNITY_FT_New_Size
DH:__Z96Register_UnityEngine_Animations_AnimatorControllerPlayable_INTERNAL_CALL_PlayInFixedTimeInternalv
DBf:_List_1_get_Item_m3157283227_gshared
VIh:_Dictionary_2_ToTKey_m965425080_gshared
Xxj:_InvokableCall_4_Invoke_m1555001411_gshared
Zse:_Convert_ToString_m2915777777
toa:__ZNSt3__27__sort4IRPFbRKNS_4pairIN9ShaderLab16FastPropertyNameEN18UnityPropertySheet11UnityTexEnvEEES8_EPS6_EEjT0_SD_SD_SD_T_
eHc:_cf2_hintmap_build
hda:__ZN15dense_hashtableINSt3__24pairIKN4core12basic_stringIcNS2_20StringStorageDefaultIcEEEE10vector_setI4PPtrI11SpriteAtlasENS0_4lessISB_EE13stl_allocatorISB_L18MemLabelIdentifier79ELi16EEEEES6_20StringHash32FunctionIS6_EN14dense_hash_mapIS6_SH_SK_NS0_8equal_toIS6_EESE_ISI_LSF_79ELi16EEE9SelectKeyESN_SO_E5clearEv
UEc:_Line_Up
F9e:_MonoType_GetGenericTypeDefinition_m2363776160
b0f:_Context_set_SentConnectionEnd_m2641458842
oe:_emscripten_glBufferSubData
yfe:_Buffer_BlockCopyInternal_m2627156229
W3d:_Graphic_set_material_m329335629
w5:__Z20GetCommonStringTablev
Apa:__ZN6prcoreL12RemapGenericI15TexFormatRGB88817TexFormatARGB8888EEvPKNS_9InnerInfoE
Jp:__Z17CalculateGlobalRS23TransformAccessReadOnly
lCd:__ZNSt3__210__list_impIPN6il2cpp5utils10MemoryPool6RegionENS_9allocatorIS5_EEE5clearEv
YRi:_Camera_ScreenPointToRay_m614889538
Ldf:_Kernel_multiByteDivide_m735279869
LJh:_Dictionary_2_ToTValue_m542772656_gshared
vwg:_Thread_GetNewManagedId_internal_m3211695465
Gkh:_SkinChangedDelegate_Invoke_m2801964040
ATe:_ScriptableObject_CreateInstance_TisRuntimeObject_m926060499_gshared
bHa:__ZN17GenericDynamicVBO17DrawChunkInternalERK21DynamicVBOChunkHandle17ShaderChannelMaskS3_P17VertexDeclarationP16DrawBuffersRangeij
LRb:__ZN22MemoryCacherReadBlocks14LockCacheBlockEjPPhS1_
zee:_Boolean_System_IConvertible_ToChar_m2637404801_AdjustorThunk
hOd:_SecurityContext_Capture_m2535194991
zAg:_UInt16_System_IConvertible_ToSByte_m3044765342_AdjustorThunk
zwd:__ZN4utf88internal15increase_safelyIPKcEENS0_9utf_errorERT_S5_
oyc:__ZN20TextRenderingPrivate8FontImpl16CacheFontForTextEPtiifjPK13dynamic_arrayINS_16TextFormatChangeELj4EE
SOe:_Array_qsort_TisUIVertex_t1204258818_TisUIVertex_t1204258818_m512606409_gshared
SHd:__Z21ArrayElementTypeCheckP11Il2CppArrayPv
IYj:_emscripten_glTexSubImage2D__wrapper
j7f:_NameValueCollection_AsSingleString_m10599052
DPj:__ZNSt3__212basic_stringIcNS_11char_traitsIcEENS_9allocatorIcEEE6appendEjc
Gaf:_Object_InternalGetHashCode_m1371384246
kzi:_Navigation_get_defaultNavigation_m2185194207
d_e:_Int32_System_IConvertible_ToSByte_m1449623243_AdjustorThunk
Kkf:_AccessViolationException__ctor_m1270251537
fRc:__Z42Register_UnityEngine_Canvas_get_rootCanvasv
$oj:_X509ExtensionCollection_IndexOf_m3972100651
UFb:__Z14resize_trimmedINSt3__26vectorI8MonoPPtr13stl_allocatorIS2_L18MemLabelIdentifier1ELi16EEEEEvRT_j
Xe:_TTF_RenderText_Solid
tBg:_UInt32_System_IConvertible_ToInt64_m3091851828
O7e:_MissingMethodException__ctor_m3898429715
Gkg:_RemotingConfiguration_RegisterClientProviderTemplate_m514821425
FBh:_Enumerator_System_Collections_IEnumerator_Reset_m3085583937_gshared
Whf:_RSAManaged_ExportParameters_m2873993187
Voe:_Convert__cctor_m926133987
tCf:_Enumerator__ctor_m2816143215_AdjustorThunk
eVc:__ZN11UnityEngine7Connect16PersistentValuesC2Ev
wcg:_X509Chain_FindParent_m404663796
M7e:_MissingMemberException__ctor_m2164043278
MNd:__Z15CastclassSealedP12Il2CppObjectP11Il2CppClass
dKa:__Z15IsIEEE754Format14GraphicsFormat
XIb:__Z19TransferField_ArrayI17RemapPPtrTransfer27Converter_UnityEngineObjectEvRK23StaticTransferFieldInfoR31RuntimeSerializationCommandInfoRT0_
$a:invoke_iifiii
r1a:__ZN19ShaderPropertySheet24SetTextureFromTextureRefERK23FastTexturePropertyNamePK10TextureRef
G$e:_NumberFormatter_InitDecHexDigits_m1612588520
nCa:__ZN13GfxDeviceGLES15UploadTexture2DE9TextureID16TextureDimensionPKhiii14GraphicsFormati18TextureUploadFlags16TextureUsageMode
Z$e:_IntPtr_System_Runtime_Serialization_ISerializable_GetObjectData_m21554269_AdjustorThunk
AM:__ZN4FMOD6System9createDSPEP20FMOD_DSP_DESCRIPTIONPPNS_3DSPE
esh:_Material_HasProperty_m3175512802
Ux:__ZN7mecanim9animation26DestroyControllerWorkspaceEPNS0_19ControllerWorkspaceERNS_6memory9AllocatorE
QI:__ZN4FMOD8ChannelI11EndCallbackEv
ILd:_ToBase64Transform_TransformBlock_m2201454137
tlc:__ZN8GUIStyle14SetDefaultFontEPN13TextRendering4FontE
Eeh:_OpCode_get_StackBehaviourPop_m3787015663_AdjustorThunk
Sgj:_PatternCompiler_EmitCount_m3609178511
isb:__ZN15QualitySettings23VirtualRedirectTransferER24GenerateTypeTreeTransfer
YKj:_U3CCreateWhereIteratorU3Ec__Iterator1D_1_System_Collections_Generic_IEnumerableU3CTSourceU3E_GetEnumerator_m2682676065_gshared
kTe:_Component_GetComponent_TisRuntimeObject_m4109961936_gshared
Dph:_GUIStyle_Internal_GetCursorStringIndex_m1491806746
x8c:__ZN6il2cpp2os10FileHandleC2Ev
bgc:__Z59Register_UnityEngine_MonoBehaviour_Internal_CancelInvokeAllv
w$c:__ZN30dense_hashtable_const_iteratorINSt3__24pairIK10KeyWrapperIPK19Il2CppGenericMethodEPK26Il2CppGenericMethodIndicesEES6_N6il2cpp8metadata23Il2CppGenericMethodHashEN14dense_hash_mapIS6_SA_SE_NS6_14EqualsComparerINSD_26Il2CppGenericMethodCompareEEENS0_9allocatorISB_EEE9SelectKeyESI_SK_EppEv
c6f:_HybridDictionary_Add_m1037587952
lsh:_Mathf_Cos_m238853451
Tyc:_UNITY_FT_Request_Metrics
Gmd:__ZN6il2cpp6icalls8mscorlib6System10Reflection10MonoMethod29get_IsGenericMethodDefinitionEP22Il2CppReflectionMethod
ljd:__ZN6il2cpp2vm6Thread21AllocThreadStaticDataEi
Xpe:_DateTime_YearMonthDayFormats_m4204607055
C$d:_ColorBlock_set_disabledColor_m3502887543_AdjustorThunk
uvd:__ZN30dense_hashtable_const_iteratorINSt3__24pairIK10KeyWrapperIPK19Il2CppGenericMethodEP10MethodInfoEES6_N6il2cpp8metadata23Il2CppGenericMethodHashEN14dense_hash_mapIS6_S9_SD_NS6_14EqualsComparerINSC_26Il2CppGenericMethodCompareEEENS0_9allocatorISA_EEE9SelectKeyESH_SJ_EppEv
fS:__Z13RegisterClassI13AudioListenerEvv
UBj:_Aes__ctor_m4020215067
uF:__ZN23AnimationOffsetPlayable11GetPositionEv
rqc:__Z18Transfer_BlittableI9JSONWriteLb0E8Vector3fEvRK29SerializationCommandArgumentsR31RuntimeSerializationCommandInfo
Wf:_emscripten_glUniform4i
$3d:_Graphic_OnDisable_m2360886868
mBj:_ObjectPool_1_Release_m1615270002_gshared
gf:_emscripten_glUniform4f
zj:___unlock
uH:__Z105Register_UnityEngine_Animations_AnimatorControllerPlayable_INTERNAL_CALL_GetAnimatorClipInfoCountInternalv
GCi:_ScrollRect_InternalCalculateOffset_m3083065267
Tke:_Comparer_Compare_m4132969818
PO:__ZN20SoundChannelInstance19setReverbPropertiesEP29FMOD_REVERB_CHANNELPROPERTIES
RE:__ZNK26AnimatorControllerPlayable14IsInTransitionEi
DLh:_DefaultComparer_Equals_m2171836276_gshared
zsg:_Latin1Encoding_GetByteCount_m2621626395
ljc:__Z40Register_UnityEngine_Transform_IsChildOfv
iph:_GUIStyle_Draw_m1435796321
Lie:_ArrayList_Sort_m923359189
_cc:__Z45Register_UnityEngine_Display_GetSystemExtImplv
Iu:__ZN7mecanim9animation23TransformValuesFromClipEiiiRKNS_10ValueArrayERKNS0_10ClipOutputERKNS0_12ClipBindingsERS1_RNS_14ValueArrayMaskEb
tRi:_Bounds_set_center_m2069004927_AdjustorThunk
znc:__Z46GUIStyle_CUSTOM_Internal_DrawWithTextSelectionP12Il2CppObjectR43MonoInternal_DrawWithTextSelectionArguments
wXc:__ZL17log2withScale_128yyi
lNc:__ZNSt3__218__insertion_sort_3IRNS_6__lessIN2UI14DepthSortEntryES3_EEPS3_EEvT0_S7_T_
xhh:_MonoField_CheckGeneric_m1527550038
W9:__ZN13RuntimeStaticI15DirectorManagerLb0EE16StaticInitializeEPv
Utc:__ZN8JSONRead8TransferI23ManagedObjectTransfererEEvRT_PKc17TransferMetaFlagsb
$Vf:_ASN1_get_Value_m2229768312
cUd:_BaseInput_get_touchCount_m998724785
xyb:__ZN11TimeManager6UpdateEv
C9d:_InputField_get_preferredWidth_m3185355225
Ukh:_GUIUtility_get_pixelsPerPoint_m2667928361
nwg:_Thread_SetState_m3198426726
dje:_ArrayListWrapper_Contains_m1158465965
CSe:_Array_InternalArray__get_Item_TisRuntimeObject_m371871810_gshared
SNj:_fflush
uua:__ZN17LightProbeContext4InitERK16LightmapSettingsRK14RenderSettings
TFd:__GLOBAL__sub_I_Error_cpp
djj:_Alternation_GetWidth_m4218808325
Nua:__ZN9Texture3DD2Ev
hBc:_ft_bitmap_glyph_bbox
q7f:_TypeConverterAttribute__ctor_m4061167050
Trd:__ZN6il2cpp2vm11MethodStack17GetStackFramesRawEv
B2f:_RecordProtocol_ProcessChangeCipherSpec_m3233959862
H5a:__Z34ProcessIndexListIsNodeVisibleStep2RK22SceneCullingParametersPK9SceneNodePK4AABBR9IndexList
kDb:__ZN10MonoScriptD2Ev
NEi:_Slider_OnRectTransformDimensionsChange_m4109401172
A9f:_WebHeaderCollection_Get_m3391944907
Aec:__Z39Input_CUSTOM_INTERNAL_get_mousePositionP8Vector3f
VDc:_tt_cmap13_char_next
QUa:__ZN9ShaderLab4Pass16SetupPassOptionsEv
Nzj:_UnityEvent_4__ctor_m3102731553_gshared
ih:_JS_Sound_ReleaseInstance
Rmi:__ZL72IL2CPPStructAlignmentAttribute_t130316838_CustomAttributesCacheGeneratorP21CustomAttributesCache
oBa:__ZN13GfxDeviceGLES19DrawBuffersIndirectEP9GfxBufferPK18VertexStreamSourceiP17VertexDeclaration17ShaderChannelMask16GfxPrimitiveType15ComputeBufferIDj
MHi:_AnimationClipPlayable__ctor_m1126286616
bAh:_Renderer_get_sortingLayerID_m2403577271
CFb:__Z35Transfer_Blittable_FixedBufferFieldI14SafeBinaryReaddEvRK29SerializationCommandArgumentsR31RuntimeSerializationCommandInfo
rXj:_emscripten_glPixelStorei__wrapper
eRg:__Z98RuntimeInvoker_Void_t1841601450_Int32_t2071877448_Int32_t2071877448_SByte_t454417549_RuntimeObjectPFvvEPK10MethodInfoPvPS4_
ohc:__Z21Resources_CUSTOM_LoadP12Il2CppStringP12Il2CppObject
Em:FUNCTION_TABLE_diddi
wjd:__ZN6il2cpp6icalls8mscorlib6System5Array8FastCopyEP11Il2CppArrayiS5_ii
thc:__Z26Material_CUSTOM_SetIntImplP12Il2CppObjectii
_Ye:_Int16_System_IConvertible_ToSingle_m3277935657_AdjustorThunk
KNi:_AnimatorControllerPlayable_HasState_m3003093532_AdjustorThunk
TMc:__ZNK2UI14CanvasRenderer22GetTypeVirtualInternalEv
p1i:_InternalRemotingServices__cctor_m3821625125
wdc:__Z42Register_UnityEngine_RectOffset_get_bottomv
rtg:_StringBuilder_Insert_m3322917127
JKh:_DefaultComparer_Equals_m724229128_gshared
uCh:_Enumerator_VerifyCurrent_m1702320752_AdjustorThunk
zre:_Convert_ToDouble_m3520060872
MWj:_emscripten_glUniform1f__wrapper
zRj:dynCall_di
t3f:_SslCipherSuite_ComputeServerRecordMAC_m1876572367
_xc:__ZN20TextRenderingPrivate19NativeTextGeneratorC2ERK11UTF16StringPNS_8FontImplE11ColorRGBA32ifRK8Vector2fbifiibffbbbP13dynamic_arrayIN2UI8UIVertexELj4EE
_pc:__Z28RegisterModule_JSONSerializev
Cvg:_Interlocked_CompareExchange_m3227034792
uGd:_HashAlgorithm_get_Hash_m931854461
Gej:_DefaultComparer_Compare_m3564013922_gshared
YXb:__ZN2UI13RectTransform8TransferI14SafeBinaryReadEEvRT_
crc:__Z35Transfer_Blittable_FixedBufferFieldI9JSONWriteaEvRK29SerializationCommandArgumentsR31RuntimeSerializationCommandInfo
y7b:__Z20IsHumanControllingUsv
bWa:__ZNK19RenderEventsContext21ExecuteCommandBuffersEijR17ShaderPassContextR15RenderNodeQueueP19ProfilerInformationi
t_:__ZNK20DynamicHeapAllocatorI17LowLevelAllocatorE10GetPtrSizeEPKv
zFd:__ZN6il2cpp2os9EventImpl3SetEv
V1d:_Dropdown_set_value_m2945561009
fBa:__ZN13GfxDeviceGLES17DestroyGpuProgramEPK10GpuProgram
mWe:_GregorianCalendar_GetMonth_m523739832
qEb:__Z44InitializeTransferFunctionScriptingTraitsForI18StreamedBinaryReadILb0EEEvR31TransferFunctionScriptingTraits
F1a:__ZNSt3__218__insertion_sort_3IR23CompareReflectionProbesP31RuntimeReflectionProbeBlendInfoEEvT0_S5_T_
fJb:__ZN12NativeBufferI27Converter_SimpleNativeClassI8GradientEE15SetupForWritingER9ArrayInfo
Dca:__ZNSt3__213__stable_sortIRNS_4lessIN4core12basic_stringIcNS2_20StringStorageDefaultIcEEEEEENS_11__wrap_iterIPS6_EEEEvT0_SC_T_NS_15iterator_traitsISC_E15difference_typeEPNSF_10value_typeEi
_jh:_GameObject_AddComponent_m3757565614
tda:__ZN12_GLOBAL__N_113StaticDestroyEPv
xYe:_Guid_ToString_m51661589
Bkc:__ZNK8GUIStyle4DrawER8GUIStateRK5RectTIfER10GUIContentbbbb
sFi:_Text_set_font_m1095513810
x$j:_glUnmapBuffer__wrapper
Iue:_DateTime_System_IConvertible_ToUInt32_m1363211018_AdjustorThunk
V6d:_InputField_get_cachedInputTextGenerator_m881618486
CSi:_Canvas_get_rootCanvas_m1790974328
ufc:__Z32Mesh_CUSTOM_ExtractArrayFromListP12Il2CppObject
z8g:_Binder_get_DefaultBinder_m965620943
xuc:__ZN8JSONRead21TransferSTLStyleArrayINSt3__26vectorI8Gradient13stl_allocatorIS3_L18MemLabelIdentifier1ELi16EEEEEEvRT_17TransferMetaFlags
Uyb:__ZNSt3__218__insertion_sort_3IRNS_6__lessINS_4pairIPKN5Unity4TypeE7Hash128EES8_EEPS8_EEvT0_SC_T_
HKb:__ZN10RectOffset8TransferI24GenerateTypeTreeTransferEEvRT_
nde:_SimpleEnumerator_get_Current_m482975946
n8b:__Z18GetResourceManagerv
wOj:_srand
_Mc:__ZN2UI13CanvasManager19RemoveDirtyRendererEPNS_6CanvasEPNS_14CanvasRendererE
v0c:__ZN15dense_hashtableI10KeyWrapperIPK17Il2CppGenericInstES4_N6il2cpp8metadata21Il2CppGenericInstHashEN14dense_hash_setIS4_S7_NS4_14EqualsComparerINS6_24Il2CppGenericInstCompareEEENSt3__29allocatorIS4_EEE8IdentityESB_SE_E12resize_deltaEjj
OQi:_AudioClip_InvokePCMSetPositionCallback_Internal_m2304858844
kSc:__ZN11UnityEngine15PlatformWrapper25GetGraphicsRendererStringEv
Q8d:_InputField_KeyPressed_m3066588581
Lsj:_Time_get_unscaledTime_m862335845
SDi:_Selectable_DoStateTransition_m539253088
RKd:_SHA512_Create_m439875055
PY:__ZN11UnityEngine15CloudWebService17WebFileDownloaderINS0_20WebRequestRestClientENS0_23WebRequestRestHeaderMapEED2Ev
Xb:invoke_vi
JKd:_SHA384Managed_update_m2629600295
XPa:__ZN15dense_hashtableINSt3__24pairIKN4core12basic_stringIcNS2_20StringStorageDefaultIcEEEEP20ArchiveStorageReaderEES6_20StringHash32FunctionIS6_EN14dense_hash_mapIS6_S9_SC_NS0_8equal_toIS6_EE13stl_allocatorISA_L18MemLabelIdentifier54ELi16EEE9SelectKeyESF_SI_ED2Ev
Vb:invoke_vd
ub:invoke_vf
o6:__ZNK10GameObject8IsActiveEv
Z9e:_NumberFormatter__cctor_m1641464619
$og:_SByte_System_IConvertible_ToUInt32_m4256495110
GWd:_PointerEventData_set_eligibleForClick_m2036057844
UJa:__ZN18GfxFramebufferGLES23SetupDefaultFramebufferEPP17RenderSurfaceBaseS2_N2gl6HandleILNS3_10ObjectTypeE9EEE
_Nj:_mbsinit
Soh:_GUIStyle_get_Internal_clipOffset_m4237737448
vpi:__ZL70EventSystem_t3466835263_CustomAttributesCacheGenerator_m_FirstSelectedP21CustomAttributesCache
bea:__ZN13ScreenManager18RequestOrientationE17ScreenOrientation
iZc:__ZN6il2cpp2vm5Class12SetupMethodsEP11Il2CppClass
Pac:__Z39DeleteLastPathNameComponentWithAnySlashRKN4core12basic_stringIcNS_20StringStorageDefaultIcEEEE
Dkc:__ZN10GUIManager14InitGUIManagerEv
sti:__ZL68InputField_t1631627530_CustomAttributesCacheGenerator_m_KeyboardTypeP21CustomAttributesCache
YGi:_VerticalLayoutGroup_CalculateLayoutInputHorizontal_m497637066
GMi:_AnimatorControllerPlayable_CrossFadeInFixedTimeInternal_m1452579496
Szh:_RectTransformUtility_PixelAdjustPoint_m560908615
mhg:_MethodCall__ctor_m4106494862
yJg:__Z167RuntimeInvoker_Void_t1841601450_SByte_t454417549_SByte_t454417549_SByte_t454417549_SByte_t454417549_SByte_t454417549_SByte_t454417549_SByte_t454417549_SByte_t454417549PFvvEPK10MethodInfoPvPS4_
Pnc:__Z37Register_UnityEngine_GUIStyle_Cleanupv
Na:invoke_iiifii
nrj:_StackTraceUtility_ExtractStringFromExceptionInternal_m2568950546
R5c:__ZN6il2cpp6icalls8mscorlib6System8MonoType13IsPointerImplEP20Il2CppReflectionType
jre:_Convert_ToDecimal_m2284596541
ALi:_AnimatorControllerPlayable_GetLayerIndex_m747049736
Si:_emscripten_glFramebufferRenderbuffer
r$e:_Int64_GetHashCode_m4047499913
N8a:__ZN9Transform30EnsureTransformHierarchyExistsEv
WS:__ZN11AudioModule26SetDefaultMicrophoneDriverEPv
DDg:_UnitySerializationHolder_GetRealObject_m286267090
Lde:_Attribute_IsDefined_m216577166
Phe:_Char_ToUpper_m109978609
RF:__Z94Register_UnityEngine_Animations_AnimationLayerMixerPlayable_INTERNAL_CALL_CreateHandleInternalv
R7i:_InternalEnumerator_1_get_Current_m1089848479_gshared
yze:_Double_System_IConvertible_ToInt64_m3798425616
pYd:_StandaloneInputModule_get_repeatDelay_m3025279
vxf:_List_1_Find_m3680710386_gshared
P8b:__ZN13MonoBehaviour13StopCoroutineEPKc
Kbb:__ZNSt3__26vectorINS_4pairIN4core12basic_stringIcNS2_20StringStorageDefaultIcEEEEPK17MessageIdentifierEENS_9allocatorISA_EEE12__move_rangeEPSA_SE_SE_
NZa:__ZN14qsort_internal17MedianOfThreeSwapIP17RODataReplacement19ROSorterReplacementEEvT_S4_S4_T0_
dJi:_AnimationOffsetPlayable_Equals_m3411254421_AdjustorThunk
_Xc:__ZNK15dense_hashtableINSt3__24pairIK10KeyWrapperIPK22Il2CppGenericParameterEP11Il2CppClassEES6_N6il2cpp5utils11PointerHashIS4_EEN14dense_hash_mapIS6_S9_SE_NS6_14EqualsComparerINS0_8equal_toIS5_EEEENS0_9allocatorISA_EEE9SelectKeyESJ_SL_E3endEv
Lac:__ZN17TransformInternal36OnScaleChangedCalculateTransformTypeE15TransformAccess
hke:_SynchronizedArrayListWrapper_InsertRange_m709359548
tSa:__ZN17ArchiveFileSystem10ToAbsoluteEPKc
uVf:_BigInteger_op_Modulus_m13450242
qqe:_DateTime__ctor_m3604679583
$re:_Convert_ToInt32_m2988544165
jPe:_Array_Resize_TisColor32_t874517518_m2219502085_gshared
zz:__ZN7mecanim6CRCKeyENS_7eStringE
l5f:_SslStreamBase_get_CanWrite_m2069502593
RYb:__ZL12SetPrefValueRKN4core12basic_stringIcNS_20StringStorageDefaultIcEEEERK9PrefValue
h0:__ZN19ShaderPropertySheet20ReservePropertyCountEj
fwd:__ZN6il2cpp5utils11StringUtils6PrintfEPKcz
hid:__ZNSt3__26vectorIN6il2cpp8metadata18GenericArrayMethodENS_9allocatorIS3_EEE7reserveEj
Goa:__ZN15NameToObjectMapI6ShaderNSt3__23mapI4PPtrIS0_EN4core12basic_stringIcNS5_20StringStorageDefaultIcEEEENS1_4lessIS4_EENS1_9allocatorINS1_4pairIKS4_S9_EEEEEENS1_8multimapIS9_S4_NSA_IS9_EENSC_INSD_IKS9_S4_EEEEEEE4FindERSK_
CCh:_ShimEnumerator_Reset_m98005789_gshared
DXc:__ZN6il2cpp6icalls8mscorlib6System7Decimal13decimal2Int64EP19il2cpp_decimal_reprPx
wuh:_Object_INTERNAL_CALL_Internal_InstantiateSingle_m3932420250
zrd:__ZN6il2cpp2vm6Object5CloneEP12Il2CppObject
uQf:_ReadOnlyCollection_1_System_Collections_IList_set_Item_m1377990618_gshared
tdh:_ILGenerator_make_room_m373147874
EDd:__ZN6il2cpp6icalls8mscorlib6System9Threading5Mutex20CreateMutex_internalEbP12Il2CppStringPb
T_j:_emscripten_glLinkProgram__wrapper
xwh:_PlayableHandle_SetDurationInternal_m3359857977
gfe:_Boolean_CompareTo_m3691698947_AdjustorThunk
gJe:_Array_InternalArray__IndexOf_TisKeyValuePair_2_t888819835_m2660446234_gshared
vhf:_PKCS1_Verify_v15_m2571212635
nmb:__ZNSt3__212__deque_baseI18ReflectionProbeJobNS_9allocatorIS1_EEED2Ev
Xy:__ZN11UnityEngine9Animation27DestroyAnimationSetBindingsEPNS0_20AnimationSetBindingsERN7mecanim6memory9AllocatorE
VSb:__ZN15dense_hashtableINSt3__24pairIKiN4core17string_with_labelILi1EEEEEi18SInt32HashFunctionN14dense_hash_mapIiS5_S7_NS0_8equal_toIiEE13stl_allocatorIS6_L18MemLabelIdentifier1ELi16EEE9SelectKeyESA_SD_E13set_empty_keyERKS6_
PD:__ZN8Animator12CleanupClassEv
iTd:_DecoderReplacementFallbackBuffer__ctor_m1305504326
vuc:__Z13TransferFieldI8JSONReadLb0E27Converter_SimpleNativeClassI10RectOffsetEEvRK23StaticTransferFieldInfoR31RuntimeSerializationCommandInfoRT1_
cRd:_String_IndexOf_m570401060
iAe:_Enum_System_IConvertible_ToDateTime_m2924690746
v2d:_Dropdown_CreateBlocker_m4109366440
pGd:_HashAlgorithm_System_IDisposable_Dispose_m2106335965
bpd:__GLOBAL__sub_I_GenericMetadata_cpp
xxh:_RangeAttribute__ctor_m1657271662
akc:__ZNK8GUIStyle4DrawER8GUIStateRK5RectTIfER10GUIContentib
c_a:__ZNK17InstancedPropInfo14IsInstanceableERK19ShaderPropertySheet
g5a:__Z24CalculateSpotLightBoundsffRK10Matrix4x4fR15SpotLightBounds
mbf:_TailoringInfo__ctor_m2248501932
eV:__ZN23CloudWebServicesManager23VirtualRedirectTransferER14SafeBinaryRead
dJg:__Z150RuntimeInvoker_Int32_t2071877448_RuntimeObject_Int32_t2071877448_Int32_t2071877448_RuntimeObject_Int32_t2071877448_Int32_t2071877448_Int32_t2071877448PFvvEPK10MethodInfoPvPS4_
Fje:_FixedSizeArrayListWrapper_InsertRange_m2690348965
ACb:__Z19ShouldTransferFieldR32SerializationCommandQueueBuilder17ScriptingClassPtriR18TransferField_InfoRK20CoreScriptingClasses
Seh:_FieldInfo_get_IsStatic_m1411173225
V3e:_MemoryStream_Read_m2289595005
FN:__ZN5audio5mixer22UpdateAudioMixerMemoryERKNS0_18AudioMixerConstantERNS0_16AudioMixerMemoryEfPN4FMOD6SystemEf
Nwc:__ZL21InitializeCachedStripPv
Sjd:__ZN6il2cpp6icalls8mscorlib6System9Threading6Thread23GetCachedCurrentCultureEP12Il2CppThread
lDi:_Selectable_get_allSelectables_m3045831006
OZa:__ZNK6Camera22GetWorldToCameraMatrixEv
Prd:__ZN6il2cpp2vm12GenericClass11IsValueTypeEP18Il2CppGenericClass
PBb:__ZN13MonoBehaviour7SetNameEPKc
oYf:_ContentInfo__ctor_m3579805263
L_c:__ZN15dense_hashtableINSt3__24pairIK10KeyWrapperIPKcEP11Il2CppClassEES5_N6il2cpp5utils11StringUtils12StringHasherIS4_EEN14dense_hash_mapIS5_S8_SE_NS5_14EqualsComparerINSB_13VmStringUtils21CaseSensitiveComparerEEENS0_9allocatorIS9_EEE9SelectKeyESJ_SL_E15set_deleted_keyERKS9_
tCi:_ScrollRect_get_verticalNormalizedPosition_m1701804869
yta:__ZN18AwakeFromLoadQueue5ClearEv
QEh:_Enumerator_get_Current_m2986380627_AdjustorThunk
V3a:__ZNSt3__27__sort5IR15ReflProbeSorterPP15ReflectionProbeEEjT0_S6_S6_S6_S6_T_
naa:__ZN8Playable10DisconnectEPS_i
g5i:_InternalEnumerator_1_get_Current_m1526874475_AdjustorThunk
uk:_glGenTransformFeedbacks
iya:__ZN13LoadOperationD2Ev
bgf:_KeyPairPersistence__ctor_m1817312194
oEe:_Array_InternalArray__ICollection_Contains_TisMark_t2724874473_m1640201705_gshared
Kra:__Z21PlayerStartFirstSceneb
ibh:_TypeBuilder_get_AssemblyQualifiedName_m2097258567
uoa:__ZNSt3__27__sort5IRPFbRKNS_4pairIN9ShaderLab16FastPropertyNameEN18UnityPropertySheet11UnityTexEnvEEES8_EPS6_EEjT0_SD_SD_SD_SD_T_
zMi:_AnimatorControllerPlayable_GetParameterCount_m1050153685_AdjustorThunk
CFa:__ZNK7ApiGLES18GetExtensionStringEv
kMa:__ZN31TransformFeedbackSkinPoseBufferD0Ev
NWj:_emscripten_glVertexAttrib1f__wrapper
CRa:__ZNK12HandlerChain4SizeERK13FileEntryData
fLh:_DefaultComparer_Equals_m1281232537_gshared
gp:FUNCTION_TABLE_iiiiiiiii
b8d:_InputField_set_asteriskChar_m619206227
lqg:_DES_IsSemiWeakKey_m3967392585
eZe:_Int16_System_IConvertible_ToUInt32_m883204517_AdjustorThunk
ytj:_Transform_get_localRotation_m4001487205
tih:_MonoProperty_get_PropertyType_m1921201152
P0d:_FloatTween_TweenValue_m3881535116_AdjustorThunk
Nyd:_GC_allochblk
Dta:__Z15UnloadGameScenev
s$j:_glCheckFramebufferStatus__wrapper
zbd:__ZN15dense_hashtableINSt3__24pairIK10KeyWrapperIPK10Il2CppTypeEjEES6_N6il2cpp8metadata14Il2CppTypeHashEN14dense_hash_mapIS6_jSB_NS6_14EqualsComparerINSA_26Il2CppTypeEqualityComparerEEENS0_9allocatorIS8_EEE9SelectKeyESF_SH_E3endEv
zUf:_BigInteger_get_Rng_m2525288368
dnh:_GUIStyleState_GetBackgroundInternal_m439046630
Vdg:_X509ExtensionEnumerator_Reset_m3200687545
Uke:_CaseInsensitiveHashCodeProvider__ctor_m3775398833
Xej:_Comparer_1_System_Collections_IComparer_Compare_m674728644_gshared
lec:__Z36Renderer_Get_Custom_PropSortingOrderP12Il2CppObject
Ebd:__ZNK15dense_hashtableINSt3__24pairIK10KeyWrapperIPK10Il2CppTypeEjEES6_N6il2cpp8metadata14Il2CppTypeHashEN14dense_hash_mapIS6_jSB_NS6_14EqualsComparerINSA_26Il2CppTypeEqualityComparerEEENS0_9allocatorIS8_EEE9SelectKeyESF_SH_E13find_positionERS7_
xia:__ZN7Texture5ResetEv
zJb:__Z18Transfer_BlittableI24GenerateTypeTreeTransferLb0E8Vector2fEvRK29SerializationCommandArgumentsR31RuntimeSerializationCommandInfo
qJb:__Z18Transfer_BlittableI24GenerateTypeTreeTransferLb1EhEvRK29SerializationCommandArgumentsR31RuntimeSerializationCommandInfo
cac:__ZNK16TypeTreeIterator10ByteOffsetEv
G3d:_Graphic_get_rectTransform_m2697395074
n9:__ZnwjRKSt9nothrow_t
oC:__ZN8Animator11ClearObjectEv
bBb:__ZNSt3__26vectorIi13stl_allocatorIiL18MemLabelIdentifier12ELi16EEE8__appendEj
Yag:_X500DistinguishedName_Decode_m3070515374
Nma:__ZN14SafeBinaryRead19TransferSTLStyleMapINSt3__23mapI39DeprecatedFastPropertyNameSerializationN18UnityPropertySheet11UnityTexEnvENS1_4lessIS3_EENS1_9allocatorINS1_4pairIKS3_S5_EEEEEEEEvRT_17TransferMetaFlags
ggc:__Z45Register_UnityEngine_MonoBehaviour_IsInvokingv
H8f:_IPv6Address_set_ScopeId_m1442934355
gng:_ObjectManager_RaiseOnDeserializedEvent_m512850179
Ggc:__Z81Register_UnityEngine_Playables_PlayableHandle_INTERNAL_CALL_SetInputCountInternalv
Z8b:__Z35UnregisterSerializationCacheBuilderPFv17ScriptingClassPtrR23CachedSerializationDataRbE
lla:__Z30GetBuiltinVectorParamArraySize24BuiltinShaderVectorParam
Zaf:_CodePointIndexer__ctor_m797342079
R6a:__ZN21RendererUpdateManager11AddRendererER8Renderer
j_b:__Z13RegisterClassI15ResourceManagerEvv
UEb:__Z35Transfer_Blittable_FixedBufferFieldI14SafeBinaryReadsEvRK29SerializationCommandArgumentsR31RuntimeSerializationCommandInfo
Avb:__ZN14SafeBinaryRead21TransferSTLStyleArrayI13dynamic_arrayIfLj4EEEEvRT_17TransferMetaFlags
gwd:__ZN6il2cpp5utils11StringUtils11Utf16ToUtf8EPKDs
BSc:__ZN11UnityEngine15PlatformWrapper20IsRootedOrJailbrokenEv
AUa:__ZZ23InitPlayerLoopCallbacksvEN52PreLateUpdateScriptRunBehaviourLateUpdateRegistrator7ForwardEv
ybg:_X509Certificate2_GetNameInfo_m402390219
b5a:__Z33IntersectAABBPlaneBoundsOptimizedRK4AABBPKN4math7_float4Ei
sde:_Swapper_BeginInvoke_m2652511022
Xyh:_RectOffset_t3387826427_marshal_pinvoke_back
sBa:__ZN9GfxDevice19EndGeometryJobFrameEv
kJb:__ZN27Converter_SimpleNativeClassI17AnimationCurveTplIfEE17ScriptingToNativeER18ScriptingObjectPtrPS1_
wEd:__ZN6il2cpp8metadata24Il2CppGenericInstCompare7CompareERK10KeyWrapperIPK17Il2CppGenericInstES8_
t$c:__ZNK15dense_hashtableINSt3__24pairIK10KeyWrapperIPK19Il2CppGenericMethodEPK26Il2CppGenericMethodIndicesEES6_N6il2cpp8metadata23Il2CppGenericMethodHashEN14dense_hash_mapIS6_SA_SE_NS6_14EqualsComparerINSD_26Il2CppGenericMethodCompareEEENS0_9allocatorISB_EEE9SelectKeyESI_SK_E5beginEv
X3d:_Graphic_get_materialForRendering_m2600868951
Xs:__ZN27AnimationLayerMixerPlayable21UpdateLayerParametersEv
hHf:_Collection_1_System_Collections_IList_Contains_m3210868188_gshared
J$b:__ZNK17AnimationCurveTplIfE8EvaluateEfPNS0_5CacheE
ETa:__Z31ManagerContextInitializeClassesv
XUe:_NumberFormatter_AppendIntegerString_m868842252
oUh:__ZL53SortedList_t3004938869_CustomAttributesCacheGeneratorP21CustomAttributesCache
vzc:_UNITY_FT_List_Finalize
R_a:__Z20LightAttenuateApproxRKfS0_
R3:__ZN9Scripting30SetCachedPtrOnScriptingWrapperE18ScriptingObjectPtrP6Object
mMb:__Z18Transfer_BlittableI19StreamedBinaryWriteILb0EELb0EdEvRK29SerializationCommandArgumentsR31RuntimeSerializationCommandInfo
ASd:_ASCIIEncoding_GetBytes_m3649277167
Xkh:_GUILayoutUtility_Internal_GetWindowRect_m1287880151
AJi:_AnimationPlayableOutput_get_Null_m577023
m0i:_Context_GetProperty_m1664740450
Xwa:__ZN18BlockRangeInternal16PopLastNodeIndexEP10BlockRangeji
Enf:_Enumerator_System_Collections_IEnumerator_Reset_m886102771_AdjustorThunk
qef:_Kernel_MultiplyByDword_m155008287
Qub:__ZN4MeshD0Ev
AMg:__Z121RuntimeInvoker_Void_t1841601450_Int64_t909078037_RuntimeObject_RuntimeObject_Int64_t909078037_RuntimeObject_RuntimeObjectPFvvEPK10MethodInfoPvPS4_
fXc:__ZL42RequestRecreateEyeTexturesBeforeNextUpdatev
Bka:__ZNK6Camera20IsCurrentlyRenderingEv
Hu:__ZN21AnimationClipPlayable23ProcessRootMotionNoClipEPK35AnimationPlayableEvaluationConstantPK32AnimationPlayableEvaluationInputP33AnimationPlayableEvaluationOutput
KPc:__Z36CanvasRenderer_CUSTOM_SetPopMaterialP12Il2CppObjectS0_i
jrc:__Z18Transfer_BlittableI9JSONWriteLb0EdEvRK29SerializationCommandArgumentsR31RuntimeSerializationCommandInfo
Wjb:__ZN6Camera8TransferI19StreamedBinaryWriteILb0EEEEvRT_
aOf:_ReadOnlyCollection_1_System_Collections_IList_Insert_m3679749778_gshared
zGi:_Toggle_OnDidApplyAnimationProperties_m325835214
PMj:_wctomb
ecc:__Z27Camera_CUSTOM_GetAllCamerasP11Il2CppArray
Woe:_Convert_InternalFromBase64String_m3682756716
cd:___cxa_rethrow
Jsc:__Z18Transfer_BlittableI8JSONReadLb1EhEvRK29SerializationCommandArgumentsR31RuntimeSerializationCommandInfo
SMi:_AnimatorControllerPlayable_CrossFadeInFixedTimeInternal_m3383124488
TWj:_glBindRenderbuffer__wrapper
Mij:_Regex_System_Runtime_Serialization_ISerializable_GetObjectData_m4035555909
Oxg:_TimeSpan_Add_m3228293154
iLh:_DefaultComparer_Equals_m4098991076_gshared
H8a:__ZN13MonoBehaviour8SetClassE17ScriptingClassPtr18ScriptingObjectPtr
VXf:_RC4__cctor_m523650203
U0i:_CrossContextDelegate_Invoke_m2908136830
Dsa:__ZN19ScriptingInvocation28AdjustArgumentsToMatchMethodEv
s2a:__ZNSt3__211__sift_downIRN23ForwardShaderRenderLoop18RenderObjectSorterILb0EEEP21ForwardRenderPassDataEEvT0_S7_T_NS_15iterator_traitsIS7_E15difference_typeES7_
Y6e:_UnmanagedMemoryStream_get_Position_m4093669769
WLg:__Z90RuntimeInvoker_Void_t1841601450_IntPtr_t_RuntimeObject_Int32_t2071877448_Int32_t2071877448PFvvEPK10MethodInfoPvPS4_
cbh:_DerivedType_IsDefined_m555719351
cgj:_Mark_get_IsDefined_m3332701456
Afb:__ZNK12TLSAllocatorI14StackAllocatorE8ContainsEPKv
zyb:__ZN11TimeManager8TransferI18StreamedBinaryReadILb0EEEEvRT_
uXb:__ZN15SerializeTraitsINSt3__23mapI4PPtrI6ShaderEN4core12basic_stringIcNS5_20StringStorageDefaultIcEEEENS0_4lessIS4_EENS0_9allocatorINS0_4pairIKS4_S9_EEEEEEE8TransferI24GenerateTypeTreeTransferEEvRSH_RT_
wqg:_DESTransform__cctor_m1179482644
cvb:__ZN14BlendShapeData8TransferI14SafeBinaryReadEEvRT_
qsj:_TextGenerator_PopulateWithErrors_m467881283
tAe:_Enum_Format_m2294492821
kob:__ZN7Texture25ReloadFromStorageIfNeededEPvb
lqc:__Z35Transfer_Blittable_FixedBufferFieldI9JSONWritehEvRK29SerializationCommandArgumentsR31RuntimeSerializationCommandInfo
d7g:_OverflowException__ctor_m2564269836
MCh:_ShimEnumerator_get_Entry_m2332479818_gshared
ove:_DateTime_CheckDateTimeKind_m329345155_AdjustorThunk
aKc:_Update_Max
Fjd:__ZN6il2cpp6icalls8mscorlib6SystemL15ThrowNoWideningEv
S$b:__ZNK23TransformChangeDispatch24GetChangeMaskForInterestENS_12InterestTypeE
Ric:__Z45Transform_CUSTOM_INTERNAL_CALL_TransformPointP12Il2CppObjectRK8Vector3fRS1_
RGf:__ZN23InterfaceActionInvoker2Ii18Color32_t874517518E6InvokeEjP11Il2CppClassP12Il2CppObjectiS0_
dfb:__ZL10KeyHandleriPK23EmscriptenKeyboardEventPv
kna:__ZNSt3__26__treeINS_12__value_typeI39DeprecatedFastPropertyNameSerializationfEENS_19__map_value_compareIS2_S3_NS_4lessIS2_EELb1EEENS_9allocatorIS3_EEE7destroyEPNS_11__tree_nodeIS3_PvEE
Fgc:__Z81Register_UnityEngine_Playables_PlayableHandle_INTERNAL_CALL_GetInputCountInternalv
yDc:_tt_cmap4_char_index
ePi:_AsyncOperation_get_allowSceneActivation_m2825451182
nyg:_TimeSpan_op_Addition_m3421801803
MRa:__ZNK12HandlerChain8IsHiddenERK13FileEntryData
Nsi:__ZL50Graphic_t2426225576_CustomAttributesCacheGeneratorP21CustomAttributesCache
AIb:__ZL26Transfer_SimpleNativeClassI17RemapPPtrTransfer10RectOffsetLb0EEvRK29SerializationCommandArgumentsR31RuntimeSerializationCommandInfo
Yzc:__Z14ValidateFormatR13dynamic_arrayIN20TextRenderingPrivate16TextFormatChangeELj4EE
Xuj:_Vector2_op_Implicit_m1064335535
aua:__Z31GetLightProbeProxyVolumeManagerv
que:_DateTime_System_IConvertible_ToInt32_m2789391054_AdjustorThunk
qTg:__Z73RuntimeInvoker_Single_t2076509932_Vector3_t2243707580_Vector3_t2243707580PFvvEPK10MethodInfoPvPS4_
_ef:_ASN1Convert_FromInt32_m1541043489
JXd:_PointerInputModule_ProcessMove_m3200120346
Dpe:_Convert_ToByte_m1008221737
WWf:_MD2Managed_MD2Transform_m3825201358
tui:__ZL69Scrollbar_t3248359358_CustomAttributesCacheGenerator_m_OnValueChangedP21CustomAttributesCache
_Tb:__ZNSt3__26vectorIN9ShaderLab20SerializedSubProgram13BufferBindingENS_9allocatorIS3_EEEC2ERKS6_
_1d:_Dropdown_AddOptions_m835420907
BJj:_Display_Start_m3446268861
nla:__ZNK9ShaderLab20ShaderBlendStateDesc15ToGfxBlendStateEPK19ShaderPropertySheetS3_R13GfxBlendState
k$d:_CanvasUpdateRegistry_IsRebuildingLayout_m1677873278
Ay:__ZN11UnityEngine9AnimationL22GenericBindingCallbackEPvS1_i
KJc:_Compute_Point_Displacement
eXb:__ZN9ShaderLab9IntShaderC2Ev
Y5c:__ZN6il2cpp6icalls8mscorlib6SystemL9IsPrivateEPK9EventInfo
UCd:__ZN6il2cpp6icalls8mscorlib6System10Reflection4Emit11TypeBuilder20setup_internal_classEP27Il2CppReflectionTypeBuilderS7_
gmh:_RectOffset_set_left_m620681523
u3i:_ArrayReadOnlyList_1_IndexOf_m1809425308_gshared
iU:__Z58AudioPlayableOutput_CUSTOM_INTERNAL_CALL_InternalSetTargetR15HPlayableOutputP12Il2CppObject
K7c:_il2cpp_gc_disable
yG:__Z69AnimatorControllerPlayable_CUSTOM_INTERNAL_CALL_GetLayerIndexInternalR9HPlayableP12Il2CppString
sWd:_ExecuteEvents_U3Cs_HandlerListPoolU3Em__0_m2903690915
Jme:_Hashtable_Clone_m165405752
KXc:__ZN13Il2CppHashMapIPK22Il2CppGenericParameterP11Il2CppClassN6il2cpp5utils11PointerHashIS1_EENSt3__28equal_toIS2_EENS9_9allocatorINS9_4pairIK10KeyWrapperIS2_ES4_EEEEEC2EjRKS8_RKSB_
WRc:__ZN11UnityEngine15PlatformWrapper19GetPhysicalMemoryMBEv
ifa:__Z15CreateDirectoryRKN4core12basic_stringIcNS_20StringStorageDefaultIcEEEE
Hua:__Z21CalculateGlobalMatrix23TransformAccessReadOnly
$Sh:__ZL70InternalsVisibleToAttribute_t1037732567_CustomAttributesCacheGeneratorP21CustomAttributesCache
Eyb:__ZNK13BuildSettings22GetTypeVirtualInternalEv
C1e:_MonoIO_GetCurrentDirectory_m1509324201
_tg:_UTF32Encoding_GetHashCode_m4205784236
sqe:_DateTime_ToUniversalTime_m1815024752
h_b:__Z13RegisterClassI14RenderSettingsEvv
Yrj:_TextGenerator_Finalize_m4242493229
S5g:__Z80RuntimeInvoker_Boolean_t3825574718_Navigation_t1571958496_Navigation_t1571958496PFvvEPK10MethodInfoPvPS4_
uDf:_Collection_1_ConvertItem_m3563206219_gshared
kyg:_TimeSpan_Subtract_m3597791685_AdjustorThunk
Uw:__ZN7mecanim12statemachine24CreateStateMachineOutputEPKNS0_20StateMachineConstantEjRNS_6memory9AllocatorE
Krh:_Logger__ctor_m3834134587
W6c:_il2cpp_assembly_get_image
RBa:__ZNK9GfxDevice27GetActiveRenderSurfaceWidthEv
mSc:__ZN11UnityEngine15PlatformWrapper28GetCleanGraphicsFixedVersionEv
nJg:__Z133RuntimeInvoker_Int32_t2071877448_RuntimeObject_RuntimeObject_Int32_t2071877448_Int32_t2071877448_RuntimeObject_ContextU26_t3131521781PFvvEPK10MethodInfoPvPS4_
w:tempBigIntP
O9c:__ZN6il2cpp2vm4Type7GetTypeEPK10Il2CppType
Iyh:_Rect_Contains_m1334685291_AdjustorThunk
xde:_AssemblyLoadEventHandler_Invoke_m108373765
XBe:_CCGregorianCalendar_dmy_from_fixed_m2992247462
Fqa:__ZN6prcoreL17RemapGenericFloatI18TexFormatRGBAFloat17TexFormatRGBAHalfEEvPKNS_9InnerInfoE
yVa:__Z16FindCameraStacksRKNSt3__24listI4PPtrI6CameraENS_9allocatorIS3_EEEERNS_6vectorI11CameraStackNS4_ISA_EEEE
Bwj:_WebRequestUtils__cctor_m893658947
bqb:__ZN10GISettings8TransferI14SafeBinaryReadEEvRT_
xn:FUNCTION_TABLE_vifff
FQf:_ReadOnlyCollection_1_System_Collections_Generic_ICollectionU3CTU3E_Remove_m2957273994_gshared
Qab:__ZN19CustomRenderTexture12ClearGPUDataEv
AUd:_BaseInputModule_ShouldActivateModule_m2899747874
$4g:__Z86RuntimeInvoker_Int32_t2071877448_DateTimeOffset_t1362988906_DateTimeOffset_t1362988906PFvvEPK10MethodInfoPvPS4_
Hia:__ZN13RenderTexture13ApplySettingsEv
hUj:_glVertexAttrib4f__wrapper
$e:_JS_Sound_SetListenerPosition
pn:FUNCTION_TABLE_fiffi
KH:__Z86Register_UnityEngine_Animations_AnimatorControllerPlayable_INTERNAL_CALL_SetBoolStringv
teh:_ModuleBuilderTokenGenerator_GetToken_m3427457873
ADi:_Selectable_get_isPointerInside_m3162215687
FIe:_Array_FindIndex_TisRuntimeObject_m4149904176_gshared
vqf:_List_1_System_Collections_IList_Contains_m149594880_gshared
pDg:_UnauthorizedAccessException__ctor_m3480402128
nef:_BigInteger_op_Modulus_m3788401748
u1i:_ArgInfo_GetInOutArgs_m3184132151
Lsa:__ZNK8Material16MarkDependenciesER27GarbageCollectorThreadState
mrc:__ZL17Transfer_GUIStyleI9JSONWriteLb0EEvRK29SerializationCommandArgumentsR31RuntimeSerializationCommandInfo
j7g:_Random__ctor_m1561335652
eZa:__Z28GetHaloVertexPositionsStereoP8Vector3fRKS_S2_f
ura:__ZN6prcoreL27StretchGenericFloatBilinearI15TexFormatRGHalfEEvPKNS_9InnerInfoE
onf:_Enumerator_MoveNext_m598197344_AdjustorThunk
JVi:_DisplaysUpdatedDelegate_Invoke_m3646339243
TRd:_String_JoinUnchecked_m1880555587
Ela:__ZNK9ShaderLab7Program21GetMatchingSubProgramEPK6ShaderPKNS_4PassERK16ShaderKeywordSetjPS7_R19ShaderSnippetResult
CMe:_Array_InternalArray__Insert_TisKeyValuePair_2_t1174980068_m2464431954_gshared
rhc:__Z49Register_UnityEngine_Resources_GetBuiltinResourcev
KDc:_tt_cmap10_char_index
W1d:_Dropdown_Awake_m335654827
OJh:_Dictionary_2_U3CCopyToU3Em__0_m1479035402_gshared
Bke:_BitArray_set_Item_m3801461194
nYc:__ZN15dense_hashtableINSt3__24pairIK10KeyWrapperIPK22Il2CppGenericParameterEP11Il2CppClassEES6_N6il2cpp5utils11PointerHashIS4_EEN14dense_hash_mapIS6_S9_SE_NS6_14EqualsComparerINS0_8equal_toIS5_EEEENS0_9allocatorISA_EEE9SelectKeyESJ_SL_E3endEv
wRd:_String_Remove_m3580114465
KVb:__ZN9ShaderLab22SerializedBindChannels8TransferI19StreamedBinaryWriteILb0EEEEvRT_
zPg:__Z82RuntimeInvoker_Int32_t2071877448_RuntimeObject_Int32_t2071877448_Int16_t4041245914PFvvEPK10MethodInfoPvPS4_
Klc:__ZN5IMGUI20MoveWindowFromLayoutER8GUIStateiRK5RectTIfE
SCg:_UIntPtr__ctor_m2737768530
Bzc:_UNITY_FT_Stream_ReadUShort
o8d:_InputField_OnEnable_m3797157569
Adc:__Z51Register_UnityEngine_GUILayer_INTERNAL_CALL_HitTestv
Vjc:__Z50Register_UnityEngine_Object_FindSceneObjectsOfTypev
Mma:__ZNSt3__26__treeINS_12__value_typeIN4core12basic_stringIcNS2_20StringStorageDefaultIcEEEES6_EENS_19__map_value_compareIS6_S7_NS_4lessIS6_EELb1EEE13stl_allocatorIS7_L18MemLabelIdentifier1ELi16EEE7destroyEPNS_11__tree_nodeIS7_PvEE
aLj:_Nullable_1__ctor_m796575255_gshared
lxd:__ZN6il2cpp2vm8Profiler7GCEventE13Il2CppGCEvent
Aue:_DateTimeUtils_ToString_m3878360633
Ejd:__ZN6il2cpp6icalls8mscorlib6SystemL16ThrowInvalidCastEPK11Il2CppClassS5_
GGa:__Z13IsDepthFormat14GraphicsFormat
Bzb:__ZN12AspectRatios8TransferI24GenerateTypeTreeTransferEEvRT_
pwc:__Z12FormatBufferPciPKcz
_Yd:_TouchInputModule_Process_m1373751353
Rf:_emscripten_glUniform1fv
Mdh:_MethodBuilder_Invoke_m1874904900
zYc:__ZN6il2cpp2vm5Class13GetArrayClassEP11Il2CppClassj
rL:__ZN4FMOD7Channel7setModeEj
Pah:_DerivedType_InvokeMember_m4149586013
UXa:__ZN15RenderNodeQueueC2E18MemLabelIdentifier
QLi:_AnimatorControllerPlayable_GetNextAnimatorStateInfo_m1690618991
C5f:_TlsStream_SetLength_m1460039587
Rlc:__ZN11IMGUIModule12AddGUIScriptER8ListNodeI13MonoBehaviourE
rb:invoke_difi
Q8:__ZL50StaticRegisterSceneLoadedCallback_LightmapSettingsPv
CLg:__Z119RuntimeInvoker_Void_t1841601450_RuntimeObject_RuntimeObject_RuntimeObject_RuntimeObject_Int32_t2071877448_RuntimeObjectPFvvEPK10MethodInfoPvPS4_
Om:FUNCTION_TABLE_iiffi
Z4d:_GridLayoutGroup_get_cellSize_m1061731753
nGa:__ZN21GLESGpuProgramApplier11ApplyVectorERKN20GpuProgramParameters14ValueParameterEPK8Vector4ft
F4a:__Z17PrepareSceneNodesP11CullResults
dwj:_Vector4_ToString_m2340321043_AdjustorThunk
Ikj:_Parser_IsIgnoreCase_m4155598997
ZFc:_cff_size_done
BWa:__ZN22RenderingCommandBuffer13GetAndCheckRTE24BuiltinRenderTextureTypeRKN9ShaderLab16FastPropertyNameEPKcPP13RenderTexture
hbb:__ZN6Camera34UpdatePreviousViewProjectionMatrixEv
Hla:__ZN9ShaderLab11ShaderState25RemoveUnsupportedProgramsEPK6Shader
xWb:__ZL23AddGpuProgramParametersR20GpuProgramParametersRKNSt3__26vectorIN9ShaderLab20SerializedSubProgram15MatrixParameterENS1_9allocatorIS5_EEEERKNS2_INS4_15VectorParameterENS6_ISB_EEEEiP16PropertyNamesSet
Njc:__Z44Register_UnityEngine_Object_DestroyImmediatev
Mcc:__Z47Register_UnityEngine_Component_BroadcastMessagev
Qr:__ZN18StreamedBinaryReadILb0EE21TransferSTLStyleArrayI13dynamic_arrayI4PPtrI6ObjectELj4EEEEvRT_17TransferMetaFlags
yYh:__ZL62_ConstructorBuilder_t1236878896_CustomAttributesCacheGeneratorP21CustomAttributesCache
o9b:__Z26scripting_class_has_parent17ScriptingClassPtrS_
Y_e:_Int64_System_IConvertible_ToInt16_m2022633688_AdjustorThunk
S7:__ZN13RuntimeStaticI21AssetReferenceStorageLb0EE16StaticInitializeEPv
IFd:__ZN6il2cpp8metadata25Il2CppGenericClassCompare7CompareEPK18Il2CppGenericClassS4_
aC:__ZNK8Animator20IsInMatchTargetStateEv
wmc:__Z36Register_UnityEngine_GUI_set_changedv
_rg:_Encoding_get_Unicode_m1382741113
G$i:_LifetimeServices_set_SponsorshipTimeout_m1403222216
Uhe:_Char_ToString_m1401375624_AdjustorThunk
nKe:_Array_InternalArray__ICollection_Add_TisTableRange_t2011406615_m147373358_gshared
Jqe:_Convert_ToDateTime_m1251728572
RIi:_AnimationMixerPlayable_op_Explicit_m2834005805
pKe:_Array_InternalArray__ICollection_Add_TisBoolean_t3825574718_m1009318882_gshared
ARf:_ReadOnlyCollection_1_System_Collections_IList_set_Item_m1149349508_gshared
kw:__ZN27AnimationLayerMixerPlayable18SetInputConnectionEP8Playablei
_nc:__Z42Register_UnityEngine_GUIStyle_get_wordWrapv
Wv:__ZN7mecanim28TransformValueArrayBlendNodeEiiiRKNS_10ValueArrayERKNS_14ValueArrayMaskERS0_RS3_RNS_16ValueArrayWeightEf
Img:_ObjectReader_ReadObjectContent_m3949770110
xUi:_Component_SendMessage_m4199581575
$Zc:__ZN6il2cpp2vm5Class40GetInterfaceInvokeDataFromVTableSlowPathEPK12Il2CppObjectPK11Il2CppClassj
ulb:__ZN20TierGraphicsSettings8TransferI18StreamedBinaryReadILb0EEEEvRT_
qFi:_Text_get_font_m3115501113
Oid:__GLOBAL__sub_I_Thread_cpp
Wma:__ZN14SafeBinaryRead8TransferINSt3__24pairIN9ShaderLab16FastPropertyNameE10ColorRGBAfEEEEvRT_PKc17TransferMetaFlags
mXc:__ZL9rshift128PyS_
Cmg:_ObjectReader_RecordFixup_m1893348030
YRe:_LayoutGroup_SetProperty_TisRuntimeObject_m1703476175_gshared
k6g:__Z49RuntimeInvoker_UIVertex_t1204258818_RuntimeObjectPFvvEPK10MethodInfoPvPS4_
Cgd:__ZN14dense_hash_mapI10KeyWrapperINSt3__24pairIPK12PropertyInfoP11Il2CppClassEEEj17ReflectionMapHashIS8_ENS9_14EqualsComparerINS1_8equal_toIS8_EEEENS1_9allocatorINS2_IKS9_jEEEEE13set_empty_keyERSH_
fk:_glRenderbufferStorage
cod:__ZNK15dense_hashtableINSt3__24pairIK10KeyWrapperINS1_IPKcS4_EEEiEES6_24NamespaceAndNamePairHashN14dense_hash_mapIS6_iS9_NS6_14EqualsComparerI26NamespaceAndNamePairEqualsEENS0_9allocatorIS8_EEE9SelectKeyESD_SF_E13find_positionERS7_
Xec:__Z45Register_UnityEngine_Input_get_touchSupportedv
qSc:__ZN11UnityEngine15PlatformWrapper28GetTextureFormatSupportFlagsEv
ABc:_UNITY_FT_Create_Class_pshinter_module_class
_Qd:_String_CompareOrdinalCaseInsensitiveUnchecked_m2002640463
mfe:_Boolean_GetHashCode_m1894638460
CGc:_cf2_setError
evb:__ZN14SafeBinaryRead21TransferSTLStyleArrayI13dynamic_arrayI12BoneWeights4Lj16EEEEvRT_17TransferMetaFlags
oug:_UTF7Encoding_InternalGetChars_m4157428055
Aua:__Z33InterpolateLightProbeCoefficientsRK17LightProbeContextRK29LightProbeSamplingCoordinatesR20SphericalHarmonicsL2
aUa:__ZZ23InitPlayerLoopCallbacksvEN35PreUpdateSendMouseEventsRegistrator7ForwardEv
zgf:_SmallXmlParser_HandleBufferedContent_m3397096753
dh:_glDisable
w9d:_InputField_OnDeselect_m3963675647
YQc:__Z44Register_UnityEngine_Canvas_get_pixelPerfectv
Bwd:__ZN6il2cpp5utils11StringUtils15StringDuplicateEPKDsj
keg:_BaseMachine_Scan_m122450399
Pw:__ZN17AnimationPlayable17ProcessRootMotionEP35AnimationPlayableEvaluationConstantP32AnimationPlayableEvaluationInputP33AnimationPlayableEvaluationOutput
Fie:_ArrayList_CopyTo_m2353632788
J8:__ZNSt3__26vectorINS_4pairIyP17VertexDeclarationEENS_9allocatorIS4_EEE6assignIPS4_EENS_9enable_ifIXaasr21__is_forward_iteratorIT_EE5valuesr16is_constructibleIS4_NS_15iterator_traitsISB_E9referenceEEE5valueEvE4typeESB_SB_
cNi:_AnimatorControllerPlayable_CrossFade_m3391147919_AdjustorThunk
nVa:__ZNK8Material12GetPassCountEv
ioe:_Enumerator__cctor_m3784927209
Q$j:b110
R$j:b111
S$j:b112
OQj:_bitshift64Ashr
U$j:b114
V$j:b115
W$j:b116
Y$j:b117
RHa:__ZN4crnd12crn_unpacker22decode_alpha_endpointsEv
F5a:__Z23CullDynamicObjectsUmbraPK4AABBPKN5Umbra15OcclusionBufferER9IndexList
Nx:__ZThn148_NK26AnimatorControllerPlayable41GetStateMachineBehaviourVectorDescriptionEv
zDc:_tt_cmap4_char_next
JWg:__Z444RuntimeInvoker_Boolean_t3825574718_RuntimeObject_RuntimeObject_RuntimeObject_ColorU26_t3402129837_Int32_t2071877448_Single_t2076509932_Single_t2076509932_Int32_t2071877448_SByte_t454417549_SByte_t454417549_Int32_t2071877448_Int32_t2071877448_Int32_t2071877448_Int32_t2071877448_SByte_t454417549_Int32_t2071877448_Single_t2076509932_Single_t2076509932_Single_t2076509932_Single_t2076509932_SByte_t454417549_SByte_t454417549_UInt32U26_t2197289955PFvvEPK10MethodInfoPvPS4_
Amj:_GeneralNames_ToString_m800435094
_Zd:_BaseMeshEffect_OnDidApplyAnimationProperties_m2484799839
HSd:_ASCIIEncoding_GetString_m3931709239
QAg:_UInt16_Parse_m3560204090
Yuc:__ZN8JSONRead21TransferSTLStyleArrayI13dynamic_arrayIsLj2EEEEvRT_18MemLabelIdentifier17TransferMetaFlags
dL:__ZN4FMOD7Channel11setPositionEjj
Wh:_glBindSampler
PSf:_ReadOnlyCollection_1_System_Collections_Generic_ICollectionU3CTU3E_Clear_m964488020_gshared
_h:_glGetVertexAttribiv
rKe:_Array_InternalArray__ICollection_Add_TisChar_t3454481338_m422084244_gshared
BMc:__ZN2UI11CanvasGroup23VirtualRedirectTransferER18StreamedBinaryReadILb0EE
euc:__ZN8JSONRead8TransferIbEEvRT_PKc17TransferMetaFlagsb
trh:_DefaultValueAttribute_Equals_m3216982933
rag:_X509KeyUsageExtension_Decode_m3292847033
YYg:__Z52RuntimeInvoker_RaycastResult_t21186376_RuntimeObjectPFvvEPK10MethodInfoPvPS4_
wgh:_Module_filter_by_type_name_ignore_case_m3574895736
Npb:__ZN26CustomRenderTextureManager19PreAllocateMaterialEP19CustomRenderTexture
img:_ObjectReader_ReadObject_m397855326
vyd:_GC_promote_black_lists
_5d:_Image_get_fillAmount_m3354146540
Ruc:__Z29Transfer_Blittable_ArrayFieldI8JSONRead8Vector4fEvRT_R9ArrayInfoRK23StaticTransferFieldInfo
Zn:FUNCTION_TABLE_vf
zo:FUNCTION_TABLE_vd
xzg:_Type_GetMethod_m1930231379
Bo:FUNCTION_TABLE_vi
m7:__ZN13RuntimeStaticI37UnityShaderCompilerExtPluginConfigureLb0EE16StaticInitializeEPv
Pbf:_SimpleCollator_GetContraction_m1391584430
pfe:_CultureInfo_get_InvariantCulture_m398972276
Ree:_Boolean_System_IConvertible_ToInt64_m4142756949_AdjustorThunk
FE:__ZNK8Animator17HasBoundPlayablesEv
KWf:_HMAC_initializePad_m3828610671
XNh:_EqualityComparer_1_System_Collections_IEqualityComparer_Equals_m1089835085_gshared
LJd:_RSAParameters_t1462703416_marshal_pinvoke_cleanup
o6c:__ZN6il2cpp2vm7Runtime9SetConfigEPKc
cPi:_AsyncOperation_get_priority_m966065939
ta:invoke_iiifiii
Kkd:__ZN6il2cpp2vm9Exception11FromNameMsgEPK11Il2CppImagePKcS6_S6_
izg:_Type_internal_from_name_m1506974323
en:FUNCTION_TABLE_fiiifii
t0:__Z14GetTimeManagerv
Whb:__Z12GUIDToStringRK9UnityGUIDPc
vQi:_AudioMixerPlayable_GetAutoNormalizeVolumes_m2199898677_AdjustorThunk
PBh:_Enumerator_System_Collections_IDictionaryEnumerator_get_Value_m3005608231_AdjustorThunk
xO:__ZN11AudioSource22UnmuteActiveVideoSinksEv
ywd:__ZN4utf88internal20is_overlong_sequenceIiEEbjT_
iQi:_AudioMixerPlayable__ctor_m2704850458
Ti:_glReadBuffer
Vje:_SynchronizedArrayListWrapper_get_Count_m4104930530
u1a:__Z30SetupBakedOcclusionForGeometrybRK26SharedLightmapSettingsDataRK15LightmapIndicesR17ShaderPassContext
NMd:_SecurityPermission_IsSubsetOf_m1087302418
Scc:__Z41Register_UnityEngine_Cursor_get_lockStatev
T0a:__Z14SetupLightmapsRK8Vector4fS1_R17ShaderPassContext
afd:__ZN14dense_hash_mapI10KeyWrapperIPK14Il2CppAssemblyEPK22Il2CppMonoAssemblyNameN6il2cpp5utils11PointerHashIS2_EENS4_14EqualsComparerINSt3__28equal_toIS3_EEEENSD_9allocatorINSD_4pairIKS4_S7_EEEEE13set_empty_keyERSJ_
Yfg:_Interval_get_Empty_m3170923997
hVa:__ZL20InitializeGUIShadersv
I$b:__Z20DestroyObjectDelayedP6Objectf
n_:__ZN20DynamicHeapAllocatorI17LowLevelAllocatorED0Ev
L8d:_InputField_OnDrag_m726194348
Xcf:_PreviousInfo__ctor_m1442166472_AdjustorThunk
p_a:__ZN9DepthPassD2Ev
dK:__ZN11AudioFilter6GetDSPEv
Vyc:__ZN20TextRenderingPrivate15DynamicFontData36GetFaceForCharacterIfAvailableInFontERKNS_7FontRefERKNSt3__26vectorI4PPtrIN13TextRendering4FontEE13stl_allocatorIS9_L18MemLabelIdentifier34ELi16EEEEj
w2:__ZN19RuntimeSceneManager14CanUnloadSceneEP10UnityScene
HOg:__Z50RuntimeInvoker_Single_t2076509932_Int64_t909078037PFvvEPK10MethodInfoPvPS4_
s_a:__Z22ExtractRenderNodeQueueRK11CullResults15ExtractionFlagsR15RenderNodeQueue
w1c:__ZN14dense_hash_mapI10KeyWrapperIN6il2cpp5utils13dynamic_arrayIPK10Il2CppTypeLj4EEEEPFvvENS1_8metadata19Il2CppSignatureHashENS8_14EqualsComparerINSB_22Il2CppSignatureCompareEEENSt3__29allocatorINSG_4pairIKS8_SA_EEEEEC2EjRKSC_RKSF_
EBf:_List_1_set_Item_m1431784996_gshared
rJ:__ZN24AudioScriptBufferManagerC2Ev
vyc:__ZNSt3__26vectorIh13stl_allocatorIhL18MemLabelIdentifier1ELi16EEE8__appendEj
rIg:__Z95RuntimeInvoker_Void_t1841601450_RuntimeObject_Int32_t2071877448_Int32_t2071877448_RuntimeObjectPFvvEPK10MethodInfoPvPS4_
yyc:__ZN20TextRenderingPrivate8FontImpl16ResetPackingDataEv
Axg:_TimeSpan_get_Hours_m3804628138_AdjustorThunk
eJe:_Array_InternalArray__IndexOf_TisLink_t865133271_m3612939760_gshared
mqc:__Z18Transfer_BlittableI9JSONWriteLb0EfEvRK29SerializationCommandArgumentsR31RuntimeSerializationCommandInfo
Via:__Z21GetAsyncUploadManagerv
Kj:_emscripten_glDetachShader
Waf:_SafeHandleZeroOrMinusOneIsInvalid_get_IsInvalid_m2033528032
Ghe:_Char_IsUpper_m4083577610
cHa:__ZN17GenericDynamicVBO20ReleaseChunkInternalERK21DynamicVBOChunkHandlejj
iLc:__ZL27CleanupModule_TextRenderingv
Vaf:_SafeHandleZeroOrMinusOneIsInvalid__ctor_m3340306667
pNj:_fmodl
Mjg:_SerializationInfo_AddValue_m902275108
DNj:_fmodf
bka:__ZN12CachedWriter11Align4WriteEv
v$a:__Z20DoDeferredRenderLoopR17RenderLoopContextR13dynamic_arrayI16RenderObjectDataLj4EES4_RK11CullResultsRP13RenderTextureSA_Pb
oya:__ZN19RuntimeSceneManager11CreateSceneEv
PFc:_ps_get_standard_strings
mGf:_Collection_1_IsValidItem_m1908012838_gshared
t1a:__Z27SetupBakedOcclusionForLightbRK15SharedLightDataR17ShaderPassContext
XDd:__ZN6il2cpp2os5Mutex6UnlockEv
ELi:_AnimatorControllerPlayable_GetLayerWeight_m1435294989
ECi:_ScrollRect_OnScroll_m3346515304
kof:_Enumerator_System_Collections_IEnumerator_get_Current_m3461301268_gshared
GIh:_Dictionary_2_CopyToCheck_m1638253305_gshared
$Va:__Z18RenderImageFiltersR10RenderLoopb
X_:__Z19free_alloc_internalPv18MemLabelIdentifier
GPc:__Z43CanvasRenderer_Get_Custom_PropMaterialCountP12Il2CppObject
k9a:__ZN10GameObjectD2Ev
UNf:_ReadOnlyCollection_1_System_Collections_Generic_IListU3CTU3E_set_Item_m25653560_gshared
Yui:__ZL68Selectable_t1490392188_CustomAttributesCacheGenerator_m_InteractableP21CustomAttributesCache
XTi:_Color32_op_Implicit_m889975790
oXi:_UnityEventBase_RebuildPersistentCallsIfNeeded_m1583202007
KYf:_CertificateSelectionCallback_Invoke_m2902629105
l8:__ZN10InputEventD2Ev
ZVe:_DateTimeFormatInfo_GetAllDateTimePatternsInternal_m1587126173
Juj:_Vector2_ToString_m775491729_AdjustorThunk
nVe:_NumberFormatter_Append_m3268121457
DWc:__ZN22UnityWebRequestManagerD2Ev
uJd:_RSA_ToXmlString_m4145056574
Jze:_Double_System_IConvertible_ToUInt64_m1318285078_AdjustorThunk
WMj:_isalpha
VPi:_AudioClipPlayable_SetStartDelayInternal_m1268437955
kBi:_Selectable_FindSelectable_m2739582497
L5d:_LayoutGroup_GetAlignmentOnAxis_m1783063916
Cue:_DateTimeUtils_ZeroPad_m86470512
cJi:_AnimationOffsetPlayable_Equals_m3411254421
k4c:__ZN6il2cpp2vmL17IsSocketAsyncCallEP14Il2CppDelegate
URi:_Camera_get_clearFlags_m1743144302
Rrh:_Logger_IsLogTypeAllowed_m1750132386
Wvd:__ZN6il2cpp2vm6String6NewLenEPKcj
Hjb:__ZN6Camera23VirtualRedirectTransferER19StreamedBinaryWriteILb0EE
Zk:_time
z4d:_Graphic_UnregisterDirtyLayoutCallback_m1724443555
Vwa:__ZN14BatchAllocator6CommitE18MemLabelIdentifier
jHc:_cf2_stack_free
eWd:_ExecuteEvents_get_pointerClickHandler_m713983310
vKi:_AnimatorControllerPlayable_GetBool_m217461036_AdjustorThunk
Ou:__ZN7mecanim9animation19EvaluateFloatValuesEPKNS0_18ClipMuscleConstantEPKNS_18ValueArrayConstantEPKNS0_12ClipBindingsEPKNS0_10ClipOutputEPNS0_18AnimationNodeStateEfbb
W2:__ZN15dense_hashtableINSt3__24pairIKiP6ObjectEEi21InstanceIDHashFunctorN14dense_hash_mapIiS4_S6_NS0_8equal_toIiEE13stl_allocatorIS5_L18MemLabelIdentifier65ELi16EEE9SelectKeyES9_SC_E12resize_deltaEjj
FC:__ZN8Animator31ClearInternalControllerPlayableEv
XKi:_AnimatorControllerPlayable_SetTrigger_m4033120343_AdjustorThunk
oEg:_WeakReference_Finalize_m3318354542
F9a:__ZN10GameObject8TransferI24GenerateTypeTreeTransferEEvRT_
Pof:_Enumerator_VerifyState_m3913376581_gshared
Uad:__ZN15dense_hashtableINSt3__24pairIK10KeyWrapperINS1_IPK9FieldInfoP11Il2CppClassEEEjEES9_17ReflectionMapHashIS8_EN14dense_hash_mapIS9_jSD_NS9_14EqualsComparerINS0_8equal_toIS8_EEEENS0_9allocatorISB_EEE9SelectKeyESI_SK_E4findERSA_
P_j:_glDeleteSync__wrapper
gre:_Decimal_op_Implicit_m623319612
pFh:_ValueCollection_System_Collections_Generic_ICollectionU3CTValueU3E_Remove_m98888100_gshared
sVd:_EventTrigger_OnPointerExit_m2119176877
ywg:_ThreadAbortException__ctor_m1623816114
u0b:__ZN13ProduceHelperI30RuntimeInitializeOnLoadManagerLb0EE7ProduceE18MemLabelIdentifier18ObjectCreationMode
J7a:__ZN13RenderTexture19SetAutoGenerateMipsEb
_oa:__Z20GetTextureFormatInfo13TextureFormat
Ync:__Z43Register_UnityEngine_GUIStyle_get_alignmentv
QKg:__Z119RuntimeInvoker_RuntimeObject_RuntimeObject_RuntimeObject_Int32_t2071877448_Int32_t2071877448_MonoIOErrorU26_t1029615899PFvvEPK10MethodInfoPvPS4_
yx:__ZN26AnimatorControllerPlayable8GetFloatEiRf
SFe:_PlayableHandle_IsPlayableOfType_TisRuntimeObject_m4111068959_gshared
gMi:_AnimatorControllerPlayable_GetCurrentAnimatorClipInfoCount_m3938711391
SYc:__ZN6il2cpp2vm5Class4InitEP11Il2CppClass
eXd:_PointerEventData_set_worldPosition_m192283671
ISj:dynCall_iiifiiii
Evj:_Vector3_get_right_m1884123822
oCd:__ZN6il2cpp5utils10MemoryPool6MallocEj
MI:__ZN11SoundHandle8InstanceD2Ev
yba:__ZN31CanvasBatchIntermediateRenderer13StaticDestroyEPv
Dpj:_X509Store_BuildCrlsCollection_m52567568
xfc:__Z29Mesh_CUSTOM_RecalculateBoundsP12Il2CppObject
sAe:_Enum_ToString_m662345249
ITg:__Z150RuntimeInvoker_Single_t2076509932_Single_t2076509932_Single_t2076509932_SingleU26_t4173844468_Single_t2076509932_Single_t2076509932_Single_t2076509932PFvvEPK10MethodInfoPvPS4_
Pcc:__Z41Register_UnityEngine_CullingGroup_Disposev
Eob:__ZN7Cubemap23VirtualRedirectTransferER19StreamedBinaryWriteILb0EE
PQa:__ZN25MultiBlocksMemoryFileData5WriteEyyPKv
_wf:_List_1_System_Collections_IList_Add_m4271264217_gshared
Yfd:__ZN14dense_hash_mapI10KeyWrapperIPK10Il2CppTypeEjN6il2cpp8metadata14Il2CppTypeHashENS4_14EqualsComparerINS6_26Il2CppTypeEqualityComparerEEENSt3__29allocatorINSB_4pairIKS4_jEEEEE13set_empty_keyERSE_
Ccc:__Z35Component_CUSTOM_SendMessageUpwardsP12Il2CppObjectP12Il2CppStringS0_i
YIa:__ZL17ProgramUniform2fvPK7ApiGLESjiihPKv
mYj:b83
qyc:__ZN20TextRenderingPrivate8FontImpl21HasCharacterInTextureEjijfPj
qOj:_htonl
AEa:__Z20GetBufferManagerGLESv
MQb:__ZN18StreamedBinaryReadILb0EE21TransferSTLStyleArrayI31ArrayOfManagedObjectsTransfererEEvRT_17TransferMetaFlags
zug:_UTF7Decoder_GetChars_m2790530452
etc:__Z18Transfer_BlittableI8JSONReadLb0EtEvRK29SerializationCommandArgumentsR31RuntimeSerializationCommandInfo
HAc:_pshinter_module_class_pic_free
gui:__ZL68Navigation_t1571958496_CustomAttributesCacheGenerator_m_SelectOnLeftP21CustomAttributesCache
fy:__ZN34AnimationStateMachineMixerPlayable13EndTransitionEv
rwd:__ZNSt3__212basic_stringIDsNS_11char_traitsIDsEENS_9allocatorIDsEEE9__grow_byEjjjjjj
IK:__ZN12AudioManager21FixMasterGroupRoutingEv
tLd:_SymmetricAlgorithm_set_Key_m2973350820
zsi:__ZL58FontData_t2614388407_CustomAttributesCacheGenerator_m_FontP21CustomAttributesCache
u9f:_WebHeaderCollection_IsHeaderValue_m1723393133
Cxc:__ZN20TextRenderingPrivate8FontImpl13CharacterInfo8TransferI24GenerateTypeTreeTransferEEvRT_
WIg:__Z69RuntimeInvoker_Boolean_t3825574718_Int32_t2071877448_SByte_t454417549PFvvEPK10MethodInfoPvPS4_
ztd:__ZN6il2cpp2os10ThreadImpl33UnregisterCurrentThreadForCleanupEv
nw:__ZN27AnimationLayerMixerPlayable22PrepareAnimationEventsEfR13dynamic_arrayI22AnimationClipEventInfoLj4EE
REb:__Z18Transfer_BlittableI14SafeBinaryReadLb1E4AABBEvRK29SerializationCommandArgumentsR31RuntimeSerializationCommandInfo
ksd:__ZN6il2cpp6icalls8mscorlib6System4Enum12get_hashcodeEP12Il2CppObject
osd:__ZN6il2cpp6icalls8mscorlib6System9AppDomain12getCurDomainEv
M9:__Z22CreateMutexLockedQueue18MemLabelIdentifier
xJ:__ZN9AudioClip7WWWOpenEPKciPjPPvS4_
KEb:__Z18Transfer_BlittableI14SafeBinaryReadLb0E8Vector2fEvRK29SerializationCommandArgumentsR31RuntimeSerializationCommandInfo
hod:__ZN15dense_hashtableINSt3__24pairIK10KeyWrapperINS1_IPKcS4_EEEiEES6_24NamespaceAndNamePairHashN14dense_hash_mapIS6_iS9_NS6_14EqualsComparerI26NamespaceAndNamePairEqualsEENS0_9allocatorIS8_EEE9SelectKeyESD_SF_E12resize_deltaEjj
nOe:_Array_InternalArray__set_Item_TisPlayableBinding_t2498078091_m2071396616_gshared
Vc:_emscripten_glVertexAttrib2f
FTb:__ZN15SerializeTraitsIN9ShaderLab20SerializedSubProgram16TextureParameterEE8TransferI14SafeBinaryReadEEvRS2_RT_
Sfe:_Byte_System_IConvertible_ToInt16_m1575115635_AdjustorThunk
h0i:_Context_get_HasGlobalDynamicSinks_m3205328884
mcf:_SimpleCollator_CompareQuick_m619038530
Z4f:_SslStreamBase_EndRead_m1072850679
nd:_SDL_GetTicks
hkf:_X509CertificateEnumerator_System_Collections_IEnumerator_get_Current_m1643583406
$Nc:__ZN2UI14CanvasRenderer11SyncCullingENS0_8SyncFlagE
Ncd:__ZN15dense_hashtableINSt3__24pairIK10KeyWrapperINS1_IPK11Il2CppImageP11Il2CppClassEEEjEES9_17ReflectionMapHashIS8_EN14dense_hash_mapIS9_jSD_NS9_14EqualsComparerINS0_8equal_toIS8_EEEENS0_9allocatorISB_EEE9SelectKeyESI_SK_E6insertERKSB_
i5a:__Z21CreateShadowCullerJobP30CreateUmbraShadowCullerJobData
$rh:_Material_get_mainTexture_m432794412
QIa:__ZL18ProgramUniform2uivPK7ApiGLESjiihPKv
vZj:_glUniform4iv__wrapper
i2a:__Z33GenerateShadowCasterPartsSortDataRK16ShadowCasterDatajRK15RenderNodeQueueRKNSt3__26vectorI20ShadowCasterPartData13stl_allocatorIS7_L18MemLabelIdentifier2ELi16EEEERK10Matrix4x4fRjP20ShadowCasterSortData
zKh:_Dictionary_2_ToTKey_m4209561517_gshared
wGc:_cf2_computeDarkening
AZ:__GLOBAL__sub_I_runtime_gfxdevice_lump_cpp
dPi:_AsyncOperation_set_priority_m3581020444
Ryd:_GC_expand_hp_inner
Jpd:__ZNK15dense_hashtableI10KeyWrapperIP18Il2CppGenericClassES3_N6il2cpp8metadata22Il2CppGenericClassHashEN14dense_hash_setIS3_S6_NS3_14EqualsComparerINS5_25Il2CppGenericClassCompareEEENSt3__29allocatorIS3_EEE8IdentityESA_SD_E12test_deletedEj
oec:__Z25Screen_Get_Custom_PropDpiv
$4d:_GridLayoutGroup_get_spacing_m1909275195
nwd:__ZN4utf812find_invalidIPKcEET_S3_S3_
Qdg:_X509ExtensionCollection_System_Collections_ICollection_CopyTo_m3421329346
jyd:_GC_err_printf
uch:_FieldBuilder_SetValue_m3109503557
K3d:_Graphic_OnBeforeTransformParentChanged_m1866292273
Hbg:_X509Certificate2_Verify_m1574874641
cX:__ZN11UnityEngine15CloudWebService20WebRequestRestClient7PrepareEv
yri:__ZL58PhysicsRaycaster_t249603239_CustomAttributesCacheGeneratorP21CustomAttributesCache
eyc:__ZN20TextRenderingPrivate19NativeTextGenerator23FixLineHorizontalOffsetEiii
aoe:_SortedList_GetEnumerator_m1318483481
mce:_Array_CreateInstance_m3327690220
qz:__ZN7mecanim9animation19DestroyAnimationSetEPNS0_12AnimationSetERNS_6memory9AllocatorE
sUj:_emscripten_glDepthRange__wrapper
$db:__ZN16MemoryFileSystem4OpenER13FileEntryData14FilePermission16FileAutoBehavior
lba:__ZN13RuntimeStaticI13RendererSceneLb0EE13StaticDestroyEPv
$Jb:__Z18Transfer_BlittableI24GenerateTypeTreeTransferLb1E12PropertyNameEvRK29SerializationCommandArgumentsR31RuntimeSerializationCommandInfo
Myb:__ZN14SafeBinaryRead21TransferSTLStyleArrayI10vector_mapIPKN5Unity4TypeE7Hash128NSt3__24lessIS5_EENS7_9allocatorINS7_4pairIS5_S6_EEEEEEEvRT_17TransferMetaFlags
wJ:__ZN9AudioClip18GetQueuedAudioDataEPPvj
YKc:__ZN20TextRenderingPrivate21TextMeshGeneratorImpl14GarbageCollectEv
hsd:__ZN6il2cpp2os5posix15PosixWaitObject13InterruptWaitEv
_Za:__Z18SetShadowsKeywordsR17ShaderPassContext9LightType10ShadowType16ShadowProjectionbb
Bgd:__ZN14dense_hash_mapI10KeyWrapperINSt3__24pairIPK12PropertyInfoP11Il2CppClassEEEj17ReflectionMapHashIS8_ENS9_14EqualsComparerINS1_8equal_toIS8_EEEENS1_9allocatorINS2_IKS9_jEEEEEC2EjRKSB_RKSF_
A2b:__ZN17CollisionMeshDataC2Ev
R7g:_Assembly_GetModule_m2064378601
fCi:_ScrollRect_SetDirty_m93243192
Upb:__ZN16LightmapSettings23VirtualRedirectTransferER19StreamedBinaryWriteILb0EE
rUa:__ZZ23InitPlayerLoopCallbacksvEN47PostLateUpdateMemoryFrameMaintenanceRegistrator7ForwardEv
Eo:FUNCTION_TABLE_viiififii
Czd:_GC_push_next_marked
puh:_MessageTypeSubscribers__ctor_m743474932
kxa:__ZN18IDCollectorFunctor18GenerateInstanceIDEi17TransferMetaFlags
wNe:_Array_InternalArray__set_Item_TisTableRange_t2011406615_m2386708730_gshared
yVe:_NumberFormatter_ToDecHex_m1474793296
DPi:_AudioClipPlayable_SetClipInternal_m3129974269
iZg:__Z74RuntimeInvoker_Int32_t2071877448_RaycastHit_t87180320_RaycastHit_t87180320PFvvEPK10MethodInfoPvPS4_
Qaf:_OperatingSystem_Clone_m1943707477
j3d:_FontData_set_richText_m29558601
Pwg:_Scheduler_Change_m4063588742
tPe:_Array_Resize_TisVector2_t2243707579_m1117258774_gshared
Bqj:_HitInfo_SendMessage_m3368777144_AdjustorThunk
pfj:_Comparer_1_System_Collections_IComparer_Compare_m2490067344_gshared
qgc:__Z22PlayableValidityChecksRK9HPlayableb
Szb:__ZN15ResourceManagerD2Ev
Ivf:_List_1_Insert_m2532850849_gshared
ucc:__Z41Register_UnityEngine_Camera_GetAllCamerasv
mth:_Mesh_get_vertices_m626989480
Myi:_MaskableGraphic_OnCanvasHierarchyChanged_m2012659245
LHa:__ZN4crnd12crn_unpacker10unpack_dxnEPPhjjjjjj
hUc:__ZN28PerformanceReportingSettings8TransferI14SafeBinaryReadEEvRT_
Bre:_Double_Parse_m2344589511
PNg:__Z78RuntimeInvoker_Boolean_t3825574718_IntPtr_t_Int32_t2071877448_SByte_t454417549PFvvEPK10MethodInfoPvPS4_
Akd:__ZN6il2cpp2vm22EmbeddedResourceRecordC2ERKS1_
gLi:_AnimatorControllerPlayable_INTERNAL_CALL_ResetTriggerID_m1182483253
zob:__ZN9Texture2D13AwakeFromLoadE17AwakeFromLoadMode
Fbf:_MSCompatUnicodeTableUtil__cctor_m1479836795
Gkj:_PositionAssertion__ctor_m3703837499
yae:_LayoutGroup_get_minWidth_m4111745491
v5e:_StreamWriter_Initialize_m1707678624
Erd:__ZN6il2cpp2vm3RCW14QueryInterfaceILb0EEEP14Il2CppIUnknownP15Il2CppComObjectRK10Il2CppGuid
_Bi:_ScrollRect_set_verticalScrollbar_m2903688658
hqa:__ZN6prcoreL17RemapGenericFloatI15TexFormatRFloat18TexFormatARGBFloatEEvPKNS_9InnerInfoE
NYh:__ZL50_Thread_t1894135853_CustomAttributesCacheGeneratorP21CustomAttributesCache
$7i:_InternalEnumerator_1_get_Current_m1047712960_gshared
wZ:__GLOBAL__sub_I_runtime_camera_renderlayers_lump_cpp
yTc:__ZN11UnityEngine15PlatformWrapper20GetPlayerPrefsUInt64ERKN4core12basic_stringIcNS1_20StringStorageDefaultIcEEEEy
I1a:__ZN20ReflectionProbeCacheC2ER13BatchRendererR15RenderLoopStats
Zba:__ZN18AssetBundleManagerC2Ev
cSa:__ZNK12HandlerChain6ExistsERK13FileEntryData
_7h:__ZL61ExtensionAttribute_t1840441203_CustomAttributesCacheGeneratorP21CustomAttributesCache
Zre:_Convert_ToInt32_m2734833291
z2a:__Z30FindDirectAttenuationFromProbeP18ForwardLightsBlockbiRK10RenderNodeRK23FindForwardLightsParamsf
Sxb:__ZN12InputManager23VirtualRedirectTransferER24GenerateTypeTreeTransfer
yYb:__ZN9Transform23VirtualRedirectTransferER24GenerateTypeTreeTransfer
wkc:__ZN12GUIClipState10BeginOnGUIER10InputEvent
NWb:__ZNSt3__26vectorIN9ShaderLab20SerializedSubProgram12UAVParameterENS_9allocatorIS3_EEE21__push_back_slow_pathIKS3_EEvRT_
N_i:_CrossAppDomainChannel_RegisterCrossAppDomainChannel_m43456045
zdg:_X509ChainElement_Count_m228862214
yyg:_TimeZone_IsDaylightSavingTime_m1840774423
cJc:_UNITY_tt_size_ready_bytecode
Pwc:__ZN13TextRendering4FontD2Ev
KEg:__Z47RuntimeInvoker_Single_t2076509932_RuntimeObjectPFvvEPK10MethodInfoPvPS4_
Kzc:_UNITY_FT_Stream_Open
SXg:__Z97RuntimeInvoker_Int32_t2071877448_IntPtr_t_RectU26_t844847526_RuntimeObject_Vector2U26_t3911752445PFvvEPK10MethodInfoPvPS4_
bNc:__GLOBAL__sub_I_runtime_ui_lump_cpp
YQa:__ZN10MemoryFile4ReadEyyPvPy
KAa:__ZN13GfxDeviceGLES26UpdateViewProjectionMatrixEv
fIh:_Dictionary_2_ContainsKeyValuePair_m1750905675_gshared
aI:__ZN4FMOD3DSP12setParameterEif
Ofa:__ZN13MemoryManager16StaticInitializeEv
zUh:__ZL53StackFrame_t2050294881_CustomAttributesCacheGeneratorP21CustomAttributesCache
sf:___cxa_free_exception
QRf:_ReadOnlyCollection_1_System_Collections_ICollection_CopyTo_m4126742951_gshared
OL:__ZN4FMOD22FakeModChannelCallbackEPv
j9f:_ServicePointManager_get_SecurityProtocol_m1445189298
yf:_emscripten_glValidateProgram
qWa:__ZN4Mesh10CreateMeshEv
Vdd:__ZN6il2cpp2gc19AppendOnlyGCHashMapINSt3__24pairIPK9EventInfoP11Il2CppClassEEP21Il2CppReflectionEvent17ReflectionMapHashIS9_ENS2_8equal_toIS9_EEE3AddERKS9_SB_
SI:__ZN4FMOD7SystemI11createSoundEPKcjP22FMOD_CREATESOUNDEXINFOPPNS_5SoundE
Xqj:_Sprite_get_associatedAlphaSplitTexture_m3617241169
xlg:_ArrayFixupRecord_FixupImpl_m2377725358
mnj:_PKCS12_get_Certificates_m2320062949
UGc:_cf2_stack_clear
jze:_Double_System_IConvertible_ToBoolean_m4251806534_AdjustorThunk
QCh:_ShimEnumerator_Reset_m2247049027_gshared
K7a:__ZN7Texture13SetAnisoLevelEi
Sbg:_X509Chain_Process_m2508784250
xAf:_List_1_RemoveAt_m2929488689_gshared
ZKi:_AnimatorControllerPlayable_SetTriggerID_m3311851479
ZAc:_raccess_guess_vfat
NQc:__Z44Canvas_CUSTOM_GetETC1SupportedCanvasMaterialv
Ukb:__ZN11HaloManager10UpdateHaloEiR9Transform11ColorRGBA32fjP6Object
Q9:__ZN33InstancedMeshIntermediateRenderer13StaticDestroyEPv
sZe:_Int16_Parse_m3012618547
Mmd:__ZN14dense_hash_mapI10KeyWrapperIP14Il2CppIUnknownEjN6il2cpp5utils11PointerHashIS1_EENS3_14EqualsComparerINSt3__28equal_toIS2_EEEENS9_9allocatorINS9_4pairIKS3_jEEEEE13set_empty_keyERSF_
kLg:__Z50RuntimeInvoker_Void_t1841601450_OpCode_t2247480392PFvvEPK10MethodInfoPvPS4_
hkb:__Z21DestroyShadowMapCacheP14ShadowMapCache
Tw:__ZN7mecanim9animation25CreateControllerWorkspaceEPKNS0_18ControllerConstantERNS_6memory9AllocatorE
hnf:_Enumerator_VerifyState_m739025304_gshared
q1d:_Graphic_RegisterDirtyVerticesCallback_m4169445219
$fd:__ZN15dense_hashtableINSt3__24pairIK10KeyWrapperIPK10Il2CppTypeEjEES6_N6il2cpp8metadata14Il2CppTypeHashEN14dense_hash_mapIS6_jSB_NS6_14EqualsComparerINSA_26Il2CppTypeEqualityComparerEEENS0_9allocatorIS8_EEE9SelectKeyESF_SH_E14squash_deletedEv
Lld:__ZN6il2cpp2vm13LivenessState5ResetEv
Gtj:_Transform_get_parent_m147407266
$_g:__Z138RuntimeInvoker_Void_t1841601450_RuntimeObject_Color32_t874517518_Int32_t2071877448_Int32_t2071877448_Single_t2076509932_Single_t2076509932PFvvEPK10MethodInfoPvPS4_
lpc:__ZN9JSONWrite8TransferI11KeyframeTplIfEEEvRT_PKc17TransferMetaFlags
nFi:_Text_get_cachedTextGenerator_m224335893
$jh:_GameObject_GetComponent_m306258075
qPa:__ZN24BuiltinShaderParamValuesC2Ev
cqc:__ZL41CreateJSONTransferFunctionScriptingTraitsv
y2e:_FileStream_get_CanWrite_m775322953
BUa:__Z23GetLateBehaviourManagerv
aWd:_ExecuteEvents_Execute_m2863348178
BZi:_Marshal_ReadByte_m536122811
z6:__ZN10MemoryPool10DeallocateEPv
qWe:_NumberFormatInfo__ctor_m2752806684
PZd:_CanvasUpdateRegistry_get_instance_m862315367
ohj:_PatternCompiler_EmitFastRepeat_m1175707353
qSe:_Array_InternalArray__get_Item_TisKeyValuePair_2_t3716250094_m3120861630_gshared
KAc:_cff_driver_class_pic_free
WAg:_UInt32_TryParse_m3987111861
xvc:__ZNK9rapidjson12GenericValueINS_4UTF8IcEE13JSONAllocatorE6AcceptINS_6WriterI16TempBufferWriterS2_S2_S3_EEEEbRT_
vSj:dynCall_vif
wSj:dynCall_vid
QUi:_Native_CSSNodeGetMeasureFunc_m3825031950
ruf:_List_1_System_Collections_IList_get_Item_m3989815218_gshared
xSj:dynCall_vii
BQb:__Z18Transfer_BlittableI18StreamedBinaryReadILb0EELb0EdEvRK29SerializationCommandArgumentsR31RuntimeSerializationCommandInfo
Fgj:_Enumerator_System_Collections_IEnumerator_MoveNext_m3313126804
d5c:__ZN6il2cpp6icalls8mscorlib6System8MonoType18GetFields_internalEP20Il2CppReflectionTypeiS5_
vgb:__ZN5Unity9Component16CheckConsistencyEv
MZd:_LayoutRebuilder_ValidController_m2595049322
HJa:__ZN7ApiGLES11CheckShaderERjb
zha:__ZN19ShaderPropertySheet37CreateTextureAuxPropertyUninitializedEN9ShaderLab16FastPropertyNameES1_PKc
mzh:_RectTransform_set_anchoredPosition_m2077229449
cMb:__ZL26Transfer_SimpleNativeClassI19StreamedBinaryWriteILb0EE10RectOffsetLb1EEvRK29SerializationCommandArgumentsR31RuntimeSerializationCommandInfo
pSe:_Array_InternalArray__get_Item_TisKeyValuePair_2_t1174980068_m964958642_gshared
B2a:__Z28GetNonInterpolatedLightProbeRK17LightProbeContextjR20SphericalHarmonicsL2
CKe:_Array_InternalArray__ICollection_Add_TisDateTime_t693205669_m3559987213_gshared
pDa:__ZN13GfxDeviceGLES17SetGpuProgramNameEP10GpuProgramPKc
pX:__ZNK11UnityEngine15CloudWebService25WebRequestDownloadHandler11GetProgressEv
CWf:_ARC4Managed_CheckInput_m3033530539
t3c:__ZN6il2cpp2vm13MetadataCache28GetMethodDefinitionFromIndexEi
Qud:__ZN6il2cpp2os20FileErrnoToErrorCodeEi
Pma:__ZN14SafeBinaryRead19TransferSTLStyleMapINSt3__23mapI39DeprecatedFastPropertyNameSerialization10ColorRGBAfNS1_4lessIS3_EENS1_9allocatorINS1_4pairIKS3_S4_EEEEEEEEvRT_17TransferMetaFlags
hRi:_Behaviour_get_enabled_m4079055610
Wgh:_MonoEventInfo_GetEventInfo_m2331957186
fvj:_Vector3_Lerp_m2935648359
vwj:_NetFxCoreExtensions_GetMethodInfo_m2715372889
fh:_atexit
Nke:_BitArrayEnumerator_Reset_m3218489242
dge:_Byte_System_IConvertible_ToUInt16_m2275325191
Ced:__ZN6il2cpp2vmL31GetObjectForMissingDefaultValueEj
jJf:_Collection_1__ctor_m824713192_gshared
_0c:__ZNK15dense_hashtableINSt3__24pairIK10KeyWrapperIN6il2cpp5utils13dynamic_arrayIPK10Il2CppTypeLj4EEEEPFvvEEESA_NS3_8metadata19Il2CppSignatureHashEN14dense_hash_mapISA_SD_SG_NSA_14EqualsComparerINSF_22Il2CppSignatureCompareEEENS0_9allocatorISE_EEE9SelectKeyESK_SM_E10test_emptyEj
nUb:__ZN9ShaderLab14SerializedPassC2ERKS0_
Q5i:_InternalEnumerator_1_System_Collections_IEnumerator_get_Current_m3088751576_AdjustorThunk
SBa:__ZNK9GfxDevice28GetActiveRenderSurfaceHeightEv
l:STACKTOP
CIc:_cff_get_name_index
v7e:_Math_Cos_m43596019
jqb:__ZN21EnlightenSceneMapping16BuildRemapTablesEv
hEb:__ZNSt3__26vectorI4PPtrI10MonoScriptE13stl_allocatorIS3_L18MemLabelIdentifier76ELi16EEE8__appendEj
H5b:__ZN17TransformInternal27UpdateDeepChildCountUpwardsER18TransformHierarchyii
ocj:_InternalEnumerator_1_System_Collections_IEnumerator_get_Current_m1533037706_AdjustorThunk
ZPj:__ZNK10__cxxabiv117__class_type_info16search_above_dstEPNS_19__dynamic_cast_infoEPKvS4_ib
A:tempBigIntD
NPd:_Single_Equals_m3359827399_AdjustorThunk
xVd:_EventTrigger_OnPointerClick_m413999043
z:tempBigIntI
axj:_CachedInvokableCall_1__ctor_m127496184_gshared
RVf:_PrimalityTests_RabinMillerTest_m2029846965
y:tempBigIntR
x:tempBigIntS
un:FUNCTION_TABLE_viffi
hzc:_open_face_PS_from_sfnt_stream
Zkg:_ServerIdentity_CreateObjRef_m1056204803
l6:__ZN6Object18RegisterInstanceIDEPS_
IJb:__Z18Transfer_BlittableI24GenerateTypeTreeTransferLb1EsEvRK29SerializationCommandArgumentsR31RuntimeSerializationCommandInfo
Rqd:__ZN15dense_hashtableINSt3__24pairIK10KeyWrapperIP12Il2CppObjectEN6il2cpp2gc9CachedCCWEEES5_NS7_5utils11PointerHashIS3_EEN14dense_hash_mapIS5_S9_SD_NS5_14EqualsComparerINS0_8equal_toIS4_EEEENS0_9allocatorISA_EEE9SelectKeyESI_SK_E11set_deletedER30dense_hashtable_const_iteratorISA_S5_SD_SM_SI_SK_E
LAa:__ZNK9GfxDevice18GetWorldViewMatrixEv
Cuf:_List_1_Contains_m3819542652_gshared
S_f:_TlsServerKeyExchange__ctor_m247733406
vTe:_Object_Instantiate_TisRuntimeObject_m1767088036_gshared
cPf:_ReadOnlyCollection_1_System_Collections_IList_Add_m3065652010_gshared
jxd:__ZN6il2cpp6icalls8mscorlib6System7Convert17Base64ToByteArrayEPDsib
_zj:_IndexedSet_1_Clear_m2776064367_gshared
Mqh:_GUIUtility_set_systemCopyBuffer_m2040945785
P5g:__Z82RuntimeInvoker_Boolean_t3825574718_RaycastResult_t21186376_RaycastResult_t21186376PFvvEPK10MethodInfoPvPS4_
vth:_Mesh_SetNormals_m3341225499
F0c:__ZNSt3__218__insertion_sort_3IRN6il2cpp5utils11collections13ArrayValueMapIPK10Il2CppType17Il2CppInteropData26InteropDataToTypeConverterNS1_8metadata14Il2CppTypeLessENSA_26Il2CppTypeEqualityComparerEE12SortComparerEPS8_EEvT0_SH_T_
uNc:__ZN2UI39SendIgnoreNextTransformChangedRecursiveEPK9TransformPKNS_6CanvasE
PAa:__ZNK9GfxDevice25GetDeviceProjectionMatrixEv
Y7f:_HttpWebRequest__ctor_m1248252412
hmh:_RectOffset_get_right_m281378687
ma:invoke_iidiii
OJb:__Z18Transfer_BlittableI24GenerateTypeTreeTransferLb1EtEvRK29SerializationCommandArgumentsR31RuntimeSerializationCommandInfo
n7g:_RankException__ctor_m2119191472
Evc:__ZN9rapidjson12PrettyWriterI16TempBufferWriterNS_4UTF8IcEES3_13JSONAllocatorE11WriteIndentEv
q8b:__ZN10systeminfo24GetRuntimePlatformStringEv
ssc:__ZN9JSONWrite8TransferI13dynamic_arrayI4AABBLj4EEEEvRT_PKc17TransferMetaFlags
lLg:__Z64RuntimeInvoker_Void_t1841601450_OpCode_t2247480392_RuntimeObjectPFvvEPK10MethodInfoPvPS4_
uU:__ZN5physx14PxLightCpuTask15removeReferenceEv
UUg:__Z88RuntimeInvoker_Void_t1841601450_Double_t4078015681_Double_t4078015681_Double_t4078015681PFvvEPK10MethodInfoPvPS4_
m9f:_SPKey_Equals_m1112627532
M4e:_Stream_Close_m1499612649
t1i:_ArgInfo__ctor_m3787931268
Uoj:_X509Chain_Build_m175470596
Xoh:_GUIStyle_get_font_m1489712926
Gha:__ZN9ShaderLab6TexEnvC2ERKNS_25SerializedTexturePropertyE
Yuh:_Object_Instantiate_m2489341053
kme:_Hashtable__cctor_m2952659675
cyc:__ZN20TextRenderingPrivate19NativeTextGeneratorD2Ev
W3c:__ZN6il2cpp2vm19SocketPollingThread14DequeueRequestEv
wud:__ZL10RevealLinkPv
t6a:__ZNK6Camera26CalculateCullingParametersER17CullingParameters
Ji:___cxa_end_catch
Xdh:_MethodBuilder_MakeGenericMethod_m303913412
i8g:_AssemblyName_InternalGetPublicKeyToken_m3706025887
GSj:dynCall_viffffii
KVd:_ExecuteEvents_Execute_m4235029535
j8f:_HttpWebRequest_GetObjectData_m1200570677
VQc:__Z43Register_UnityEngine_Canvas_set_scaleFactorv
Coh:_GUIStyle_set_onHover_m3908151335
_Ac:_raccess_guess_linux_cap
_2f:_ReceiveRecordAsyncResult_get_AsyncWaitHandle_m1602093076
P_g:__Z113RuntimeInvoker_Boolean_t3825574718_Ray_t2469606224_RaycastHitU26_t1969197280_Single_t2076509932_Int32_t2071877448PFvvEPK10MethodInfoPvPS4_
NQb:__Z19TransferField_ArrayI18StreamedBinaryReadILb0EE27Converter_UnityEngineObjectEvRK23StaticTransferFieldInfoR31RuntimeSerializationCommandInfoRT0_
KPg:__Z221RuntimeInvoker_Void_t1841601450_Int32_t2071877448_Int16_t4041245914_Int16_t4041245914_SByte_t454417549_SByte_t454417549_SByte_t454417549_SByte_t454417549_SByte_t454417549_SByte_t454417549_SByte_t454417549_SByte_t454417549PFvvEPK10MethodInfoPvPS4_
_0:__Z33InitializeBuiltinShaderParamNamesv
Mkf:_ActivationContext_System_Runtime_Serialization_ISerializable_GetObjectData_m775951299
pzh:_RectTransform_INTERNAL_get_sizeDelta_m3975625099
vja:__ZNK16TypeTreeIterator4TypeEv
r1i:_LeaseManager__ctor_m2166901364
APa:__ZN10FileSystem25MountDataFolderFileSystemERKN4core12basic_stringIcNS0_20StringStorageDefaultIcEEEES6_
Wui:__ZL67Selectable_t1490392188_CustomAttributesCacheGenerator_m_SpriteStateP21CustomAttributesCache
qj:_glGetUniformLocation
_Ba:__ZN13GfxDeviceGLES32CreateColorRenderSurfacePlatformEP17RenderSurfaceBase19RenderTextureFormat
gJ:__ZN12AudioManager24CreateFMODSoundFromMovieEP9AudioClip
Gvc:__ZN9rapidjson6WriterI16TempBufferWriterNS_4UTF8IcEES3_13JSONAllocatorE8WriteIntEi
s2c:__ZN6il2cpp2vm13MetadataCache24GetGenericInstanceMethodEPK10MethodInfoPK20Il2CppGenericContext
Hbf:_SimpleCollator_SetCJKTable_m1356471502
mNb:__Z18Transfer_BlittableI18StreamedBinaryReadILb1EELb0E8Vector2fEvRK29SerializationCommandArgumentsR31RuntimeSerializationCommandInfo
n_e:_Int32_System_IConvertible_ToUInt64_m2888588559_AdjustorThunk
G5:__Z24ConvertSeparatorsToUnityPc
dyb:__ZNSt3__213__vector_baseI9InputAxisNS_9allocatorIS1_EEED2Ev
Uid:__ZN6il2cpp2vm6Thread20FreeThreadStaticDataEP12Il2CppThread
uEg:__Z28RuntimeInvoker_RuntimeObjectPFvvEPK10MethodInfoPvPS4_
vBe:_Exception_get_ClassName_m2189012117
h1e:_IOException__ctor_m613517077
EZi:_MarshalDirectiveException__ctor_m3894820706
hHc:_cf2_glyphpath_finalize
soe:_Stack__ctor_m521896492
UYa:__Z20LookRotationToMatrixRK8Vector3fS1_P10Matrix3x3f
WSj:dynCall_viififi
qAb:__ZNSt3__26vectorIN15ResourceManager10DependencyE13stl_allocatorIS2_L18MemLabelIdentifier51ELi16EEE6assignINS_11__wrap_iterIPS2_EEEENS_9enable_ifIXaasr21__is_forward_iteratorIT_EE5valuesr16is_constructibleIS2_NS_15iterator_traitsISC_E9referenceEEE5valueEvE4typeESC_SC_
dBc:_UNITY_FT_Stream_Free
Uyg:_Type_GetTypeFromHandle_m432505302
Hid:__ZN15dense_hashtableINSt3__24pairIK10KeyWrapperINS1_IP11Il2CppClassjEEES4_EES6_N6il2cpp8metadata14ArrayClassHashEN14dense_hash_mapIS6_S4_SB_NS6_14EqualsComparerINSA_17ArrayClassCompareEEENS0_9allocatorIS8_EEE9SelectKeyESF_SH_E12maybe_shrinkEv
UFe:_PlayableHandle_IsPlayableOfType_TisAnimationClipPlayable_t4099382200_m682525715_gshared
pZi:_GCHandle_FreeHandle_m2466807271
N3d:_GraphicRegistry_get_instance_m2112667631
yV:__ZN11UnityEngine15CloudWebService14DataDispatcher25OnDataBlockConsumedStaticEPv
PVd:_ExecuteEvents_Execute_m2476343313
HYh:__ZL54_MethodInfo_t3642518830_CustomAttributesCacheGeneratorP21CustomAttributesCache
W_d:_CanvasUpdateRegistry_CleanInvalidItems_m1402635291
O_e:_Int64_System_IConvertible_ToByte_m3027162116_AdjustorThunk
iWd:_ExecuteEvents_get_endDragHandler_m56074740
mvh:_Playable_get_Null_m3678950051
K1b:__ZZN8Renderer15InitializeClassEvEN28FunctorImpl_136kLayerChanged4CallEPviR11MessageData
Z8d:_InputField_IsValidChar_m3929866302
eTb:__Z14resize_trimmedINSt3__26vectorIN9ShaderLab20SerializedSubProgram16SamplerParameterENS0_9allocatorIS4_EEEEEvRT_j
hie:_ArrayList__cctor_m2090802806
IPj:__ZNSt3__212basic_stringIcNS_11char_traitsIcEENS_9allocatorIcEEE6insertEjPKcj
eqc:__Z44InitializeTransferFunctionScriptingTraitsForI8JSONReadEvR31TransferFunctionScriptingTraits
Vbb:__ZNSt3__26vectorINS_4pairIN4core12basic_stringIcNS2_20StringStorageDefaultIcEEEES6_EE13stl_allocatorIS7_L18MemLabelIdentifier37ELi16EEE6insertENS_11__wrap_iterIPKS7_EERSD_
gza:__ZNSt3__27__sort4IRNS_4lessIN22BuiltinResourceManager8ResourceEEEPS3_EEjT0_S7_S7_S7_T_
TVd:_ExecuteEvents_Execute_m171612015
Zha:__ZN15dense_hashtableINSt3__24pairIKPK17RenderSurfaceBaseP13RenderTextureEES4_19PointerHashFunctionIS4_EN14dense_hash_mapIS4_S7_SA_NS0_8equal_toIS4_EE13stl_allocatorIS8_L18MemLabelIdentifier65ELi16EEE9SelectKeyESD_SG_E12resize_deltaEjj
JHa:__ZN4crnd12crn_unpacker11unpack_dxt5EPPhjjjjjj
FBg:_UInt32_System_IConvertible_ToUInt64_m4083788326_AdjustorThunk
hmi:__ZL99GUIStyle_t1799908754_CustomAttributesCacheGenerator_GUIStyle_t1799908754____clipOffset_PropertyInfoP21CustomAttributesCache
YJc:_UNITY_tt_face_get_location
yqg:_DESTransform_Permutation_m4174035780
p1e:_Path_IsDsc_m1314465747
t2e:_MonoIO_Seek_m3461199288
rRb:__Z29Transfer_Blittable_ArrayFieldI18StreamedBinaryReadILb0EE4AABBEvRT_R9ArrayInfoRK23StaticTransferFieldInfo
D8a:__ZN10GameObject34AddFirstTransformComponentInternalEP9Transform
Rcc:__Z31Cursor_Get_Custom_PropLockStatev
p1:__ZNSt3__26__treeINS_12__value_typeINS_4pairIPcS3_EENS_3setIS3_15compare_tstringIPKcENS_9allocatorIS3_EEEEEENS_19__map_value_compareIS4_SD_20smaller_tstring_pairIS8_ELb1EEENSA_ISD_EEE7destroyEPNS_11__tree_nodeISD_PvEE
kP:__ZN12AudioManager29GetCurrentAmbisonicDefinitionE31UnityAudioEffectDefinitionFlags
Njj:_CaptureAssertion_get_Alternate_m2729005740
Tdc:__Z52Register_UnityEngine_GameObject_GetComponentInParentv
Xyb:__ZN15SerializeTraitsINSt3__24pairIPKN5Unity4TypeE7Hash128EEE8TransferI14SafeBinaryReadEEvRS7_RT_
h5a:__Z37GenerateCombinedDynamicVisibleListJobP11CullResults
EZ:__GLOBAL__sub_I_runtime_graphics_billboard_lump_cpp
Uda:__ZNK13ScreenManager21GetCursorInsideWindowEv
aud:__ZN6il2cpp2vmL22RaiseOverflowExceptionEv
TKe:_Array_InternalArray__ICollection_Add_TisSByte_t454417549_m46595441_gshared
ngj:_Match_get_Empty_m3581361913
h2a:__Z20IntersectAABBFrustumRK4AABBPK5Planej
QRd:_String_Concat_m626692867
e3b:__ZN13RenderManager15InitializeClassEv
WGb:__ZN15SerializeTraitsI12PropertyNameE8TransferI14SafeBinaryReadEEvRS0_RT_
Prj:_TextGenerationSettings_CompareVector2_m592645251_AdjustorThunk
fsc:__ZN9JSONWrite8TransferI11ColorRGBA32EEvRT_PKc17TransferMetaFlags
yuc:__Z22TransferField_NonArrayI8JSONRead27Converter_SimpleNativeClassI8GradientEEvRK23StaticTransferFieldInfoR31RuntimeSerializationCommandInfoRT0_
Mdb:__ZNSt3__26__treeIN4core12basic_stringIcNS1_20StringStorageDefaultIcEEEENS_4lessIS5_EE13stl_allocatorIS5_L18MemLabelIdentifier37ELi16EEE7destroyEPNS_11__tree_nodeIS5_PvEE
nJa:__ZNSt3__26vectorI15ComputeShaderCBNS_9allocatorIS1_EEE21__push_back_slow_pathIKS1_EEvRT_
nDb:__ZN10MonoScript13AwakeFromLoadE17AwakeFromLoadMode
S_b:__ZN13ProduceHelperI11MonoManagerLb0EE7ProduceE18MemLabelIdentifier18ObjectCreationMode
zLa:__ZNK18GfxFramebufferGLES15DiscardContentsER12ObjectHandleI17RenderSurface_TagP17RenderSurfaceBaseE
n3c:__ZN6il2cpp2vm13MetadataCache27GetEventDefinitionFromIndexEi
kgf:_KeyPairPersistence_IsUserProtected_m37342608
krc:__Z18Transfer_BlittableI9JSONWriteLb1EdEvRK29SerializationCommandArgumentsR31RuntimeSerializationCommandInfo
cXj:_glGetIntegerv__wrapper
xUe:_NumberFormatter_ResetCharBuf_m3823516989
H:Math_pow
tca:__ZN14dense_hash_mapIN4core12basic_stringIcNS0_20StringStorageDefaultIcEEEE10vector_setI4PPtrI11SpriteAtlasENSt3__24lessIS8_EE13stl_allocatorIS8_L18MemLabelIdentifier79ELi16EEE20StringHash32FunctionIS4_ENS9_8equal_toIS4_EESC_INS9_4pairIKS4_SF_EELSD_79ELi16EEE15set_deleted_keyERSL_
L8a:__ZN10GameObject28FinalizeAddComponentInternalEPN5Unity9ComponentE
nje:_ArrayListWrapper_CopyTo_m735618473
cH:__Z64AnimatorControllerPlayable_CUSTOM_INTERNAL_CALL_SetTriggerStringR9HPlayableP12Il2CppString
bph:_GUIStyle_Internal_Draw_m3610093213
mrj:_StackTraceUtility_IsSystemStacktraceType_m506502194
wpb:__ZN9Texture2DD2Ev
zZ:__GLOBAL__sub_I_runtime_geometry_lump_cpp
Cie:_ArrayList_Remove_m3941780739
g4c:__ZN6il2cpp2vm21ThreadPoolCompartment12DetachThreadEP12Il2CppThread
W9g:_ConstructorBuilder_not_created_m2150488017
YFg:__Z63RuntimeInvoker_Char_t3454481338_Int16_t4041245914_RuntimeObjectPFvvEPK10MethodInfoPvPS4_
lG:__ZNSt3__26vectorIiNS_9allocatorIiEEE6insertENS_11__wrap_iterIPKiEERS5_
Xlj:_Uri_AppendQueryAndFragment_m2358658590
bth:_Mesh_GetIndicesImpl_m2398977086
Nq:__ZN13dynamic_arrayIhLj1EE18resize_initializedEjRKh12ResizePolicy
MWi:_InvokableCallList_AddListener_m786891050
xxa:__ZN17PersistentManager27GetLoadErrorMessageFromPathERKN4core12basic_stringIcNS0_20StringStorageDefaultIcEEEE
mTd:_DecoderReplacementFallbackBuffer_Fallback_m1790184670
bm:_glGenRenderbuffers
jmd:__ZN6il2cpp6icalls8mscorlib6System2IO6MonoIO19GetCurrentDirectoryEPi
XRd:_String_GetHashCode_m931956593
kzb:__ZN14PlayerSettings23VirtualRedirectTransferER17RemapPPtrTransfer
sXj:_emscripten_glGetIntegerv__wrapper
bP:__ZN12AudioManager31GetCurrentSpatializerDefinitionEv
Mwb:__ZN12MeshRenderer16UpdateCachedMeshEv
DGb:__Z19TransferField_ArrayI14SafeBinaryRead27Converter_SimpleNativeClassI8GradientEEvRK23StaticTransferFieldInfoR31RuntimeSerializationCommandInfoRT0_
ly:__ZNK27StateMachineBehaviourPlayer25FireStateMachineBehaviourEiiN7mecanim12statemachine19StateMachineMessageE
CBi:_ScrollRectEvent__ctor_m2283981448
FOg:__Z52RuntimeInvoker_Single_t2076509932_Single_t2076509932PFvvEPK10MethodInfoPvPS4_
O_g:__Z109RuntimeInvoker_Single_t2076509932_RuntimeObject_RuntimeObject_Single_t2076509932_ILayoutElementU26_t440254879PFvvEPK10MethodInfoPvPS4_
Uof:_Enumerator_VerifyState_m3913376581_AdjustorThunk
J6f:_NameObjectCollectionBase_System_Collections_ICollection_CopyTo_m810189168
c8a:__ZN6Camera15SetOrthographicEb
NCc:_UNITY_FT_Stream_GetUShort
VAa:__ZN13GfxDeviceGLES14DisableScissorEv
QXh:__ZL71ReliabilityContractAttribute_t1625655220_CustomAttributesCacheGeneratorP21CustomAttributesCache
ate:_Decimal_op_Explicit_m1986696267
cKh:_Dictionary_2_System_Collections_ICollection_CopyTo_m3578539931_gshared
S7g:_Assembly_GetModules_m2242070953
YUe:_NumberFormatter_AppendDecimalString_m3532330813
Kc:_glVertexAttrib4f
_Sg:__Z94RuntimeInvoker_RuntimeObject_RuntimeObject_Int32_t2071877448_SByte_t454417549_SByte_t454417549PFvvEPK10MethodInfoPvPS4_
fBe:_Environment_GetFolderPath_m1849163024
Oef:_ASN1_Add_m2540239672
aFe:_Array_InternalArray__ICollection_Remove_TisInt16_t4041245914_m3380378727_gshared
ewh:_PlayableHandle_GetInputCount_m3249715311_AdjustorThunk
Whg:_MethodDictionary_CopyTo_m1721788774
sxc:__ZNSt3__26vectorINS_4pairINS1_IttEEfEENS_9allocatorIS3_EEE8__appendEj
__i:_SinkProviderData__ctor_m1828480392
gYd:_RaycastResult_ToString_m2233441736_AdjustorThunk
ksh:_Mathf_Sin_m831310046
_zd:_GC_set_hdr_marks
oWa:__Z17SetupObjectMatrixRK10Matrix4x4fi
SOd:_SecurityFrame_ToString_m1282306399
Dcf:_SimpleCollator_MatchesBackwardCore_m1884994267
ayg:_TimeSpan_From_m1249538749
Zbf:_SimpleCollator_GetSortKey_m1317491197
Fjc:__Z43Object_CUSTOM_DoesObjectWithInstanceIDExisti
m1:__ZN13RuntimeStaticINSt3__23mapINS0_4pairIPcS3_EEPFbPvR14SafeBinaryReadE20smaller_tstring_pairIPKcENS0_9allocatorINS2_IKS4_S9_EEEEEELb0EE13StaticDestroyES5_
chh:_MonoEvent_GetCustomAttributes_m3899596098
Ase:_Convert_ToSByte_m3295168715
Ht:__ZN7mecanim9animation16CreateClipMemoryEPKNS0_4ClipEiRNS_6memory9AllocatorE
ezc:_open_face
P1b:__ZZL31RegisterOtherRendererPropertiesR22GenericPropertyBindingEN30Wrapper_RendererReceiveShadows13SetFloatValueEPvf
nPc:__Z17RegisterModule_UIv
c7e:_UnmanagedMemoryStream_Flush_m3305300000
dSi:_Camera_FireOnPreRender_m24116662
fAg:_TypeLoadException_GetObjectData_m2885802706
GBa:__ZN9GfxDevice24CreateRenderDepthSurfaceE9TextureIDiiii16TextureDimension17DepthBufferFormat18SurfaceCreateFlags
_mg:_ObjectManager_DoFixups_m835924385
Akg:_RemotingServices_CreateWellKnownServerIdentity_m3390048085
_I:__ZN4FMOD5Sound11setUserDataEPv
oSb:__ZN14SafeBinaryRead21TransferSTLStyleArrayINSt3__26vectorIN9ShaderLab19SerializedSubShaderENS1_9allocatorIS4_EEEEEEvRT_17TransferMetaFlags
fw:__ZN27AnimationLayerMixerPlayable13SetInputCountEi
uWf:_ARC4Managed_KeySetup_m73384687
mRa:__ZNK25SingleBlockMemoryFileData4SizeEv
mve:_DateTime_Equals_m2562884703
LA:__ZN9BlobWrite8TransferIN7mecanim12statemachine18StateMachineMemoryEEEvRT_PKc17TransferMetaFlags
HM:__ZL50UnityAudioEffect_InternalSetFloatParameterCallbackP14FMOD_DSP_STATEif
oqd:__ZNK15dense_hashtableINSt3__24pairIK10KeyWrapperIP12Il2CppObjectEN6il2cpp2gc9CachedCCWEEES5_NS7_5utils11PointerHashIS3_EEN14dense_hash_mapIS5_S9_SD_NS5_14EqualsComparerINS0_8equal_toIS4_EEEENS0_9allocatorISA_EEE9SelectKeyESI_SK_E3endEv
hgb:__ZN17LowLevelAllocator4FreeEPvj
ine:_KeyMarker__cctor_m2057880225
VXc:__ZN15dense_hashtableINSt3__24pairIK10KeyWrapperIPK22Il2CppGenericParameterEP11Il2CppClassEES6_N6il2cpp5utils11PointerHashIS4_EEN14dense_hash_mapIS6_S9_SE_NS6_14EqualsComparerINS0_8equal_toIS5_EEEENS0_9allocatorISA_EEE9SelectKeyESJ_SL_E9copy_fromERKSO_j
CXe:_TextInfo_get_ListSeparator_m3426465394
a3e:_FileStream_BeginWrite_m3895959548
v0f:_Context_set_RecordProtocol_m1968834768
K7:__ZL19StaticCleanupPlayerPv
Icg:_X509Certificate2Enumerator_MoveNext_m1861665712
E4b:__ZN13PlayableGraph4StopEv
QHg:__Z87RuntimeInvoker_RuntimeObject_RuntimeObject_RuntimeObject_RuntimeObject_SByte_t454417549PFvvEPK10MethodInfoPvPS4_
Xba:__ZN15dense_hashtableINSt3__24pairIKN4core12basic_stringIcNS2_20StringStorageDefaultIcEEEEP11AssetBundleEES6_20StringHash32FunctionIS6_EN14dense_hash_mapIS6_S9_SC_NS0_8equal_toIS6_EENS0_9allocatorISA_EEE9SelectKeyESF_SH_ED2Ev
Ivg:_Monitor_Monitor_wait_m3813798368
YSd:_DecoderExceptionFallbackBuffer_Fallback_m3457210607
ygb:__ZN9Behaviour10DeactivateE19DeactivateOperation
zVi:_Display_get_renderingWidth_m2127568366
xJf:_Collection_1_System_Collections_IList_get_Item_m2836259259_gshared
UPi:_Debug_LogWarning_m2503577968
Wva:__ZN13StreamingInfo8TransferI14SafeBinaryReadEEvRT_
pKi:_AnimatorControllerPlayable_GetBoolString_m2522782124
NSb:__ZN15dense_hashtableINSt3__24pairIKiN4core17string_with_labelILi1EEEEEi18SInt32HashFunctionN14dense_hash_mapIiS5_S7_NS0_8equal_toIiEE13stl_allocatorIS6_L18MemLabelIdentifier1ELi16EEE9SelectKeyESA_SD_E15insert_noresizeERKS6_
XAb:__ZN14SafeBinaryRead21TransferSTLStyleArrayINSt3__26vectorIN4core12basic_stringIcNS3_20StringStorageDefaultIcEEEE13stl_allocatorIS7_L18MemLabelIdentifier12ELi16EEEEEEvRT_17TransferMetaFlags
bwc:__GLOBAL__sub_I_runtime_dynamics_lump_cpp
Hp:__Z23CalculateGlobalRotation23TransformAccessReadOnly
Mcg:_X509Store_Close_m2412711366
fF:__Z25HumanPoseMaskFromBodyMaskRK13dynamic_arrayIjLj4EE
PKi:_AnimatorControllerPlayable_SetInteger_m881630854_AdjustorThunk
M1b:__Z43InitializeRendererAnimationBindingInterfacev
w6:__ZL26DestroyGameObjectRecursiveR10GameObjectR11BatchDelete
qyi:_CullStateChangedEvent__ctor_m4025397477
pAd:_GC_allochblk_nth
Nvg:_Mutex_ReleaseMutex_m2143813124
wBg:_UInt32_System_IConvertible_ToSByte_m604037412_AdjustorThunk
Z0b:__Z7HaloTexP9Texture2DPhiiii
ITj:dynCall_i
xLe:_Array_InternalArray__ICollection_CopyTo_TisKeyValuePair_2_t3749587448_m2750720485_gshared
_R:__ZN17AudioCustomFilter4InitEv
Unj:_X509Certificate__cctor_m2984068893
xRe:_Component_GetComponents_TisRuntimeObject_m1186222966_gshared
USj:dynCall_f
lKb:__Z35Transfer_Blittable_FixedBufferFieldI24GenerateTypeTreeTransferjEvRK29SerializationCommandArgumentsR31RuntimeSerializationCommandInfo
Umb:__ZN8Playable13SetInputCountEi
jSj:dynCall_v
E4e:_Path__cctor_m3685888661
Twe:_Decimal_System_IConvertible_ToDateTime_m4247760250_AdjustorThunk
iff:_BitConverterLE_ULongFromBytes_m2583105400
EKa:__ZN7ApiGLES14TextureSamplerEjjRK24GfxTextureSamplingParams17TextureColorSpace
kjd:__ZN6il2cpp2vm6Thread8SetStateEP12Il2CppThreadNS0_11ThreadStateE
Ljb:__ZN6Camera23VirtualRedirectTransferER14SafeBinaryRead
kuf:_List_1_System_Collections_IList_Insert_m2838947798_gshared
EEd:__ZNSt3__26vectorINS_12basic_stringIDsNS_11char_traitsIDsEENS_9allocatorIDsEEEENS4_IS6_EEE8__appendEj
$xg:_TimeSpan_FromDays_m2859053398
bub:__ZNK15dense_hashtableINSt3__24pairIKN4core12basic_stringIcNS2_20StringStorageDefaultIcEEEE10vector_setI4PPtrI11SpriteAtlasENS0_4lessISB_EE13stl_allocatorISB_L18MemLabelIdentifier79ELi16EEEEES6_20StringHash32FunctionIS6_EN14dense_hash_mapIS6_SH_SK_NS0_8equal_toIS6_EESE_ISI_LSF_79ELi16EEE9SelectKeyESN_SO_E23find_position_with_hashERS7_j
XSc:__ZN11UnityEngine7Connect13ConnectConfig11ConfigValueD2Ev
SEa:__ZNSt3__26__treeINS_12__value_typeIjP14DataBufferGLESEENS_19__map_value_compareIjS4_NS_4lessIjEELb1EEENS_9allocatorIS4_EEE7destroyEPNS_11__tree_nodeIS4_PvEE
K4b:__ZN13PlayableGraph15SetPrepareStageE13DirectorStage
Db:invoke_viiiiiiii
wye:_Delegate_Remove_m2626518725
I7e:_MissingMemberException__ctor_m2869542203
exj:_CachedInvokableCall_1__ctor_m3238306320_gshared
I5a:__ZNK6Camera16GetCullingMatrixEv
mAf:_List_1_Find_m160737912_gshared
ulj:_Uri_EnsureAbsoluteUri_m1892758054
Spb:__ZN16LightmapSettings5ResetEv
jQa:__ZN12FileAccessor4ReadEyPvPy
qmc:__Z42Register_UnityEngine_Event_get_commandNamev
fie:_ArrayList_ThrowNewArgumentOutOfRangeException_m3795973535
Ohj:_Regex_Init_m1873144192
mff:_BitConverterLE_ToDouble_m516016818
k6:__ZNK15FileSystemEntry6ExistsEv
jxb:__ZNK9Transform21GetLocalToWorldMatrixER10Matrix4x4f
HXf:_EncryptedPrivateKeyInfo__ctor_m3398795484
TJ:__ZN13AudioListener23VirtualRedirectTransferER19StreamedBinaryWriteILb0EE
vCa:__ZN13GfxDeviceGLES11CopyTextureE9TextureIDS0_
lbc:__Z72Register_UnityEngine_AssetBundleCreateRequest_DisableCompatibilityChecksv
nWj:_emscripten_glViewport__wrapper
fXg:__Z47RuntimeInvoker_RuntimeObject_Single_t2076509932PFvvEPK10MethodInfoPvPS4_
P$i:_Context__cctor_m3895126354
YIc:_tt_size_select
QV:__ZN11UnityEngine15CloudWebService17SessionEventQueue15RestoreFromFileER12FileAccessorPvy
bzb:__ZN14PlayerSettingsD2Ev
A2e:_FileStream_get_Length_m2265080501
ozg:_Type_type_is_assignable_from_m1620694099
dzd:_GC_reclaim_all
haa:__ZN13PlayableGraph14DestroyOutputsEv
O0i:_ContextAttribute_GetPropertiesForNewContext_m4007241045
rf:___syscall122
jVf:_Kernel_Subtract_m2224959291
lYi:_ResourceSet__ctor_m2566914412
QKi:_AnimatorControllerPlayable_SetInteger_m3338355659
nWf:_ASN1Convert_ToDateTime_m2305963290
lLd:_SymmetricAlgorithm_Finalize_m1665128997
OR:__ZN9AudioClip16EnableLegacyModeEv
fce:_Array_SetValue_m1489959987
vcc:__Z52Register_UnityEngine_Camera_INTERNAL_CALL_RaycastTryv
Tbb:__ZN13sorted_vectorINSt3__24pairIN4core12basic_stringIcNS2_20StringStorageDefaultIcEEEES6_EEN10vector_mapIS6_S6_27compare_tstring_insensitiveIS6_E13stl_allocatorIS7_L18MemLabelIdentifier37ELi16EEE13value_compareESD_E10insert_oneERKS7_
Gpe:_Convert_ToByte_m791636053
oDd:__GLOBAL__sub_I_MemoryMappedFile_cpp
Idj:_InternalEnumerator_1_get_Current_m2986222582_AdjustorThunk
SQf:_ReadOnlyCollection_1_System_Collections_IList_RemoveAt_m2372993063_gshared
mTj:dynCall_iifi
T9b:__ZN18ScriptingArguments13CopyFromOtherERKS_
qsh:_Mathf_Ceil_m3621406599
eFc:_ps_hints_close
o3b:__Z16CreateRenderLoopR6Camera
Z_:_tlsf_create
Mej:_DefaultComparer_Compare_m4039941311_gshared
ZEh:_Enumerator_MoveNext_m2534596951_AdjustorThunk
SBb:__ZN13MonoBehaviour23VirtualRedirectTransferER18StreamedBinaryReadILb0EE
XTb:__ZN9ShaderLab20SerializedSubProgramC2ERKS0_
R_j:_emscripten_glCompileShader__wrapper
xKd:_SHA256Managed_ProcessBlock_m1064908669
AQj:__ZNK10__cxxabiv121__vmi_class_type_info27has_unambiguous_public_baseEPNS_19__dynamic_cast_infoEPvi
Ate:_Convert_ToUInt64_m2215781574
noj:_X509Certificate_VerifySignature_m4020723406
bAg:_TypeInitializationException_GetObjectData_m2244451030
HCe:_CompareInfo_LastIndexOf_m2978196696
Iff:_DSAManaged_Generate_m3166917081
yBh:_Enumerator_VerifyCurrent_m3330382363_AdjustorThunk
DCi:_ScrollRect_StopMovement_m1824352159
tl:_emscripten_glGetActiveUniform
N$a:__Z20RenderFullScreenQuadR9GfxDeviceRK6Camera17ShaderChannelMaskRK5RectTIfEf21MonoOrStereoscopicEye
qMf:_ReadOnlyCollection_1_System_Collections_IList_Contains_m2320811592_gshared
xka:__ZN16RenderTextureMap5QueryEPK17RenderSurfaceBase
Q6e:_UnexceptionalStreamWriter_Write_m186237617
qCi:_ScrollRect_UpdateScrollbars_m3921404746
UZj:_emscripten_glUniform4iv__wrapper
jfe:_Boolean_CompareTo_m1086129598_AdjustorThunk
_1b:__ZN8Material8GetFloatEN9ShaderLab16FastPropertyNameE
zQi:_AudioPlayableOutput__ctor_m2971183853
IAc:_psnames_module_class_pic_free
vkc:__Z11GetGUIStatev
qg:_pthread_key_create
ZXg:__Z61RuntimeInvoker_Boolean_t3825574718_Int32_t2071877448_IntPtr_tPFvvEPK10MethodInfoPvPS4_
uie:_ArrayList_Clear_m3834604134
xg:_emscripten_glGetObjectParameterivARB
Yma:__ZN15SerializeTraitsI10ColorRGBAfE8TransferI14SafeBinaryReadEEvRS0_RT_
Q7:__ZN22BuiltinResourceManager13StaticDestroyEPv
fPe:_Array_Resize_TisCustomAttributeTypedArgument_t1498197914_m3055365808_gshared
p6:__ZN10GameObject17GetComponentIndexEPN5Unity9ComponentE
_sb:__ZN14SafeBinaryRead21TransferSTLStyleArrayI13dynamic_arrayI7SubMeshLj4EEEEvRT_17TransferMetaFlags
FPd:_Single_IsNegativeInfinity_m2615809279
K_e:_Int32_GetTypeCode_m3811463295_AdjustorThunk
p_f:_CipherSuiteFactory_GetSsl3SupportedCiphers_m2476597368
t8f:_IPv6Address_Fill_m1824197512
MKc:__ZNK13TextRendering4Font11GetMaterialEv
vM:__ZN29AudioEffectInternalDefinition9CreateDSPEPN4FMOD6SystemEPvPfP23UnityAudioAmbisonicDataPP25UnityAudioSpatializerData
BKc:_UNITY_tt_face_vary_cvt
Ikc:__Z28DidLoadAllAssembliesCallbackv
xbb:__ZN35RegisterRuntimeInitializeAndCleanup22ExecuteInitializationsEv
LTe:_GameObject_GetComponents_TisRuntimeObject_m3618562997_gshared
dsa:__ZN23PreloadManagerOperation14SetFinalTimingEffff
i:DYNAMICTOP_PTR
e2d:_Dropdown_SetupTemplate_m1416189897
KWa:__Z11CopyTextureP7TextureiiS0_ii
Zyb:__ZN13BuildSettings8TransferI18StreamedBinaryReadILb0EEEEvRT_
wzi:_PositionAsUV1__ctor_m412270210
SZb:__ZN10GameObject15InitializeClassEv
Ong:_SerializationInfo_GetInt16_m3549836657
kec:__Z38Renderer_Get_Custom_PropSortingLayerIDP12Il2CppObject
uvi:__ZL90StencilMaterial_t1630303189_CustomAttributesCacheGenerator_StencilMaterial_Add_m1745413071P21CustomAttributesCache
GEe:_Array_InternalArray__ICollection_Contains_TisWorkRequest_t1154022482_m865286315_gshared
Qze:_Double_Equals_m920556135_AdjustorThunk
Goe:_Stack_Push_m284336154
u7d:_InputField_set_caretBlinkRate_m3521089516
Zue:_DateTime_Add_m4237489122
uXc:__ZL11decimalLog2P19il2cpp_decimal_repr
kAb:__ZN15ResourceManager10Dependency8TransferI14SafeBinaryReadEEvRT_
Hyd:_GC_extend_size_map
Rfj:_Comparer_1_System_Collections_IComparer_Compare_m637596782_gshared
XM:__ZN4FMOD6System9setDriverEi
Npd:__ZN6il2cpp8metadataL24RecursiveGenericDepthForEPK17Il2CppGenericInst
u3b:__ZNK9Transform11GetRotationEv
zbg:_X509Certificate2_Find_m833446211
kS:__ZN12AudioManager15DidReloadDomainEv
DFc:_pshinter_get_globals_funcs
mKb:__Z18Transfer_BlittableI24GenerateTypeTreeTransferLb0EyEvRK29SerializationCommandArgumentsR31RuntimeSerializationCommandInfo
eha:__ZN8Material14CreateMaterialER6ShaderN6Object9HideFlagsEb
tgf:_KeyPairPersistence_FromXml_m2310151202
Abc:__Z60Register_UnityEngine_AsyncOperation_get_allowSceneActivationv
wwe:_DBNull_System_IConvertible_ToUInt64_m2919804476
IOj:_fread
Nlb:__ZNK17InstancedPropInfo15RenderInstancesERK15RenderNodeQueuePK17BatchInstanceDataj17ShaderChannelMaskPFbPvS6_iR11MeshBuffersR16DrawBuffersRangeRiSC_E
mnc:__Z31GUIStyle_CUSTOM_GetFontInternalP12Il2CppObject
oEc:_tt_cmap12_char_map_binary
mOg:__Z51RuntimeInvoker_Double_t4078015681_Int16_t4041245914PFvvEPK10MethodInfoPvPS4_
pBc:_ft_outline_glyph_transform
hha:__Z25GetBuiltinResourceManagerv
maj:_InternalEnumerator_1_System_Collections_IEnumerator_get_Current_m439366097_AdjustorThunk
Ypd:__ZN6il2cpp2gc8GCHandle15GetTargetHandleEP12Il2CppObjectii
Nh:_llvm_trap
d1:__ZNSt3__27__sort5IRNS_6__lessIN12_GLOBAL__N_114ParamNameIndexES3_EEPS3_EEjT0_S7_S7_S7_S7_T_
$0e:_Directory_CreateDirectory_m3561886598
czd:_get_index
CYa:__Z26scripting_method_get_class18ScriptingMethodPtr
zad:__ZN15dense_hashtableINSt3__24pairIK10KeyWrapperINS1_IPK14Il2CppAssemblyP11Il2CppClassEEEjEES9_17ReflectionMapHashIS8_EN14dense_hash_mapIS9_jSD_NS9_14EqualsComparerINS0_8equal_toIS8_EEEENS0_9allocatorISB_EEE9SelectKeyESI_SK_EC2ERKSN_j
Jed:__ZN6il2cpp2vm10Reflection7IsFieldEP12Il2CppObject
oGe:_SetPropertyUtility_SetClass_TisRuntimeObject_m3524554928_gshared
D6b:__ZN17CollisionMeshData20VertexDataHasChangedEv
WBa:__ZN13GfxDeviceGLES30SetBackBufferColorDepthSurfaceEP17RenderSurfaceBaseS1_
Csg:_Latin1Encoding_GetBytes_m1067304501
Yoc:__Z52Register_UnityEngine_GUIUtility_get_systemCopyBufferv
k5b:__ZN16StreamedResource8TransferI18StreamedBinaryReadILb0EEEEvRT_
Yec:__Z49Register_UnityEngine_Input_get_imeCompositionModev
MSb:__ZN15dense_hashtableINSt3__24pairIKiN4core17string_with_labelILi1EEEEEi18SInt32HashFunctionN14dense_hash_mapIiS5_S7_NS0_8equal_toIiEE13stl_allocatorIS6_L18MemLabelIdentifier1ELi16EEE9SelectKeyESA_SD_E12resize_deltaEjj
dRf:_ReadOnlyCollection_1__ctor_m2387481411_gshared
E6a:__ZNK20OcclusionCullingData22GetStaticRendererCountEv
ACc:_UNITY_tt_face_free_ps_names
g0a:__ZNK6Camera17GetSkyboxMaterialEv
b$j:_emscripten_glDisableVertexAttribArray__wrapper
_6i:_InternalEnumerator_1_get_Current_m3259181373_AdjustorThunk
X8i:_InternalEnumerator_1_get_Current_m789289033_gshared
fAc:__ZNSt3__26vectorIN20TextRenderingPrivate8FontImpl13CharacterInfoE13stl_allocatorIS3_L18MemLabelIdentifier34ELi16EEE6insertENS_11__wrap_iterIPKS3_EERS9_
dTe:_Array_InternalArray__get_Item_TisUILineInfo_t3621277874_m1432166059_gshared
Owb:__ZN12MeshRenderer18CalculateLocalAABBER4AABBRKS_RK4Mesh
pPg:__Z242RuntimeInvoker_Boolean_t3825574718_RuntimeObject_RuntimeObject_RuntimeObject_SByte_t454417549_DateTimeU26_t3448131235_DateTimeOffsetU26_t3212986406_RuntimeObject_Int32_t2071877448_SByte_t454417549_BooleanU26_t3168250738_BooleanU26_t3168250738PFvvEPK10MethodInfoPvPS4_
vYe:_Guid_ToString_m3927110175
bgb:__ZN21UnityDefaultAllocatorI17LowLevelAllocatorE8AllocateEji
J6d:_Image_get_preferredHeight_m1045199335
tOc:__ZL28InitializeUIScriptingClassesv
jbc:__Z43AssetBundleRequest_Get_Custom_PropAllAssetsP12Il2CppObject
Lra:__ZN10UnityScene10ClearRootsEv
ZRa:__ZN12HandlerChain10AtomicMoveER13FileEntryDataS1_
pGe:_SetPropertyUtility_SetStruct_TisBoolean_t3825574718_m752301298_gshared
Daa:__ZZN15DirectorManager15InitializeClassEvEN48PreLateUpdateDirectorDeferredEvaluateRegistrator7ForwardEv
u0:__ZN20SpeedTreeWindManager6UpdateEf
NTi:_Color_op_Multiply_m325555950
wkj:_Literal_GetWidth_m1285678191
Xqe:_Decimal_ThrowAtPos_m3318712794
Uhf:_RSAManaged_GetPaddedValue_m4394397
sC:__ZN7mecanim9animation20CreateAvatarConstantEPNS_8skeleton8SkeletonEPNS1_13SkeletonPoseTIN4math4trsXEEES8_PNS_5human5HumanES3_iRKS6_RNS_6memory9AllocatorE
O6e:_UnexceptionalStreamWriter__ctor_m2209699189
wQi:_AudioMixerPlayable_INTERNAL_CALL_SetAutoNormalizeInternal_m2425179629
ywf:_List_1_Find_m970100220_gshared
xtj:_Transform_INTERNAL_get_rotation_m2427701365
KFe:_Array_InternalArray__ICollection_Remove_TisVector2_t2243707579_m3881494282_gshared
hwb:__ZN14CompressedMesh8TransferI19StreamedBinaryWriteILb0EEEEvRT_
b8g:_AssemblyFileVersionAttribute__ctor_m2026149866
hbc:__Z58AssetBundleCreateRequest_CUSTOM_DisableCompatibilityChecksP12Il2CppObject
nMe:_Array_InternalArray__ICollection_CopyTo_TisUILineInfo_t3621277874_m2142954044_gshared
jeh:_TypeBuilder_SetParent_m387557893
a_f:_CipherSuiteCollection_cultureAwareCompare_m1825407448
pUe:_DateTimeFormatInfo_GetEraName_m1437894363
TMe:_Array_InternalArray__Insert_TisLabelFixup_t4090909514_m3927736182_gshared
Ydg:_X509KeyUsageExtension_Encode_m3100824560
nlb:__ZN24GenerateTypeTreeTransfer8TransferI21PlatformShaderDefinesEEvRT_PKc17TransferMetaFlags
Uzb:__ZNK15ResourceManager22GetTypeVirtualInternalEv
bLh:_DefaultComparer_GetHashCode_m1728348656_gshared
M8d:_InputField_MouseDragOutsideRect_m3758282095
pzi:_Outline_ModifyMesh_m3796381413
Xwc:__ZN13TextRendering4Font23VirtualRedirectTransferER24GenerateTypeTreeTransfer
cfg:_Interpreter_PopulateGroup_m4098755954
TXf:_PrivateKeyInfo_DecodeRSA_m919734506
efc:__ZNSt3__27__sort4IRNS_6__lessI11KeyframeTplIfES3_EEPS3_EEjT0_S7_S7_S7_T_
Ueb:__ZL16MouseMoveHandleriPK20EmscriptenMouseEventPv
QXe:_GuidParser_Reset_m3389485794
wCf:_Enumerator_System_Collections_IEnumerator_get_Current_m1270503615_gshared
Amh:_GUILayoutGroup_CalcHeight_m1454440153
q6i:_InternalEnumerator_1_System_Collections_IEnumerator_get_Current_m3315293493_gshared
fLi:_AnimatorControllerPlayable_ResetTriggerID_m1114520954
cZa:__ZN11HaloManager17RenderGeometryJobEP25DynamicVBOGeometryJobDataj
y$e:_Int64_Parse_m4214159959
e9i:_InternalEnumerator_1_System_Collections_IEnumerator_get_Current_m4023948615_gshared
tE:__ZNSt3__227__insertion_sort_incompleteIRPFbN7mecanim9animation13MuscleIndexIdES3_EPS3_EEbT0_S8_T_
XTd:_BaseInput_get_mousePresent_m3571192771
n$j:_emscripten_glBlendEquation__wrapper
aid:__ZN15dense_hashtableINSt3__24pairIK10KeyWrapperIP11Il2CppClassES4_EES5_N6il2cpp8metadata16SZArrayClassHashEN14dense_hash_mapIS5_S4_SA_NS5_14EqualsComparerINS9_19SZArrayClassCompareEEENS0_9allocatorIS7_EEE9SelectKeyESE_SG_E13set_empty_keyERKS7_
tPj:__ZNSt3__212basic_stringIcNS_11char_traitsIcEENS_9allocatorIcEEE6__initEPKcj
Rj:_emscripten_set_fullscreenchange_callback
dhf:_KeyPairPersistence__IsUserProtected_m3417764903
zeg:_CategoryUtils_CategoryFromName_m226887453
Wxe:_Decimal_op_Division_m1099836590
BY:__ZN11UnityEngine15CloudWebService14DataDispatcher22ResetNetworkRetryIndexEv
Wj:_emscripten_glDrawArrays
PTa:__ZZ23InitPlayerLoopCallbacksvEN43EarlyUpdateExecuteMainThreadJobsRegistrator7ForwardEv
cY:__ZN11UnityEngine15CloudWebService19SessionEventManagerC2Ev
U1e:_File_Open_m1543461971
Sgg:_LogicalCallContext_GetObjectData_m104142736
Qme:_Hashtable_KeyEquals_m1433874944
Jhj:_QuickSearch_GetShiftDistance_m2364008966
_sj:_TouchScreenKeyboard_get_text_m538529702
_Wc:__ZN13RuntimeStaticI14dynamic_bitsetLb0EE16StaticInitializeEPv
Pca:__ZNSt3__222__merge_move_constructIRNS_4lessIN4core12basic_stringIcNS2_20StringStorageDefaultIcEEEEEENS_11__wrap_iterIPS6_EESB_EEvT0_SC_T1_SD_PNS_15iterator_traitsISC_E10value_typeET_
lcc:__Z41Register_UnityEngine_Camera_get_eventMaskv
lT:__ZL19CleanupModule_Audiov
wDj:_GenericComparer_1_Compare_m2516380588_gshared
F8c:__ZN6il2cpp2os4File10DeleteFileERKNSt3__212basic_stringIcNS2_11char_traitsIcEENS2_9allocatorIcEEEEPi
a1e:_File_Exists_m1685968367
GHb:__Z29Transfer_Blittable_ArrayFieldI14SafeBinaryReadiEvRT_R9ArrayInfoRK23StaticTransferFieldInfo
Y4c:__ZN6il2cpp6icalls8mscorlib6System8MonoType8GetFieldEP20Il2CppReflectionTypeP12Il2CppStringi
h1c:__ZN15dense_hashtableINSt3__24pairIK10KeyWrapperIN6il2cpp5utils13dynamic_arrayIPK10Il2CppTypeLj4EEEEPFvvEEESA_NS3_8metadata19Il2CppSignatureHashEN14dense_hash_mapISA_SD_SG_NSA_14EqualsComparerINSF_22Il2CppSignatureCompareEEENS0_9allocatorISE_EEE9SelectKeyESK_SM_E5clearEv
nPi:_AudioClipPlayable__ctor_m1273139759_AdjustorThunk
HXj:_emscripten_glVertexAttrib3fv__wrapper
DTf:_Comparison_1_BeginInvoke_m1549337842_gshared
npj:_X509Crl_VerifySignature_m25189948
nGe:_PlayableOutputHandle_IsPlayableOutputOfType_TisScriptPlayableOutput_t1666207618_m804587587_AdjustorThunk
a$b:__ZNK28MonoBehaviourPropertyBinding13GetFloatValueERKN11UnityEngine9Animation10BoundCurveE
gog:_RuntimeFieldHandle_Equals_m1202966418_AdjustorThunk
lAb:__ZN14SafeBinaryRead21TransferSTLStyleArrayINSt3__26vectorI4PPtrI6ObjectE13stl_allocatorIS5_L18MemLabelIdentifier51ELi16EEEEEEvRT_17TransferMetaFlags
eKi:_AnimatorControllerPlayable_INTERNAL_CALL_GetFloatID_m1278007428
UAd:_GC_generic_malloc
Pyh:_Rect_op_Equality_m2793663577
i$b:__ZNSt3__26vectorI16MessageForwarder13stl_allocatorIS1_L18MemLabelIdentifier6ELi8EEE6resizeEj
yEh:_Enumerator_System_Collections_IEnumerator_get_Current_m2160496972_AdjustorThunk
mMa:__Z19GetVertexFormatSize12VertexFormat
XEf:_Collection_1_System_Collections_ICollection_CopyTo_m3896480607_gshared
qtb:__ZN24GenerateTypeTreeTransfer8TransferINSt3__26vectorI13dynamic_arrayI8Vector2fLj4EENS1_9allocatorIS5_EEEEEEvRT_PKc17TransferMetaFlags
RAh:_Enumerator_System_Collections_IDictionaryEnumerator_get_Value_m120250090_gshared
Xca:__ZN15dense_hashtableINSt3__24pairIKN4core12basic_stringIcNS2_20StringStorageDefaultIcEEEE13dynamic_arrayI4PPtrI6SpriteELj4EEEES6_20StringHash32FunctionIS6_EN14dense_hash_mapIS6_SC_SF_NS0_8equal_toIS6_EE13stl_allocatorISD_L18MemLabelIdentifier79ELi16EEE9SelectKeyESI_SL_E9set_valueEPSD_RKSD_
wgj:_MatchCollection_TryToGet_m2938913145
F$j:_emscripten_glIsTexture__wrapper
Ixh:_Ray_ToString_m2019179238_AdjustorThunk
QQj:_llvm_bswap_i32
GGd:_KeyedHashAlgorithm_get_Key_m3672929432
ABa:__ZN9GfxDevice25ReleaseAsyncCommandHeaderEPN21GfxDeviceAsyncCommand3ArgE
vNi:_AnimatorControllerPlayable_INTERNAL_CALL_PlayInternal_m1154456170
VWf:_MD2Managed_HashCore_m248147901
TBb:__ZN13MonoBehaviour23VirtualRedirectTransferER17RemapPPtrTransfer
aMa:__ZN21UniformBufferTFMethod20IsBoneCountSupportedEi
yNi:_AnimatorControllerPlayable_Play_m3939684325_AdjustorThunk
XHi:_AnimationClipPlayable_INTERNAL_CALL_GetAnimationClipInternal_m4096750434
gWg:__Z101RuntimeInvoker_Void_t1841601450_RuntimeObject_Single_t2076509932_Int32_t2071877448_Single_t2076509932PFvvEPK10MethodInfoPvPS4_
J3e:_MemoryStream__ctor_m4073175573
Kla:__ZN6Shader27MarkShaderStateNotSupportedEPKS_
pQe:_Array_Sort_TisVector4_t2243707581_TisVector4_t2243707581_m917148421_gshared
hAg:_UInt16_System_IConvertible_ToBoolean_m887616848_AdjustorThunk
Kri:__ZL81AnimationTriggers_t3244928895_CustomAttributesCacheGenerator_m_HighlightedTriggerP21CustomAttributesCache
P9a:__ZN10GameObject21EnsureUniqueTransformEbb
CLa:__ZN25TransformFeedbackSkinning8SkinMeshERK18VertexStreamSourceP9GfxBufferP17GPUSkinPoseBufferS4_ii17ShaderChannelMaskb
ind:__ZN15dense_hashtableINSt3__24pairIK10KeyWrapperIP14Il2CppIUnknownEjEES5_N6il2cpp5utils11PointerHashIS3_EEN14dense_hash_mapIS5_jSB_NS5_14EqualsComparerINS0_8equal_toIS4_EEEENS0_9allocatorIS7_EEE9SelectKeyESG_SI_E12resize_deltaEjj
Dtg:_UnicodeEncoding_GetCharCount_m3719064538
ffe:_Boolean_CompareTo_m3691698947
cLh:_DefaultComparer_Equals_m3262686272_gshared
Dfd:__ZN15dense_hashtableINSt3__24pairIK10KeyWrapperIPK22Il2CppGenericParameterEPK24MonoGenericParameterInfoEES6_N6il2cpp5utils11PointerHashIS4_EEN14dense_hash_mapIS6_SA_SF_NS6_14EqualsComparerINS0_8equal_toIS5_EEEENS0_9allocatorISB_EEE9SelectKeyESK_SM_E14squash_deletedEv
m5e:_StreamReader_ReadToEnd_m3871366821
zDi:_Selectable_set_interactable_m63718297
LRe:_GameObject_GetComponentsInParent_TisRuntimeObject_m3757051886_gshared
mMe:_Array_InternalArray__ICollection_CopyTo_TisUICharInfo_t3056636800_m2132994790_gshared
Ip:__Z17CalculateGlobalSM23TransformAccessReadOnlyRKN4math7_float4E
qkd:__ZNSt3__214__split_bufferIN6il2cpp2vm22EmbeddedResourceRecordERNS_9allocatorIS3_EEEC2EjjS6_
Ul:_emscripten_glLoadIdentity
Lbb:__ZNSt3__26vectorINS_4pairIN4core12basic_stringIcNS2_20StringStorageDefaultIcEEEEPK17MessageIdentifierEENS_9allocatorISA_EEE26__swap_out_circular_bufferERNS_14__split_bufferISA_RSC_EEPSA_
ppe:_Decimal_op_GreaterThan_m1625379433
W4a:__Z29CullShadowCastersWithoutUmbraR9IndexListRK17CullingParametersPK4AABBjj
Cvj:_Vector3_get_down_m2372302126
r6c:__ZN6il2cpp5utils9PathUtils7CombineIcEENSt3__212basic_stringIT_NS3_11char_traitsIS5_EENS3_9allocatorIS5_EEEERKSA_RKNS0_10StringViewIS5_EE
Sdi:__ZL86Object_t1021602117_CustomAttributesCacheGenerator_Object_FindObjectsOfType_m2121813744P21CustomAttributesCache
OPg:__Z79RuntimeInvoker_RuntimeObject_SByte_t454417549_SByte_t454417549_SByte_t454417549PFvvEPK10MethodInfoPvPS4_
juh:_PlayerConnection_ConnectedCallbackInternal_m2685675347
OYe:_Int16_System_IConvertible_ToDecimal_m2010889121_AdjustorThunk
BFe:_Array_InternalArray__ICollection_Remove_TisPlayableBinding_t2498078091_m2632165671_gshared
Eqb:__ZN18StreamedBinaryReadILb0EE21TransferSTLStyleArrayI13dynamic_arrayI12LightmapDataLj4EEEEvRT_17TransferMetaFlags
igc:__Z49Register_UnityEngine_MonoBehaviour_StartCoroutinev
Rdb:__Z11MD5ToStringPh
Vnf:_Enumerator_MoveNext_m2625246500_AdjustorThunk
Jec:__Z38Input_Get_Custom_PropCompositionStringv
Wug:_UTF8Encoding_GetPreamble_m4179999478
Ywh:_PlayableOutputHandle_Equals_m3556328514_AdjustorThunk
cuh:_ConnectionChangeEvent__ctor_m616483304
LZc:__ZN6il2cpp2vm5Class19GetArrayElementSizeEPK11Il2CppClass
pGc:_cf2_builder_moveTo
IDg:_ValueType_InternalEquals_m4068150072
kW:__ZN9JSONWrite8TransferIN4core12basic_stringIcNS1_20StringStorageDefaultIcEEEEEEvRT_PKc17TransferMetaFlags
jug:_UTF7Encoding_GetByteCount_m253528135
BXd:_PointerInputModule_CopyFromTo_m2185451090
o2e:_FileNotFoundException_GetObjectData_m3405690481
CPj:__ZNSt3__212basic_stringIcNS_11char_traitsIcEENS_9allocatorIcEEE6resizeEjc
ezb:__ZN14PlayerSettings16CheckConsistencyEv
PS:__ZN11AudioModule30GetOrCreateDSPFromCustomFilterEP17AudioCustomFilter
QVa:__ZN19AtomicPageAllocatorD2Ev
Bn:FUNCTION_TABLE_viiiiiiiiiiiiii
Knd:__ZN6il2cpp6icalls8mscorlib6System13GlobalizationL20culture_lcid_locatorEPKvS5_
IGf:_Collection_1_Add_m3182287887_gshared
OWd:_PointerEventData_set_useDragThreshold_m2778439880
iob:__ZNK12CubemapArray16ExtractImageImplEP14ImageReferenceNS0_8BlitModeEbi
hgc:__Z63Register_UnityEngine_MonoBehaviour_StartCoroutine_Auto_Internalv
v8b:__ZN10systeminfo24GetSystemLanguageCultureEi
htg:_StringBuilder_Append_m3618697540
PCi:_ScrollRect_get_normalizedPosition_m1640825682
UMd:_SecurityElement_IsValidAttributeName_m2201790420
qzb:__ZN10VRSettings8TransferI14SafeBinaryReadEEvRT_
pAg:_UInt16_System_IConvertible_ToDecimal_m984067306_AdjustorThunk
Hsj:_Texture2D_INTERNAL_CALL_GetPixelBilinear_m570286059
sBc:_UNITY_FT_Outline_Get_CBox
YKe:_Array_InternalArray__ICollection_Add_TisUInt16_t986882611_m2791161149_gshared
ja:invoke_viifiiii
hBh:_Enumerator_Reset_m3115320746_gshared
IUe:_NumberFormatter_FormatDecimal_m1435371940
Rbf:_SimpleCollator_GetTailContraction_m1037943844
dId:_RC2CryptoServiceProvider_CreateEncryptor_m252199767
lAj:_U3CStartU3Ec__Iterator0_MoveNext_m2339115502_gshared
eXg:__Z165RuntimeInvoker_Void_t1841601450_RuntimeObject_Int32_t2071877448_Int32_t2071877448_RuntimeObject_Int32_t2071877448_Single_t2076509932_Single_t2076509932_RuntimeObjectPFvvEPK10MethodInfoPvPS4_
rWa:__ZN22PerThreadPageAllocator14AcquireNewPageEj
lS:__ZN24AudioScriptBufferManager15DidReloadDomainEv
eQi:_AudioClipPlayable_Seek_m2908742681
U0a:__ZN6Camera13ClearNoSkyboxEb
a$e:_Int64_System_IConvertible_ToInt64_m989981560_AdjustorThunk
Hvf:_List_1_CheckIndex_m2576265846_gshared
dZg:__Z110RuntimeInvoker_Boolean_t3825574718_Vector2_t2243707579_Vector2_t2243707579_Single_t2076509932_SByte_t454417549PFvvEPK10MethodInfoPvPS4_
Qyh:_Rect_GetHashCode_m559954498
uOi:_Application_CallLowMemory_m626389230
y0c:__ZNK15dense_hashtableI10KeyWrapperIPK17Il2CppGenericInstES4_N6il2cpp8metadata21Il2CppGenericInstHashEN14dense_hash_setIS4_S7_NS4_14EqualsComparerINS6_24Il2CppGenericInstCompareEEENSt3__29allocatorIS4_EEE8IdentityESB_SE_E12test_deletedEj
Xce:_Array_combsort_m2486643569
i9:__ZNSt3__27__sort5IR17CompareInstanceIDPP6ObjectEEjT0_S6_S6_S6_S6_T_
Kib:__ZNSt3__26vectorI17SortingLayerEntryNS_9allocatorIS1_EEE12__move_rangeEPS1_S5_S5_
rLh:_DefaultComparer_Equals_m145577182_gshared
GEa:__ZN18GfxFramebufferGLES10InvalidateEv
Akf:_SmallXmlParser_SkipWhitespaces_m2923234398
exe:_Decimal_System_IConvertible_ToSingle_m1736019752_AdjustorThunk
GHa:__ZN4crnd11crnd_deleteINS_13prefix_coding14decoder_tablesEEEvPT_
Xsj:_TouchScreenKeyboard_Open_m2760130151
a0:__ZN10MemoryPoolD2Ev
iZi:_GCHandle__ctor_m2952050298_AdjustorThunk
klc:__ZNSt3__26__treeINS_12__value_typeIN4core12basic_stringIcNS2_20StringStorageDefaultIcEEEEN5IMGUI12NamedControlEEENS_19__map_value_compareIS6_S9_NS_4lessIS6_EELb1EEENS_9allocatorIS9_EEE7destroyEPNS_11__tree_nodeIS9_PvEE
J3f:_SslClientStream_get_SelectedClientCertificate_m1580018944
iqe:_DateTime_FromTicks_m75527956
Lff:_KeyGeneratedEventHandler_Invoke_m4220935979
nah:_ILGenerator__ctor_m3365621387
dvg:_CompressedStack_Capture_m179370023
Iye:_DebuggerTypeProxyAttribute__ctor_m3082078467
LFe:_Array_InternalArray__ICollection_Remove_TisVector3_t2243707580_m3881497481_gshared
lOj:___mmap
X9b:__ZN9Scripting26RaiseArgumentNullExceptionEPKc
g$:__ZL18InternalLogConsolePKcz
fNj:_lseek
pvf:_List_1_System_Collections_IList_set_Item_m2267202349_gshared
LDe:_Array_InternalArray__ICollection_Contains_TisChar_t3454481338_m1444673620_gshared
_Gf:_Collection_1_ConvertItem_m2972284337_gshared
o4:__Z37scripting_method_get_nth_argumenttype18ScriptingMethodPtri
eP:__ZN11AudioSource16UpdatePauseStateEv
R8:__ZL52StaticUnregisterSceneLoadedCallback_LightmapSettingsPv
Bw:__ZN7mecanim5human25HumanPoseAddAdditiveLayerERNS0_9HumanPoseERKS1_fRKNS_6bitsetILj70EEE
jgc:__Z48Register_UnityEngine_MonoBehaviour_StopCoroutinev
iGb:__ZNSt3__26vectorI8GUIStyle13stl_allocatorIS1_L18MemLabelIdentifier1ELi16EEE8__appendEj
QEd:__ZN6il2cpp5utils25NativeDelegateMethodCache17AddNativeDelegateEPFvvEPK10MethodInfo
R6f:_NameObjectCollectionBase_BaseAdd_m964300824
QDe:_Array_InternalArray__ICollection_Contains_TisKeyValuePair_2_t1174980068_m650645929_gshared
d0a:__ZN27DeviceViewProjMatricesStateD2Ev
iJd:_RNGCryptoServiceProvider_RngOpen_m2238023214
lRi:_Bounds__ctor_m1202659404_AdjustorThunk
$8g:_CustomAttributeData_GetCustomAttributes_m4124612360
xJb:__Z18Transfer_BlittableI24GenerateTypeTreeTransferLb0E8Vector3fEvRK29SerializationCommandArgumentsR31RuntimeSerializationCommandInfo
Twc:__ZNK13TextRendering4Font22GetTypeVirtualInternalEv
ajd:__ZN6il2cpp2vm6Thread16RequestInterruptEP12Il2CppThread
y5f:_TlsStream_get_Position_m3551173234
J$i:_LeaseManager_SetPollTime_m3137304074
Zle:_Hashtable_CalcPrime_m1835281409
f:HEAPU32
qva:__ZN6prcoreL10inner_flipILj2EEEvPhS1_j
leh:_TypeBuilder_has_ctor_method_m3449702467
Hrc:__ZN9JSONWrite8TransferIbEEvRT_PKc17TransferMetaFlags
rce:_Array_CreateInstance_m679102425
yfb:__ZN12TLSAllocatorI14StackAllocatorED0Ev
lZi:_GCHandle_GetTarget_m2056570211
pyb:__ZN11TimeManager16CheckConsistencyEv
yZa:__ZN21GfxDeviceAsyncCommand10ArgScratch15ThreadedCleanupEv
Bbf:_MSCompatUnicodeTable_IsJapaneseSmallLetter_m2541532635
BUf:_BigInteger_GenerateRandom_m1878468830
YIb:__ZN12NativeBufferI27Converter_UnityEngineObjectE15SetupForWritingER9ArrayInfo
f4d:_Graphic_UpdateGeometry_m2431537946
we:_glTexImage3D
iT:__Z20RegisterModule_Audiov
j_f:_TlsCipherSuite__ctor_m2983563913
Kma:__ZNSt3__26vectorINS_4pairI11ShaderTagIDS2_EENS_9allocatorIS3_EEE6insertENS_11__wrap_iterIPKS3_EERS8_
WVi:_Event__ctor_m4174297401
Fe:_JS_SystemInfo_GetCurrentCanvasWidth
FOf:_ReadOnlyCollection_1_System_Collections_IList_Remove_m2668898250_gshared
x9b:__ZL34GetComponentsImplementationRecurseILb1ELi0ELi1EEbR10GameObjectbRK17CompareParametersRK39GetComponentsImplementation_ReturnValue
xth:_Mesh_SetColors_m3438776703
old:__ZN6il2cpp2vm14PlatformInvoke30MarshalCSharpStringToCppStringEP12Il2CppString
nzg:_Type_GetTypeHandle_m2405042843
Jzb:__ZN10VRSettings8TransferI18StreamedBinaryReadILb0EEEEvRT_
Fv:__ZN22AnimationMixerPlayable12MixerProcessEP35AnimationPlayableEvaluationConstantP32AnimationPlayableEvaluationInputP33AnimationPlayableEvaluationOutputM17AnimationPlayableFvS1_S3_S5_EPFvS1_S3_S5_ESA_PFvS5_S1_S3_S5_PN7mecanim16ValueArrayWeightEfEPFvS1_S3_S5_SD_fE
S7i:_InternalEnumerator_1_System_Collections_IEnumerator_get_Current_m1322273508_AdjustorThunk
fTd:_DecoderFallbackException__ctor_m3081822699
B$e:_Int64_TryParse_m3093198325
VQg:__Z145RuntimeInvoker_Void_t1841601450_RuntimeObject_RuntimeObject_RuntimeObject_Int32_t2071877448_Int32_t2071877448_Int32_t2071877448_Int32_t2071877448PFvvEPK10MethodInfoPvPS4_
D4c:__ZN6il2cpp2vm10ThreadPool5QueueEP14Il2CppDelegatePPvS3_P12Il2CppObject
JMb:__Z19TransferField_ArrayI19StreamedBinaryWriteILb0EE27Converter_SimpleNativeClassI8GradientEEvRK23StaticTransferFieldInfoR31RuntimeSerializationCommandInfoRT0_
j2e:_FileLoadException_ToString_m319701103
A4e:_NullStream_Seek_m1809916110
rtc:__Z18Transfer_BlittableI8JSONReadLb0E12PropertyNameEvRK29SerializationCommandArgumentsR31RuntimeSerializationCommandInfo
$xe:_Delegate_SetMulticastInvoke_m361277268
ZTd:_BaseInput_GetMouseButtonUp_m32571233
srg:_EncoderReplacementFallbackBuffer_get_Remaining_m2777488845
Etb:__ZN7SubMesh8TransferI18StreamedBinaryReadILb0EEEEvRT_
Oug:_UTF8Encoding_GetCharCount_m3557355060
y2f:_RecordProtocol_SendRecord_m2977889250
kf:_emscripten_glIsEnabled
zOb:__ZN18StreamedBinaryReadILb1EE21TransferSTLStyleArrayI13dynamic_arrayIdLj8EEEEvRT_17TransferMetaFlags
Vdc:__Z45Register_UnityEngine_GameObject_get_transformv
x3:__Z29scripting_class_instance_size17ScriptingClassPtr
j4f:_SslHandshakeHash_initializePad_m4132246594
k0i:_Context_get_HasExitSinks_m1233814330
EY:__ZN11UnityEngine15CloudWebService19SessionEventManager26ProcessEventQueueJobStaticEPv
ljj:_AnchorInfo_get_IsUnknownWidth_m3747592836
t$g:__Z99RuntimeInvoker_Void_t1841601450_Int32_t2071877448_Int32_t2071877448_Int32_t2071877448_RuntimeObjectPFvvEPK10MethodInfoPvPS4_
YY:__ZN11UnityEngine15CloudWebService19SessionEventManager37OnTimerExpiredPerformArchiveJobStaticEPv
By:__ZN23AnimationPlayableOutputC2EjP13PlayableGraph
Gsj:_Texture2D_GetPixelBilinear_m3063031185
SFd:__ZN6il2cpp6icalls8mscorlib6System10Reflection4Emit11DerivedType21create_unmanaged_typeEP20Il2CppReflectionType
aF:__ZN7mecanim12statemachine13GetStateIndexEPKNS0_20StateMachineConstantEj
Nlg:_FormatterConverter_ToInt32_m1004171952
wbe:_Array_System_Collections_IList_set_Item_m4290470392
wkg:_RemotingConfiguration_RegisterActivatedServiceType_m4003543022
Yhc:__Z39Register_UnityEngine_Sprite_get_texturev
C$i:_ConfigHandler_GetNotNull_m2454680251
jXc:__ZL10rescale128PyS_Piiiii
AJ:__ZN9AudioClip7WWWSeekEPvjS0_
rEe:_Array_InternalArray__ICollection_Contains_TisUInt32_t2149682021_m672455245_gshared
YCg:_UIntPtr_System_Runtime_Serialization_ISerializable_GetObjectData_m3481735378
f7:__ZL32StaticInitializeIUnityInterfacesPv
ZYa:__Z13CameraProjectRK8Vector3fRK10Matrix4x4fS4_RK5RectTIiERS_b
EBb:__ZN30RuntimeInitializeOnLoadManager15ClassMethodInfo8TransferI19StreamedBinaryWriteILb0EEEEvRT_
e8:__Z22CreateMutexLockedStackv
xue:_DateTime_System_IConvertible_ToType_m3821835592
rgg:_IntervalCollection_get_Item_m1667788970
hza:__ZNSt3__27__sort5IRNS_4lessIN22BuiltinResourceManager8ResourceEEEPS3_EEjT0_S7_S7_S7_S7_T_
ysg:_Latin1Encoding_GetByteCount_m2812921286
MUa:__ZN9ShaderLab11ShaderStateD2Ev
Owe:_Decimal_System_IConvertible_ToByte_m3432160840
bDb:__Z23TransferScriptingObjectI24GenerateTypeTreeTransferEvRT_18ScriptingObjectPtr17ScriptingClassPtrPK15MonoScriptCache
Qlg:_BinaryCommon__cctor_m3619690968
Woj:_X509Chain_FindCertificateRoot_m589250107
pMb:__ZL17Transfer_GUIStyleI19StreamedBinaryWriteILb0EELb0EEvRK29SerializationCommandArgumentsR31RuntimeSerializationCommandInfo
ruj:_UnityString_Format_m2949645127
Gle:_Comparer_GetObjectData_m3370677985
Pzj:_UnityEvent_4_GetDelegate_m2704961864_gshared
WRa:__ZNK12HandlerChain6TargetERK13FileEntryDataR15FileSystemEntry
yrg:_Encoding__ctor_m3985582722
Kmg:_ObjectManager_RaiseOnDeserializingEvent_m1841526046
_Rd:_String_CreateString_m560359261
eCc:_UNITY_FT_Init_Class_tt_service_get_cmap_info
Hqg:_DSA_ToXmlString_m1014346120
rMj:___shlim
vKd:_SHA256Managed__ctor_m1410575277
CCe:_CompareInfo_internal_index_managed_m859405335
Bee:_Boolean_System_IConvertible_ToDateTime_m2613818037_AdjustorThunk
G3c:__ZNSt3__211__tree_nextIPNS_16__tree_node_baseIPvEEEET_S5_
jQf:_ReadOnlyCollection_1_System_Collections_IList_Clear_m2240307498_gshared
exd:__ZNK6il2cpp5utils13VmStringUtils23CaseInsensitiveComparerclERKNSt3__212basic_stringIcNS3_11char_traitsIcEENS3_9allocatorIcEEEEPKc
bra:__ZN6prcoreL17RemapGenericFloatI17TexFormatRGBAHalf17TexFormatRGBFloatEEvPKNS_9InnerInfoE
amg:_BinaryFormatter_NoCheckDeserialize_m1968202401
x4d:_Graphic_CrossFadeAlpha_m4067047552
BZg:__Z92RuntimeInvoker_Void_t1841601450_RuntimeObject_RuntimeObject_Color32_t874517518_RuntimeObjectPFvvEPK10MethodInfoPvPS4_
Mhc:__Z35Sprite_Get_Custom_PropPixelsPerUnitP12Il2CppObject
Fvc:__ZN9rapidjson12PrettyWriterI16TempBufferWriterNS_4UTF8IcEES3_13JSONAllocatorE10StartArrayEv
A0c:__ZNSt3__26__sortIRN6il2cpp5utils11collections13ArrayValueMapIPK10Il2CppType17Il2CppInteropData26InteropDataToTypeConverterNS1_8metadata14Il2CppTypeLessENSA_26Il2CppTypeEqualityComparerEE12SortComparerEPS8_EEvT0_SH_T_
MDb:__ZN11PreloadDataD2Ev
pWc:__ZN15DownloadHandler14ProcessHeadersERK9HeaderMap
ec:invoke_iifi
Faa:__ZZN15DirectorManager15InitializeClassEvEN44PostLateUpdateDirectorRenderImageRegistrator7ForwardEv
$Th:__ZL79Hashtable_t909839986_CustomAttributesCacheGenerator_Hashtable__ctor_m3742489710P21CustomAttributesCache
Qsh:_Mesh__ctor_m2975981674
VGi:_VertexHelper_AddUIVertexStream_m3599763288
nsh:_Mathf_Abs_m1942863256
RMh:_EqualityComparer_1_System_Collections_IEqualityComparer_Equals_m1565968086_gshared
JNe:_Array_InternalArray__set_Item_TisSlot_t2022531261_m3811041838_gshared
Ewa:__ZN15SharedLightData15UpdateTransformERK9Transform
zId:_RijndaelTransform__cctor_m1393306207
U3d:_Graphic_get_defaultMaterial_m1022773737
JFc:_UNITY_FT_Init_Class_pscmaps_interface
IEi:_Slider_OnDidApplyAnimationProperties_m3202463395
pTd:_EncoderExceptionFallback__ctor_m3203614411
q5d:_GridLayoutGroup_SetLayoutVertical_m3233681648
zdc:__Z44Register_UnityEngine_RectOffset_get_verticalv
Qzg:_Type_MakeGenericType_m973683242
tEd:__ZN6il2cpp2vm9LastError31InitializeLastErrorThreadStaticEv
z0b:__ZN13ProduceHelperI13RenderTextureLb0EE7ProduceE18MemLabelIdentifier18ObjectCreationMode
K$e:_Int64_ToString_m2785525583
QM:__ZN4FMOD6System17setSoftwareFormatEi17FMOD_SOUND_FORMATii18FMOD_DSP_RESAMPLER
qch:_FieldBuilder_GetCustomAttributes_m291168515
DQi:_AudioPlayableOutput_INTERNAL_CALL_InternalSetTarget_m3274611424
Chh:_MonoGenericCMethod__ctor_m2520666358
kh:_JS_SystemInfo_GetCurrentCanvasHeight
ivh:_AudioPlayableGraphExtensions_InternalCreateAudioOutput_m433444197
a5i:_InternalEnumerator_1_System_Collections_IEnumerator_get_Current_m1313308902_gshared
Nig:_ReturnMessage_get_OutArgs_m299904174
zma:__ZNK8Material22GetTypeVirtualInternalEv
bnc:__Z34GUIStyle_Get_Custom_PropFixedWidthP12Il2CppObject
Shf:_RSAManaged_get_PublicOnly_m2603845138
cxe:_Decimal_System_IConvertible_ToSByte_m3745141000_AdjustorThunk
vud:__ZN6il2cpp2gc16GarbageCollector11GetWeakLinkEPPv
Z8e:_MonoType_GetMethods_m353342170
QEg:__Z108RuntimeInvoker_Boolean_t3825574718_SByte_t454417549_RuntimeObject_Int32_t2071877448_ExceptionU26_t1467204777PFvvEPK10MethodInfoPvPS4_
Esd:__GLOBAL__sub_I_Console_cpp
Tqa:__ZN6prcoreL17RemapGenericFloatI14TexFormatRHalf17TexFormatRGBAHalfEEvPKNS_9InnerInfoE
A6c:__ZN6il2cpp2vm7Runtime11InvokeArrayEPK10MethodInfoPvP11Il2CppArrayPP15Il2CppException
PG:__Z71AnimatorControllerPlayable_CUSTOM_INTERNAL_CALL_PlayInFixedTimeInternalR9HPlayableiif
hWe:_GregorianCalendar_get_Eras_m4010603022
AAe:_Enum_System_IConvertible_ToUInt16_m1001858842
HIh:_Dictionary_2_make_pair_m394533803_gshared
PJc:_Dual_Project
AI:__ZN9AudioClip23VirtualRedirectTransferER14SafeBinaryRead
CKa:__ZN4gles20EnsureTextureCreatedEP7ApiGLESP17RenderSurfaceGLES
jbe:_LayoutRebuilder_U3CRebuildU3Em__2_m3239837417
PZa:__ZN15ReplacementPass13PrepareSubsetEjRK10RenderNodeifRK17ShaderReplaceData
dxe:_Decimal_System_IConvertible_ToSingle_m1736019752
vN:__Z32AudioMeasurement_GetTimeConstantff
Zud:__ZN6il2cpp8metadata11FieldLayout12LayoutFieldsEjjjRKNSt3__26vectorIPK10Il2CppTypeNS2_9allocatorIS6_EEEERNS1_15FieldLayoutDataE
Nmi:__ZL54ContextMenu_t2283362202_CustomAttributesCacheGeneratorP21CustomAttributesCache
x5a:__ZL27PrepareSceneNodesJobCombineP25ScheduleSceneNodesJobData
i3e:_Stream_EndWrite_m263497992
Xfd:__ZN14dense_hash_mapI10KeyWrapperIPK10Il2CppTypeEjN6il2cpp8metadata14Il2CppTypeHashENS4_14EqualsComparerINS6_26Il2CppTypeEqualityComparerEEENSt3__29allocatorINSB_4pairIKS4_jEEEEEC2EjRKS7_RKSA_
eAa:__ZN13GfxDeviceGLESD2Ev
G9:__ZN18AsyncUploadManager13StaticDestroyEPv
Bbh:_EnumBuilder_GetConstructorImpl_m331611313
$Rb:__ZN6Shader7SetNameEPKc
uca:__ZN14dense_hash_mapIN4core12basic_stringIcNS0_20StringStorageDefaultIcEEEE13dynamic_arrayI4PPtrI6SpriteELj4EE20StringHash32FunctionIS4_ENSt3__28equal_toIS4_EE13stl_allocatorINSC_4pairIKS4_S9_EEL18MemLabelIdentifier79ELi16EEE13set_empty_keyERSH_
Y0d:_DefaultControls_SetParentAndAlign_m3048898502
Sab:__ZN19CustomRenderTexture22HandleBoundaryWrappingERKNS_14UpdateZoneInfoEj
C3c:__ZN6il2cpp2vm13MetadataCache32GenerateCustomAttributeTypeCacheEi
kdg:_X509Chain__cctor_m826131835
uz:__ZNK11UnityEngine9Animation30GenericBindingValueArrayUniqueclERKNS0_14GenericBindingES4_
ude:_ArrayTypeMismatchException__ctor_m1923871345
cqg:_CspParameters__ctor_m3051314030
eLi:_AnimatorControllerPlayable_ResetTrigger_m758725835
UJc:_Direct_Move_Y
SJc:_Direct_Move_X
tcg:_X509ChainElement_Set_m2634474339
fWi:_Event_get_isKey_m1145918225
xee:_Boolean_System_IConvertible_ToByte_m1443044213_AdjustorThunk
Fi:_glClearDepthf
o0b:__ZN19SkinnedMeshRenderer7GetMeshEv
qYb:__ZN19RuntimeSceneManager14GetActiveSceneEv
Z5c:__ZN6il2cpp6icalls8mscorlib6SystemL8IsStaticEPK9EventInfo
idc:__Z29RectOffset_Set_Custom_PropTopP12Il2CppObjecti
Yic:__Z57Register_UnityEngine_Transform_INTERNAL_get_localPositionv
U3a:__ZNSt3__27__sort4IR15ReflProbeSorterPP15ReflectionProbeEEjT0_S6_S6_S6_T_
P5b:__ZN19StreamedBinaryWriteILb0EE4InitE24TransferInstructionFlags20BuildTargetSelection
wyi:_MaskableGraphic_Cull_m3130802047
jTi:_CanvasRenderer_Clear_m2419751129
U2f:_RecordProtocol_MapV2CipherCode_m4064211604
xSd:_ASCIIEncoding_GetByteCount_m2696039881
H2f:_ReceiveRecordAsyncResult_SetComplete_m2441107665
pTi:_CanvasRenderer_AddUIVertexStream_m1988414477
gmb:__ZN20SphericalHarmonicsL28TransferI19StreamedBinaryWriteILb0EEEEvRT_
i$d:_CanvasUpdateRegistry_InternalUnRegisterCanvasElementForLayoutRebuild_m3740187734
x$b:__ZNK28RectTransformPropertyBinding9BindValueER6ObjectRKN11UnityEngine9Animation14GenericBindingERNS3_10BoundCurveE
Xah:_DerivedType_get_AssemblyQualifiedName_m2010127631
twb:__ZN4Mesh14UploadMeshDataEb
g9i:_InternalEnumerator_1_System_Collections_IEnumerator_get_Current_m4023948615_AdjustorThunk
m4a:__ZN14qsort_internal5QSortIP16RenderObjectDatai25RenderPrePassObjectSorterEEvT_S4_T0_T1_
ulf:_ArgIterator_Equals_m2415994310
PRg:__Z85RuntimeInvoker_Char_t3454481338_RuntimeObject_Int32U26_t455636984_CharU26_t1894467670PFvvEPK10MethodInfoPvPS4_
D0b:__ZN14RenderSettings12CleanupClassEv
Uhc:__Z43DataUtility_CUSTOM_INTERNAL_CALL_GetPaddingP12Il2CppObjectR8Vector4f
cIa:__ZN18AsyncUploadManager15DoDeCruncherJobEP26FileAssetUploadInstruction
SCa:__ZN9GfxDevice15ImmediateNormalEfff
wrg:_EncoderReplacementFallbackBuffer_GetNextChar_m1811006007
Buj:_Vector2__ctor_m3067419446
C9a:__ZN15SerializeTraitsI13dynamic_arrayIN10GameObject13ComponentPairELj4EEE19ResizeSTLStyleArrayERS3_i18MemLabelIdentifier
GKb:__ZN13GUIStyleState8TransferI24GenerateTypeTreeTransferEEvRT_
q5:__ZN20dynamic_block_vectorI14FileIdentifierE22push_back_no_constructEv
Zua:__ZN9Texture3D23VirtualRedirectTransferER14SafeBinaryRead
SLj:_Predicate_1_Invoke_m3539717340_gshared
jtg:_StringBuilder_Append_m1462406979
ITb:__ZNSt3__26vectorIN9ShaderLab20SerializedSubProgram16TextureParameterENS_9allocatorIS3_EEE8__appendEj
Hpb:__ZN9Texture2D13UploadTextureEi
bsg:_Type_GetType_m773255995
yIc:_cff_get_cid_from_glyph_index
Bzi:_RawImage__ctor_m527845386
RM:__ZN4FMOD6System19setSoftwareChannelsEi
ZNe:_Array_InternalArray__set_Item_TisResourceCacheItem_t333236149_m2074358118_gshared
nCh:_Enumerator_MoveNext_m3349738440_gshared
PTb:__ZN9ShaderLab20SerializedSubProgram15VectorParameter8TransferI14SafeBinaryReadEEvRT_
YDe:_Array_InternalArray__ICollection_Contains_TisDouble_t4078015681_m2262383923_gshared
cfe:_Boolean_System_IConvertible_ToUInt64_m3594533761
f0g:__Z85RuntimeInvoker_Boolean_t3825574718_SpriteStateU26_t1330646292_SpriteState_t1353336012PFvvEPK10MethodInfoPvPS4_
afc:__Z60Register_UnityEngine_Input_INTERNAL_set_compositionCursorPosv
sfi:__ZL51Collider_t3497673348_CustomAttributesCacheGeneratorP21CustomAttributesCache
Smh:_GUISettings_Internal_GetCursorFlashSpeed_m3799968572
fdf:_BigInteger_get_Rng_m1268152318
tSj:dynCall_viiiii
ySj:dynCall_viiiif
ahh:_MonoEvent_IsDefined_m3151861274
QEc:_Cubic_To
TH:__Z85Register_UnityEngine_Animations_AnimatorControllerPlayable_INTERNAL_CALL_SetTriggerIDv
O_f:_TlsStream_WriteInt24_m1660453494
icc:__Z44Register_UnityEngine_Camera_get_farClipPlanev
oS:__ZNK12AudioManager15GetDSPBlockSizeEv
LAb:__ZNK17IAnimationBinding30CurveAttributeToSerializedPathERKN11UnityEngine9Animation10BoundCurveE
aYg:__Z87RuntimeInvoker_Color_t2020392075_Color_t2020392075_Color_t2020392075_Single_t2076509932PFvvEPK10MethodInfoPvPS4_
Jqd:__ZN6il2cpp2gc16GarbageCollector14GetOrCreateCCWEP12Il2CppObjectRK10Il2CppGuid
Nod:__ZN6il2cpp2vm5Image21FromTypeNameParseInfoEPK11Il2CppImageRKNS0_17TypeNameParseInfoEb
XFa:__ZN17BufferManagerGLES13AcquireBufferEjN14DataBufferGLES11BufferUsageEb
Noe:_Console_OpenStandardError_m3676373108
b7e:_UnmanagedMemoryStream_SetLength_m1805321486
S$f:_Context_get_ProtocolNegotiated_m624488778
mtf:_List_1_System_Collections_IList_IndexOf_m1671340024_gshared
ode:_SimpleEnumerator_MoveNext_m1696906961
DUc:__ZN16UnityAdsSettingsD0Ev
F0f:_Context_StartSwitchingSecurityParameters_m373522596
Mih:_MonoProperty_GetRequiredCustomModifiers_m576853384
RGa:__ZNK7ApiGLES10DebugLabelEN2gl10ObjectTypeEjPKc
qJe:_Array_InternalArray__IndexOf_TisInt16_t4041245914_m1619355230_gshared
zQj:__ZNK10__cxxabiv121__vmi_class_type_info16search_below_dstEPNS_19__dynamic_cast_infoEPKvib
R_e:_Int64_System_IConvertible_ToDateTime_m1002280174
Hpe:_Convert_ToByte_m9159597
Qoj:_X509Store_BuildCertificatesCollection_m4224672591
Vhc:__Z38DataUtility_CUSTOM_Internal_GetMinSizeP12Il2CppObjectP13Vector2fIcall
y4b:__ZN8PlayableC2E17ScriptingClassPtr18DirectorPlayerType
zeh:_OpCode_Equals_m3738130494
cYi:_ResourceEnumerator_get_Key_m1012797265
NUe:_NumberFormatter_FormatPercent_m776769918
s7c:_il2cpp_class_has_attribute
Pmh:_GUISettings__ctor_m2453724887
Ywg:_Scheduler_ShrinkIfNeeded_m2186823111
HYf:_Alert_get_IsCloseNotify_m577852330
T3:__Z27FindOrCreateMonoScriptCache17ScriptingClassPtr22InitScriptingCacheTypeP6Objecti
KPb:__Z18Transfer_BlittableI18StreamedBinaryReadILb0EELb1E8Vector3fEvRK29SerializationCommandArgumentsR31RuntimeSerializationCommandInfo
Nqh:_GUIUtility__cctor_m46116445
aOc:__ZN2UI14CanvasRenderer13SyncVertexPtrER8JobFenceNS0_8SyncFlagE
i4:__Z35scripting_method_get_argument_count18ScriptingMethodPtr
Wxa:__ZN18AssetBundleManager18SortPreloadObjectsER13dynamic_arrayIiLj4EEb
lAg:_UInt16_System_IConvertible_ToChar_m4055364664_AdjustorThunk
QFi:_Text_set_fontStyle_m1766503514
fec:__Z20Gradient_CUSTOM_InitP12Il2CppObject
$oc:__Z48Register_UnityEngine_GUIUtility_Internal_ExitGUIv
Lgd:__ZN14dense_hash_mapI10KeyWrapperINSt3__24pairIPK9FieldInfoP11Il2CppClassEEEj17ReflectionMapHashIS8_ENS9_14EqualsComparerINS1_8equal_toIS8_EEEENS1_9allocatorINS2_IKS9_jEEEEE15set_deleted_keyERSH_
tvh:_Playable_GetPlayableType_m2389123558
doj:_X509Certificate_get_RawData_m1262574599
Nfe:_Byte_System_IConvertible_ToDouble_m4224320007
B5a:__ZL21CullDynamicObjectsJobP14CullingJobDataj
uMc:__ZN2UI15ClearCanvasDataER8JobFenceRNS_10CanvasDataE
F8f:_IPAddress_ToString_m1462985652
BFh:_ValueCollection_System_Collections_Generic_ICollectionU3CTValueU3E_Clear_m3471385195_gshared
TBh:_Enumerator_get_CurrentKey_m1408186928_AdjustorThunk
Cbb:__ZN14ManagerContext17InitializeClassesEv
Syi:_MaskUtilities_GetRectMasksForClip_m1540508301
Lhb:__ZN19StreamedBinaryWriteILb0EE21TransferSTLStyleArrayINSt3__26vectorI14ConstantStringNS2_9allocatorIS4_EEEEEEvRT_17TransferMetaFlags
$t:__ZN7mecanim5human20MaskHasRightFootGoalERKNS_6bitsetILj70EEE
nOb:__ZN18StreamedBinaryReadILb1EE21TransferSTLStyleArrayI31ArrayOfManagedObjectsTransfererEEvRT_17TransferMetaFlags
wqf:_List_1_System_Collections_IList_IndexOf_m406088260_gshared
mEg:_WeakReference_get_Target_m1672141897
Mdf:_Kernel_DwordDivMod_m4066997639
vFc:_t1_hints_open
tQg:__Z68RuntimeInvoker_Boolean_t3825574718_DateTime_t693205669_RuntimeObjectPFvvEPK10MethodInfoPvPS4_
fMd:_X509Certificate_GetCertHash_m2299453268
DHd:_MD5CryptoServiceProvider__ctor_m457716966
PDe:_Array_InternalArray__ICollection_Contains_TisKeyValuePair_2_t888819835_m3819112676_gshared
vtj:_Transform_get_rotation_m1033555130
Mre:_Decimal_s64_m2965457432
Q6b:__Z18TransformPoints3x4RK10Matrix4x4fPK8Vector3fjPS2_ji
PWc:__ZN22UnityWebRequestManager21CreateUnityWebRequestEv
Onc:__Z38Register_UnityEngine_GUIStyle_InitCopyv
LL:__ZN4FMOD7Channel11getUserDataEPPv
vCc:_UNITY_tt_face_load_gasp
v_g:__Z150RuntimeInvoker_RuntimeObject_RuntimeObject_Int32_t2071877448_Int32_t2071877448_Int32_t2071877448_Int32_t2071877448_Int32_t2071877448_Int32_t2071877448PFvvEPK10MethodInfoPvPS4_
fdg:_X509Chain__ctor_m2243818698
Mzc:_ft_ansi_stream_close
gm:_JS_Sound_SetPitch
nti:__ZL69InputField_t1631627530_CustomAttributesCacheGenerator_m_TextComponentP21CustomAttributesCache
g8c:_il2cpp_runtime_invoke_convert_args
tuc:__Z19TransferField_ArrayI8JSONRead27Converter_SimpleNativeClassI10RectOffsetEEvRK23StaticTransferFieldInfoR31RuntimeSerializationCommandInfoRT0_
xAh:_Enumerator_get_CurrentKey_m447338908_AdjustorThunk
P_f:_Context_get_SecurityProtocol_m1600902905
lmd:__ZN6il2cpp6icalls8mscorlib6System2IO6MonoIO11GetFileStatEP12Il2CppStringPNS3_8FileStatEPi
BDa:__ZN9GfxDevice33InsertCustomMarkerCallbackAndDataEPFviPvEiS0_j
RZa:__ZNK9ShaderLab9IntShader6GetTagE11ShaderTagIDb
Z2a:__Z25CalculateShadowCasterCullbPK5PlaneRK10Matrix4x4fRK8Vector3fff9LightTypeS7_R16ShadowCasterCullPKb
ibg:_X509BasicConstraintsExtension_CopyFrom_m1321548708
PGd:_HMAC_HashCore_m1869699062
E7g:_Assembly_GetTypes_m1317253146
aZe:_Int16_System_IConvertible_ToType_m2901377575_AdjustorThunk
c$e:_Int64_System_IConvertible_ToSByte_m253213816_AdjustorThunk
WOc:__ZN2UI14CanvasRenderer11SetMaterialEP8Materiali
GXd:_MouseState_SetButtonState_m2329922363
W1e:_FileStream__ctor_m3815606687
Vyd:_GC_freehblk
rUe:_NumberFormatter_NumberToString_m668979517
bTf:_ReadOnlyCollection_1_System_Collections_IList_Remove_m2507730234_gshared
eFh:_Enumerator_System_Collections_IEnumerator_Reset_m2482663638_gshared
J9b:__ZN9Scripting35DestroyObjectFromScriptingImmediateEP6Objectb
w6a:__ZNK6Camera48AreVRStereoViewMatricesWithinSingleCullToleranceEv
vfi:__ZL53Rigidbody2D_t502193897_CustomAttributesCacheGeneratorP21CustomAttributesCache
Rjg:_RemotingServices_GetRemoteObject_m3663391550
$T:__Z64AudioMixerPlayable_CUSTOM_INTERNAL_CALL_SetAutoNormalizeInternalR9HPlayableh
qCf:_Queue_1_Peek_m1224538505_gshared
xLg:__Z105RuntimeInvoker_RuntimeObject_Int32_t2071877448_RuntimeObject_RuntimeObject_RuntimeObject_SByte_t454417549PFvvEPK10MethodInfoPvPS4_
VKc:__ZN20TextRenderingPrivate22ScriptingTextGenerator9InitVertsEi
uJe:_Array_InternalArray__IndexOf_TisRuntimeObject_m2440219229_gshared
yc:invoke_iiiiiiiiiiiiiii
atd:__ZN6il2cpp2os6Thread33UnregisterCurrentThreadForCleanupEv
H$j:_emscripten_glIsRenderbuffer__wrapper
NTe:_GameObject_GetComponentsInParent_TisRuntimeObject_m3479568873_gshared
KMc:__ZN2UI11CanvasGroup8TransferI19StreamedBinaryWriteILb0EEEEvRT_
Flb:__ZNK20IntermediateRenderer8GetLayerEv
ksb:__ZN15QualitySettings8TransferI14SafeBinaryReadEEvRT_
k_c:__ZN14dense_hash_mapI10KeyWrapperIPK11Il2CppClassEPKcN6il2cpp5utils11PointerHashIS1_EENS4_14EqualsComparerINSt3__28equal_toIS3_EEEENSC_9allocatorINSC_4pairIKS4_S6_EEEEE13set_empty_keyERSI_
jHb:__ZN14SafeBinaryRead21TransferSTLStyleArrayI13dynamic_arrayIxLj8EEEEvRT_17TransferMetaFlags
O5e:_StringReader_CheckObjectDisposedException_m3099453260
h6f:_ListDictionary_System_Collections_IEnumerable_GetEnumerator_m2244736244
Yod:__ZNSt3__26vectorIN6il2cpp2vm5Image20EmbeddedResourceDataENS_9allocatorIS4_EEE21__push_back_slow_pathIS4_EEvOT_
wof:_Enumerator_System_Collections_IEnumerator_get_Current_m3228580602_AdjustorThunk
d_g:__Z97RuntimeInvoker_Void_t1841601450_SByte_t454417549_SByte_t454417549_Int32_t2071877448_RuntimeObjectPFvvEPK10MethodInfoPvPS4_
PIe:_Array_IndexOf_TisCustomAttributeTypedArgument_t1498197914_m3666284377_gshared
mef:_Kernel_AddSameSign_m2332657679
e3:__ZN14SerializedFile10ReadObjectEx18ObjectCreationModebPPK8TypeTreePbR6Object
EDf:_Collection_1_System_Collections_IList_IndexOf_m3460849589_gshared
O6b:__ZN4Mesh12SetIndexDataEiiPKv16GfxPrimitiveTypei
lza:__ZN14dynamic_bitset6resizeEjb
rUd:_BaseInputModule_FindCommonRoot_m2696088443
IW:__ZN11UnityEngine15CloudWebService10RestClientINS0_23WebRequestRestHeaderMapEE7SetDataEPKhj
VA:__ZN7mecanim8skeleton16SkeletonPoseCopyIN4math4trsXES3_EEvPKNS0_13SkeletonPoseTIT_EEPNS4_IT0_EE
l_c:__ZN14dense_hash_mapI10KeyWrapperIPK11Il2CppClassEPKcN6il2cpp5utils11PointerHashIS1_EENS4_14EqualsComparerINSt3__28equal_toIS3_EEEENSC_9allocatorINSC_4pairIKS4_S6_EEEEE15set_deleted_keyERSI_
zAa:__ZN9GfxDevice34SetStencilRefWhenStencilWasSkippedEi
QSc:__ZN11UnityEngine7Connect13ConnectConfig20RestoreTimeoutConfigERK13dynamic_arrayIiLj4EEjRS3_
xc:invoke_fi
SCd:__ZN6il2cpp6icalls8mscorlib6System10Reflection4Emit11TypeBuilder20create_runtime_classEP27Il2CppReflectionTypeBuilderS7_
f$:__ZL21InternalAssertConsolePKcz
vc:invoke_ff
Gd:_emscripten_glVertexAttrib3f
edd:__ZN30dense_hashtable_const_iteratorINSt3__24pairIK10KeyWrapperINS1_IPK11Il2CppImageP11Il2CppClassEEEjEES9_17ReflectionMapHashIS8_EN14dense_hash_mapIS9_jSD_NS9_14EqualsComparerINS0_8equal_toIS8_EEEENS0_9allocatorISB_EEE9SelectKeyESI_SK_EppEv
rhe:_Char_CompareTo_m3044885427
jga:__Z11UpdateInputv
dwf:_List_1_System_Collections_IList_IndexOf_m2887559165_gshared
NFh:_ValueCollection__ctor_m1825701219_gshared
Vxc:__ZN20TextRenderingPrivate8TextMesh11ApplyToMeshEv
Nab:__Z7CRCDonej
j5f:_SslStreamBase_get_CanRead_m3061866682
VUj:_emscripten_glDrawRangeElements__wrapper
Gnc:__Z35GUIStyle_CUSTOM_Internal_CalcHeight13Il2Cpp_IntPtrP12Il2CppObjectf
DYa:__Z28scripting_class_is_valuetype17ScriptingClassPtr
Qeb:__ZNSt3__26__treeINS_12__value_typeIN4core12basic_stringIcNS2_20StringStorageDefaultIcEEEEPN16MemoryFileSystem4NodeEEENS_19__map_value_compareIS6_SA_NS_4lessIS6_EELb1EEE13stl_allocatorISA_L18MemLabelIdentifier54ELi16EEE7destroyEPNS_11__tree_nodeISA_PvEE
afb:__ZNSt3__25dequeI10InputEventNS_9allocatorIS1_EEE19__add_back_capacityEv
_nf:_Enumerator_System_Collections_IEnumerator_Reset_m336811426_AdjustorThunk
AWa:__ZN13ComputeShader13SetValueParamERKN9ShaderLab16FastPropertyNameEiPKv
Awb:__ZN14BlendShapeDataD2Ev
ceh:_MethodToken_Equals_m533761838
RIa:__ZL18ProgramUniform3uivPK7ApiGLESjiihPKv
Mde:_Attribute_IsDefined_m1350918959
FPc:__Z47CanvasRenderer_Set_Custom_PropHasPopInstructionP12Il2CppObjecth
vih:_MonoProperty_get_DeclaringType_m4236036432
yIa:__ZN5Image8SetImageEii13TextureFormatb
A4:__ZN17MessageIdentifier21GetRegisteredMessagesEv
v2i:_U3CGetEnumeratorU3Ec__Iterator0_System_Collections_IEnumerator_get_Current_m480171694_gshared
bQf:_ReadOnlyCollection_1_System_Collections_Generic_ICollectionU3CTU3E_Remove_m1342418180_gshared
gZ:__Z13RegisterClassI23CloudWebServicesManagerEvv
_td:__ZN6il2cpp2vm5Array3NewEP11Il2CppClassi
Pnd:__GLOBAL__sub_I_Image_cpp
u7e:_Math_Sin_m2320256962
mSf:_ReadOnlyCollection_1_System_Collections_Generic_IListU3CTU3E_Insert_m2409570138_gshared
X9c:__ZN6il2cpp2vm4Type27GetGenericArgumentsInternalEP20Il2CppReflectionTypeb
joa:__ZNSt3__27__sort5IRPFbRKNS_4pairIN9ShaderLab16FastPropertyNameEfEES6_EPS4_EEjT0_SB_SB_SB_SB_T_
qLi:_AnimatorControllerPlayable_GetLayerCount_m1917775927
RZd:_CanvasUpdateRegistry__ctor_m4037208045
tac:__ZN8Material25DidModifyShaderKeywordSetEv
hvd:__ZN14dense_hash_mapI10KeyWrapperIPK19Il2CppGenericMethodEP10MethodInfoN6il2cpp8metadata23Il2CppGenericMethodHashENS4_14EqualsComparerINS8_26Il2CppGenericMethodCompareEEENSt3__29allocatorINSD_4pairIKS4_S6_EEEEE15set_deleted_keyERSG_
pHb:__Z29Transfer_Blittable_ArrayFieldI14SafeBinaryRead4AABBEvRT_R9ArrayInfoRK23StaticTransferFieldInfo
MPf:_ReadOnlyCollection_1_System_Collections_IList_RemoveAt_m2396335261_gshared
qDh:_Transform_1_Invoke_m2675095773_gshared
Nph:_GUIStyle_CalcHeight_m1685124037
L1d:_Dropdown_set_captionImage_m1952025570
rpi:__ZL56g_UnityEngine_UI_Assembly_CustomAttributesCacheGeneratorP21CustomAttributesCache
Nhf:_RSAManaged_remove_KeyGenerated_m452989252
ydc:__Z46Register_UnityEngine_RectOffset_get_horizontalv
Mnb:__ZN18DelayedCallManager8ClearAllEv
Ybb:__ZN17PersistentManagerC2E18MemLabelIdentifierii
tfc:__Z22Mesh_CUSTOM_HasChannelP12Il2CppObject30InternalScriptingShaderChannel
u4a:__ZNK25RenderPrePassObjectSorterclERK16RenderObjectDataS2_
yOb:__Z22TransferField_NonArrayI18StreamedBinaryReadILb1EE27Converter_SimpleNativeClassI8GUIStyleEEvRK23StaticTransferFieldInfoR31RuntimeSerializationCommandInfoRT0_
te:_Mix_LoadWAV_RW
Wa:invoke_viififiii
LKa:__Z13IsFloatFormat14GraphicsFormat
Wtj:_Enumerator__ctor_m147705785
qr:__ZNSt3__27__sort4IRNS_6__lessIN11UnityEngine9Animation13CachedBindingES4_EEPS4_EEjT0_S8_S8_S8_T_
Tpd:__ZN6il2cpp2gcL12alloc_handleEPNS0_10HandleDataEP12Il2CppObjectb
TYj:_emscripten_glGetAttribLocation__wrapper
U_d:_CanvasScaler_HandleConstantPhysicalSize_m687057631
i_j:b98
Hjf:_PKCS12_Encrypt_m1401341763
t5:__ZL16ReadTypeTreeImplILb1EEbR8TypeTreeRK16TypeTreeIteratorRPKhS6_i
Le:_glBlendEquationSeparate
DKd:_SHA384_Create_m1970724783
qm:_emscripten_glDeleteVertexArrays
UDa:__ZN13GfxDeviceGLES17SetComputeUniformE12ObjectHandleI18ComputeProgram_TagPvER18ComputeShaderParamjPKv
cmd:__ZN6il2cpp6icalls8mscorlib6System2IO6MonoIO5CloseE12Il2CppIntPtrPi
V_j:_emscripten_glValidateProgram__wrapper
Lgf:_SmallXmlParser_ReadComment_m1117342068
Se:_emscripten_glUniform3fv
Vfc:__Z35MonoBehaviour_CUSTOM_StartCoroutineP12Il2CppObjectP12Il2CppStringS0_
Yla:__ZN9ShaderLab7Program14RemoveVariantsERK13dynamic_arrayI16ShaderKeywordSetLj4EE
Wkd:__ZN6il2cpp2vm9Exception20GetArgumentExceptionEPKcS3_
uvc:__Z29Transfer_Blittable_ArrayFieldI8JSONReadiEvRT_R9ArrayInfoRK23StaticTransferFieldInfo
Ilj:_Uri_System_Runtime_Serialization_ISerializable_GetObjectData_m214698768
dZj:_glDrawArrays__wrapper
TR:__ZN9AudioClip27IsFormatSupportedByPlatformERKN4core12basic_stringIcNS0_20StringStorageDefaultIcEEEE
NUb:__ZN9ShaderLab26SerializedShaderDependency8TransferI24GenerateTypeTreeTransferEEvRT_
X8:__ZN16LightmapSettings7RebuildEv
CGg:__Z92RuntimeInvoker_RuntimeObject_RuntimeObject_Int32_t2071877448_Int32_t2071877448_RuntimeObjectPFvvEPK10MethodInfoPvPS4_
PCc:_UNITY_FT_Match_Size
J$d:_ColorBlock_Equals_m738243050
jv:__ZN7mecanim20CreateValueArrayMaskEPKNS_18ValueArrayConstantERNS_6memory9AllocatorE
_Oj:_free
M6f:_NameObjectCollectionBase_GetEnumerator_m646294968
LRc:__ZN11UnityEngine7Connect14AppUpdateEventC2Ev
bkb:__ZN12ImageFilters17RemoveImageFilterERK11ImageFilter
CDa:__ZN9GfxDevice31InsertCustomBlitCallbackAndDataEPFviPvER33UnityRenderingExtCustomBlitParams
yPa:__Z32AddPathRemapsForBuiltinResourcesRKN4core12basic_stringIcNS_20StringStorageDefaultIcEEEE
Vqh:_IL2CPPStructAlignmentAttribute__ctor_m2555798229
bsj:_TextGenerator_GetCharacters_m2554471692
Gff:_DSAManaged_remove_KeyGenerated_m61544860
wIb:__ZL26Transfer_SimpleNativeClassI17RemapPPtrTransfer17AnimationCurveTplIfELb0EEvRK29SerializationCommandArgumentsR31RuntimeSerializationCommandInfo
Cmj:_KeyUsageExtension_Decode_m4115739726
sm:_glDeleteTransformFeedbacks
xf:_JS_WebRequest_Send
Zxd:__ZN6il2cpp2os4Time31GetTicks100NanosecondsMonotonicEv
dJa:__ZL23ProgramUniformMatrix3fvPK7ApiGLESjiihPKv
zoe:_Stack_Clear_m771767447
h$e:_Int64_System_IConvertible_ToUInt16_m2638682734
VYh:__ZL102ChannelServices_t2007814595_CustomAttributesCacheGenerator_ChannelServices_RegisterChannel_m3832858065P21CustomAttributesCache
AXj:_emscripten_glGenRenderbuffers__wrapper
aQj:__ZNK10__cxxabiv117__class_type_info24process_found_base_classEPNS_19__dynamic_cast_infoEPvi
kLj:_Nullable_1_Equals_m1889119397_AdjustorThunk
eph:_GUIStyle_Draw_m3134455812
E3c:__ZN6il2cpp2vm13MetadataCache21GetFieldInfoFromIndexEj
eAi:_Raycast2DCallback_BeginInvoke_m4219004388
fQ:__ZN17AudioClipPlayable13OnAdvanceTimeEd
ylg:_BaseFixupRecord_DoFixup_m1821597450
rU:__ZN5physx14PxLightCpuTaskD2Ev
Jq:__ZNSt3__26vectorIN4core12basic_stringIcNS1_20StringStorageDefaultIcEEEENS_9allocatorIS5_EEE6assignINS_11__wrap_iterIPS5_EEEENS_9enable_ifIXaasr21__is_forward_iteratorIT_EE5valuesr16is_constructibleIS5_NS_15iterator_traitsISE_E9referenceEEE5valueEvE4typeESE_SE_
YQi:_AudioSettings_InvokeOnAudioConfigurationChanged_m3225073778
J6c:_il2cpp_init
_Lc:__ZNSt3__26__treeIPN2UI14CanvasRendererENS_4lessIS3_EENS_9allocatorIS3_EEE7destroyEPNS_11__tree_nodeIS3_PvEE
sJg:__Z176RuntimeInvoker_Boolean_t3825574718_RuntimeObject_Int32U26_t455636984_Int32_t2071877448_Int32_t2071877448_Int32_t2071877448_RuntimeObject_SByte_t454417549_ContextU26_t3131521781PFvvEPK10MethodInfoPvPS4_
oCa:__ZN13GfxDeviceGLES22UploadTextureSubData2DE9TextureIDPKhiiiiii14GraphicsFormat
y4:__ZNK15dense_hashtableINSt3__24pairIKPKcPK4RTTIEES3_N11TypeManager23ConstCharPtrHashFunctorEN14dense_hash_mapIS3_S7_SA_NS9_19ConstCharPtrEqualToE13stl_allocatorIS8_L18MemLabelIdentifier6ELi16EEE9SelectKeyESC_SF_E23find_position_with_hashERS4_j
uec:__Z35Register_UnityEngine_Screen_get_dpiv
nth:_Mesh_get_normals_m1837187359
Ytc:__ZN8JSONRead8TransferIxEEvRT_PKc17TransferMetaFlagsb
x0:__ZN13SpeedTreeWind7AdvanceEbd
C_e:_Int32_TryParse_m2941352213
HFa:__ZN18GlslGpuProgramGLES19ApplyGpuProgramGLESERK20GpuProgramParametersPKh
Dac:__ZN9Transform16SetLocalPositionERK8Vector3f
O5d:_LayoutGroup_GetTotalMinSize_m2600700952
HPb:__Z15Transfer_StringI18StreamedBinaryReadILb0EELb0EEvRK29SerializationCommandArgumentsR31RuntimeSerializationCommandInfo
yM:__ZN12SoundManagerC2Ev
tCc:_UNITY_tt_face_free_name
cQe:_Array_Sort_TisUICharInfo_t3056636800_m37864585_gshared
LZj:_emscripten_glGetUniformfv__wrapper
KJa:__ZN14DataBufferGLES3MapEjjj
Oaj:_InternalEnumerator_1_System_Collections_IEnumerator_get_Current_m771161214_gshared
Po:FUNCTION_TABLE_fidi
OBh:_Enumerator_get_CurrentValue_m2645962456_gshared
ZZj:_emscripten_glGetShaderiv__wrapper
v_b:__Z13RegisterClassI9TransformEvv
Wna:__ZN18UnityPropertySheet11UnityTexEnv8TransferI19StreamedBinaryWriteILb0EEEEvRT_
iYi:_ResourceInfo_t3933049236_marshal_pinvoke_back
mBd:_GC_make_descriptor
cdd:__ZNK15dense_hashtableINSt3__24pairIK10KeyWrapperINS1_IPK11Il2CppImageP11Il2CppClassEEEjEES9_17ReflectionMapHashIS8_EN14dense_hash_mapIS9_jSD_NS9_14EqualsComparerINS0_8equal_toIS8_EEEENS0_9allocatorISB_EEE9SelectKeyESI_SK_E5beginEv
T6c:_il2cpp_array_new
sKe:_Array_InternalArray__ICollection_Add_TisDictionaryEntry_t3048875398_m279246399_gshared
z_i:_ChannelServices_GetCurrentChannelInfo_m4080942430
PK:__ZN4FMOD3DSP8getInputEiPPS0_PPNS_13DSPConnectionE
dmf:_KeyValuePair_2_ToString_m2882821022_AdjustorThunk
X4:__ZN20dynamic_block_vectorI14FileIdentifierE5clearEv
Iwb:__ZN10MeshFilter23VirtualRedirectTransferER17RemapPPtrTransfer
qBc:_ft_outline_glyph_bbox
iAj:_IndexedSet_1_RemoveAll_m2736534958_gshared
JKc:_UNITY_FT_Done_Library
WGi:_VertexHelper__cctor_m1150948588
gR:__ZN13AudioPlayable25UpdateChannelGroupVisitorERK16AudioProcessData
qOc:__ZN2UI13CanvasManager17EmitDataForCameraEP6Camera
WQi:_PCMSetPositionCallback_BeginInvoke_m2507142524
yDh:_Transform_1_Invoke_m1111426439_gshared
Bhc:__Z44Register_UnityEngine_Material_GetTextureImplv
Pxc:__ZN13sorted_vectorIN20TextRenderingPrivate8FontImpl13CharacterInfoENSt3__24lessIS2_EE13stl_allocatorIS2_L18MemLabelIdentifier34ELi16EEE10insert_oneERKS2_
ttj:_Transform_INTERNAL_set_localPosition_m432504087
tZj:_glUniform3uiv__wrapper
bga:__ZL8MainLoopv
A8g:_Binder_ConvertArgs_m2999223281
gch:_TypeBuilder_IsDefined_m3186251655
bQc:__Z47Register_UnityEngine_CanvasRenderer_SetMaterialv
WR:__ZNK9AudioClip12GetLengthSecEv
eIh:_Dictionary_2_ToTValue_m1227484397_gshared
gaf:_NumberFormatter_get_IntegerDigits_m3972411141
dxb:__ZThn32_N12MeshRendererD1Ev
Cia:__ZN13RenderTexture23VirtualRedirectTransferER19StreamedBinaryWriteILb0EE
SCh:_ShimEnumerator_MoveNext_m2728191736_gshared
Q_g:__Z135RuntimeInvoker_RuntimeObject_Ray_t2469606224_RaycastHitU26_t1969197280_Single_t2076509932_Int32_t2071877448_RuntimeObject_RuntimeObjectPFvvEPK10MethodInfoPvPS4_
lCg:_UInt64_System_IConvertible_ToInt32_m930227577_AdjustorThunk
Mwd:__ZN6il2cpp2vm13ComObjectBase17GetMarshalSizeMaxERK10Il2CppGuidPvjS5_jPj
J1b:__ZN9TransformC2E18MemLabelIdentifier18ObjectCreationMode
YOj:_truncate
yVb:__ZN9ShaderLab27SerializedShaderVectorValue8TransferI18StreamedBinaryReadILb0EEEEvRT_
_qb:__ZN8Renderer21RendererBecameVisibleEv
fRf:_ReadOnlyCollection_1_System_Collections_Generic_ICollectionU3CTU3E_Clear_m2503787861_gshared
tOj:___stpncpy
vGf:_Collection_1_System_Collections_IList_Add_m669232520_gshared
Dyf:_List_1_RemoveAt_m1843849279_gshared
P$:__ZN10MemoryPool16StaticInitializeEPv
Fba:__ZN11TypeManager21CleanupGlobalInstanceEv
$zg:_TypedReference_GetHashCode_m3498861551_AdjustorThunk
N:Math_atan
Q9c:__ZNSt3__212basic_stringIcNS_11char_traitsIcEENS_9allocatorIcEEE6__initIPKcEENS_9enable_ifIXsr21__is_forward_iteratorIT_EE5valueEvE4typeESA_SA_
CJ:__ZNK10SampleClip11GetResourceEv
rQa:__ZN4core12basic_stringIcNS_20StringStorageDefaultIcEEE6resizeEj
w7i:_InternalEnumerator_1_System_Collections_IEnumerator_get_Current_m127456009_gshared
tmc:__Z43Register_UnityEngine_Event_set_displayIndexv
adj:_InternalEnumerator_1_System_Collections_IEnumerator_get_Current_m2821735692_AdjustorThunk
awc:__GLOBAL__sub_I_CmEventProfiler_cpp
QVf:_PrimalityTests_GetSPPRounds_m873706010
ktg:_StringBuilder_AppendLine_m1686706871
QSf:_ReadOnlyCollection_1_System_Collections_Generic_IListU3CTU3E_Insert_m584948331_gshared
rib:__ZN17GlobalGameManager23VirtualRedirectTransferER24GenerateTypeTreeTransfer
$3e:_MemoryStream_ToArray_m547789004
BTc:__ZN19UnityConnectServiceD0Ev
TMi:_AnimatorControllerPlayable_CrossFade_m3794224188
m3e:_MonoIO_SetLength_m1019790894
UTa:__ZZ23InitPlayerLoopCallbacksvEN46EarlyUpdateUpdateAllUnityWebStreamsRegistrator7ForwardEv
eDg:_UIntPtr_ToString_m387842486
tkb:__ZNSt3__26vectorIfNS_9allocatorIfEEE8__appendEjRKf
uSc:__ZN11UnityEngine15PlatformWrapper21GetCopyTextureSupportEv
S3d:_Graphic_get_depth_m3526566553
OS:__ZN11AudioModule27IsFormatSupportedByPlatformEPKc
ble:_CollectionBase_get_InnerList_m44314156
BAe:_Enum_System_IConvertible_ToUInt32_m3575456858
klh:_WindowFunction_BeginInvoke_m322627481
Pib:__ZNSt3__26vectorI17SortingLayerEntryNS_9allocatorIS1_EEE6assignINS_11__wrap_iterIPS1_EEEENS_9enable_ifIXaasr21__is_forward_iteratorIT_EE5valuesr16is_constructibleIS1_NS_15iterator_traitsISA_E9referenceEEE5valueEvE4typeESA_SA_
Y4:__ZN14SerializedFile14SerializedTypeD2Ev
zbc:__Z48Register_UnityEngine_AsyncOperation_set_priorityv
mvc:__Z19TransferField_ArrayI8JSONRead16Converter_StringEvRK23StaticTransferFieldInfoR31RuntimeSerializationCommandInfoRT0_
H1c:__ZN15dense_hashtableINSt3__24pairIK10KeyWrapperIPK19Il2CppGenericMethodEPK26Il2CppGenericMethodIndicesEES6_N6il2cpp8metadata23Il2CppGenericMethodHashEN14dense_hash_mapIS6_SA_SE_NS6_14EqualsComparerINSD_26Il2CppGenericMethodCompareEEENS0_9allocatorISB_EEE9SelectKeyESI_SK_E6insertERKSB_
Xfb:__ZNK25ThreadsafeLinearAllocator22GetAllocatedMemorySizeEv
dGc:_cff_size_request
jnb:__ZN15DirectorManager14ConnectionPool12SwitchBucketEP14ConnectionList
gzg:_Type_EqualsInternal_m266086934
mMc:__ZN2UI11CompareFuncEPNS_6CanvasES1_
DL:__ZN4FMOD7Channel11set3DSpreadEf
nEd:__ZN6il2cpp2os6Memory14AlignedReAllocEPvjj
W:Math_fround
EFc:_pshinter_get_t1_funcs
Zva:__ZN24GenerateTypeTreeTransfer16TransferTypelessEPjPKc17TransferMetaFlags
Lxg:_TimeSpan_get_TotalMinutes_m1645177229
UGd:_HMACMD5__ctor_m3425004426
qif:_SymmetricTransform_InternalTransformBlock_m55428483
SIa:__ZL18ProgramUniform4uivPK7ApiGLESjiihPKv
D8e:_LongComparer_Compare_m398047722
RQ:__ZN18AudioMixerPlayable18CacheFMODResourcesEPN4FMOD6SystemE
oNh:_EqualityComparer_1_System_Collections_IEqualityComparer_Equals_m2170611288_gshared
qQi:_AudioMixerPlayable_op_Explicit_m1657546053
Fde:_Attribute_CheckParameters_m1754681684
wtg:_UnicodeEncoding_GetByteCount_m2761661599
Y0a:__ZN10builtintex21GetAttenuationTextureEv
Sm:FUNCTION_TABLE_viiiiiiiiiiiiiii
RDi:_Selectable_TriggerAnimation_m3096883407
KDd:__ZN6il2cpp6icalls8mscorlib6System9Threading5Mutex21ReleaseMutex_internalE12Il2CppIntPtr
h7b:__ZNK4Mesh19CanAccessFromScriptEv
U9:__Z15GetGraphicsCapsv
HEa:__ZN7ApiGLES15BindVertexArrayEN2gl6HandleILNS0_10ObjectTypeE3EEE
_u:__ZN17AnimationPlayable17GetAnimationClipsER13dynamic_arrayIP13AnimationClipLj4EE
H1a:__Z20IntersectionAABBAABBRK10MinMaxAABBS1_PS_
qed:__ZN30dense_hashtable_const_iteratorINSt3__24pairIK10KeyWrapperINS1_IPK9EventInfoP11Il2CppClassEEEjEES9_17ReflectionMapHashIS8_EN14dense_hash_mapIS9_jSD_NS9_14EqualsComparerINS0_8equal_toIS8_EEEENS0_9allocatorISB_EEE9SelectKeyESI_SK_EppEv
pyg:_TimeSpan_op_GreaterThan_m2202243191
vZb:__ZN18BackgroundJobQueue29ScheduleMainThreadJobInternalEPFvPvES0_
Xbg:_X509Chain_IsSelfIssued_m2009755967
DMc:__ZN2UI11CanvasGroup23VirtualRedirectTransferER24GenerateTypeTreeTransfer
ynb:__ZNK20ScriptPlayableOutput9GetStagesER13dynamic_arrayI16StageDescriptionLj4EE
BEb:__Z18Transfer_BlittableI14SafeBinaryReadLb1EhEvRK29SerializationCommandArgumentsR31RuntimeSerializationCommandInfo
Sue:_DateTime_GetTimeMonotonic_m4135038456
Kca:__ZNSt3__224__buffered_inplace_mergeIRNS_4lessIN4core12basic_stringIcNS2_20StringStorageDefaultIcEEEEEENS_11__wrap_iterIPS6_EEEEvT0_SC_SC_T_NS_15iterator_traitsISC_E15difference_typeESG_PNSF_10value_typeE
dtg:_StringBuilder_Append_m3636508479
kc:invoke_viifff
A2:__Z22DestroyObjectHighLevelP6Objectb
T_a:__Z26BeginRenderQueueExtractionR15RenderNodeQueuePK16RendererCullDataRK13CullingOutputPK12LODDataArray15ExtractionFlagsP18JobBatchDispatcher
Oxc:__ZNK13TextRendering4Font10GetTextureEv
ZHd:_SymmetricAlgorithm_set_KeySize_m270664177
pj:_emscripten_glVertexAttrib3fv
qxi:__ZL49Shadow_t4269599528_CustomAttributesCacheGeneratorP21CustomAttributesCache
Mjd:__ZN6il2cpp6icalls8mscorlib6System9Threading6Thread16SetName_internalEP12Il2CppThreadP12Il2CppString
tj:_glBeginTransformFeedback
x0f:_Context_ClearKeyInfo_m205678623
dxa:__ZN18JobBatchDispatcherC2E11JobPriorityi
nkc:__ZN8GUIStyle14GetBuiltinFontEv
gDa:__ZN9GfxDevice13EndFrameStatsEv
e1b:__Z7Empty2DP9Texture2DPhiiii
i0e:_IntPtr_ToString_m1500137303_AdjustorThunk
ZXd:_RaycasterManager__cctor_m3713028899
Muf:_List_1_CheckCollection_m1228076404_gshared
HBj:_SymmetricTransform_ThrowBadPaddingException_m2553969731
$N:__ZL34StaticDestroyAudioCustomFilterRootPv
mXa:__ZN19ComputeShaderKernelD2Ev
cZb:__ZN10systeminfo21GetTemporaryCachePathEv
Yxd:__ZN6il2cpp2os4Time29GetTicksMillisecondsMonotonicEv
zvc:__ZN9rapidjson12PrettyWriterI16TempBufferWriterNS_4UTF8IcEES3_13JSONAllocatorE12PrettyPrefixENS_4TypeE
y0f:_Context_DecodeProtocolCode_m4051353560
nXb:__ZN12ScriptMapper8TransferI14SafeBinaryReadEEvRT_
q0f:_Context_set_ClientWriteKey_m1137238126
VJb:__Z18Transfer_BlittableI24GenerateTypeTreeTransferLb1E10Matrix4x4fEvRK29SerializationCommandArgumentsR31RuntimeSerializationCommandInfo
Qjj:_Expression_GetFixedWidth_m2900825908
NB:__Z10SetLocalTR15TransformAccessRKN4math7_float3ERKNS0_7_float4E
dEj:_GenericEqualityComparer_1_Equals_m1663005117_gshared
HTi:_Color_ToString_m4028093047_AdjustorThunk
vah:_ILGenerator_Mono_GetCurrentOffset_m3553856682
isc:__ZN9JSONWrite8TransferI10Matrix4x4fEEvRT_PKc17TransferMetaFlags
$Ph:__ZL58Decimal_t724701077_CustomAttributesCacheGenerator_MinValueP21CustomAttributesCache
xHc:_cf2_hintmap_map
dpf:_Enumerator_VerifyState_m3639069574_AdjustorThunk
jQ:__ZN17AudioClipPlayable15ApplyPropertiesEPN4FMOD6SystemEP11AudioSourcebyj
IYh:__ZL50_Module_t2144668161_CustomAttributesCacheGeneratorP21CustomAttributesCache
fHb:__ZN15SerializeTraitsI5RectTIfEE8TransferI14SafeBinaryReadEEvRS1_RT_
tsh:_Mathf_CeilToInt_m2672598779
pic:__Z41Register_UnityEngine_Texture_get_wrapModev
zzc:_UNITY_FT_Raccess_Get_DataOffsets
Pdg:_X509Extension_CopyFrom_m2644634650
M4b:__ZN14PlayableOutputC2EjP13PlayableGraph
lrb:__ZThn32_NK8Renderer11GetMaterialEi
JVb:__ZN9ShaderLab20SerializedSubProgram8TransferI19StreamedBinaryWriteILb0EEEEvRT_
N0h:__ZL118SecurityManager_t3191249573_CustomAttributesCacheGenerator_SecurityManager_t3191249573____SecurityEnabled_PropertyInfoP21CustomAttributesCache
qsf:_List_1_System_Collections_IList_Insert_m813883425_gshared
byd:__ZN6il2cpp6icalls8mscorlib6System7Runtime15InteropServices8GCHandle15GetTargetHandleEP12Il2CppObjectii
PZi:_SafeHandle_Dispose_m3871883741
mk:_unsetenv
qAa:__ZN9GfxDevice29GetMinimumNodesPerGraphicsJobEv
Qvb:__ZN17BlendShapeChannel8TransferI24GenerateTypeTreeTransferEEvRT_
IWg:__Z427RuntimeInvoker_Boolean_t3825574718_RuntimeObject_RuntimeObject_Color_t2020392075_Int32_t2071877448_Single_t2076509932_Single_t2076509932_Int32_t2071877448_SByte_t454417549_SByte_t454417549_Int32_t2071877448_Int32_t2071877448_Int32_t2071877448_Int32_t2071877448_SByte_t454417549_Int32_t2071877448_Single_t2076509932_Single_t2076509932_Single_t2076509932_Single_t2076509932_SByte_t454417549_SByte_t454417549_UInt32U26_t2197289955PFvvEPK10MethodInfoPvPS4_
pkh:_GameObject_SendMessage_m71956653
Byh:_Rect_set_yMin_m734445288_AdjustorThunk
Zhj:_Parser_NewParseException_m3909819299
cKi:_AnimatorControllerPlayable_GetFloat_m753829628
Yaa:__ZN15DirectorManager17OnSampleFixedTimeEv
T5a:__ZNK13RendererScene21GetDynamicObjectCountEv
I5c:__ZN6il2cpp6icalls8mscorlib6SystemL8IsPublicEPK12PropertyInfo
Ayd:_GC_is_black_listed
TTd:_BaseInput_get_imeCompositionMode_m4145003637
g8d:_InputField_set_caretSelectPositionInternal_m2063243072
e$j:_emscripten_glDisable__wrapper
BKb:__ZN24GenerateTypeTreeTransfer32TransferSTLStyleArrayWithElementI23ManagedObjectTransfererEEvRT_17TransferMetaFlags
ecj:_InternalEnumerator_1_System_Collections_IEnumerator_get_Current_m3043347404_AdjustorThunk
e3e:_WriteDelegate_BeginInvoke_m2985235908
dwe:_DateTimeOffset_get_Offset_m2335492074_AdjustorThunk
zRe:_Component_GetComponentsInChildren_TisRuntimeObject_m1992201622_gshared
Zyh:_RectOffset_Cleanup_m3198970074
$nc:__Z42Register_UnityEngine_GUIStyle_set_wordWrapv
vAc:_UNITY_FT_Destroy_Class_tt_driver_class
SZe:_Int32_System_IConvertible_ToChar_m719315943_AdjustorThunk
zEd:__ZN6il2cpp6icalls8mscorlib6System7Runtime8Remoting16RemotingServices16GetVirtualMethodEP20Il2CppReflectionTypeP22Il2CppReflectionMethod
igj:_Match__ctor_m478172746
sNe:_Array_InternalArray__Insert_TisWorkRequest_t1154022482_m452198486_gshared
Pbc:__Z42Register_UnityEngine_Behaviour_get_enabledv
x7e:_Math_Pow_m3099781906
S8c:__ZN6il2cpp2vm14TypeNameParser23ParseNestedTypeOptionalERi
i9e:_MonoType_ReorderParamArrayArguments_m979187413
JUf:_BigInteger_ToString_m1842353154
udj:_InternalEnumerator_1_System_Collections_IEnumerator_get_Current_m419967545_AdjustorThunk
ZDd:__ZN6il2cpp2os13FastMutexImplC2Ev
rRc:__ZN22BaseUnityConnectClient14QueueCoreEventERN11UnityEngine15CloudWebService17CloudServiceEventEb
v5i:_InternalEnumerator_1_get_Current_m2882946014_gshared
jBb:__ZN30RuntimeInitializeOnLoadManager9ClassInfo8TransferI14SafeBinaryReadEEvRT_
sZi:_GCHandle_Equals_m170815541_AdjustorThunk
g2a:__ZL13RenderCastersiRK8Vector3fS1_RK13ShadowJobDataR17ShaderPassContextRKNSt3__26vectorI16ShadowCasterData13stl_allocatorIS9_L18MemLabelIdentifier2ELi16EEEERKNS8_I20ShadowCasterPartDataSA_ISG_LSB_2ELi16EEEERK15RenderNodeQueuebPKj
ml:_emscripten_glGetShaderInfoLog
E9c:__ZNSt3__26vectorIiNS_9allocatorIiEEE8allocateEj
G1h:__ZL100CompressedStack_t1568001503_CustomAttributesCacheGenerator_CompressedStack_GetObjectData_m2387204186P21CustomAttributesCache
MId:_RIPEMD160Managed_Compress_m3844168032
pwe:_DBNull_System_IConvertible_ToInt32_m3596596664
FZe:_Int16_ToString_m1247017262_AdjustorThunk
gzh:_RectTransform_get_anchorMax_m3816015142
XCc:_UNITY_ft_glyphslot_set_bitmap
y3:__ZN24GenerateTypeTreeTransfer18SetScriptingObjectE18ScriptingObjectPtri
tzh:_RectTransform_INTERNAL_get_pivot_m3003734630
dU:__Z92Register_UnityEngine_Audio_AudioMixerPlayable_INTERNAL_CALL_CreateAudioMixerPlayableInternalv
h_e:_Int32_System_IConvertible_ToType_m573330549_AdjustorThunk
h9g:_CustomAttributeTypedArgument_Equals_m1555989603
GYb:__ZN6prcoreL11inner_clearILj3EEEvPhjjj
YTg:__Z99RuntimeInvoker_RuntimeObject_RuntimeObject_RuntimeObject_Vector3_t2243707580_Quaternion_t4030073918PFvvEPK10MethodInfoPvPS4_
xjb:__Z29FindReflectionProbeFromAnchorP9TransformRK4AABBRS1_RsS5_
pDe:_CultureInfo_insert_into_shared_tables_m348522444
PT:__Z74Register_UnityEngine_Audio_AudioClipPlayable_INTERNAL_CALL_GetClipInternalv
mgg:_Interval_Merge_m1170166798
tlg:_WellKnownServiceTypeEntry__ctor_m1109686429
tJc:_Read_CVT_Stretched
iwh:_PlayableHandle_SetInputCount_m2001045454_AdjustorThunk
x5c:__ZN6il2cpp6icalls8mscorlib6System18CollectTypeMethodsINS_5utils10functional10TrueFilterEEEvP11Il2CppClassPKS7_jRKT_RNSt3__26vectorIPK10MethodInfoNSE_9allocatorISI_EEEERA65535_b
YBf:_Enumerator_get_Current_m2566716693_AdjustorThunk
lga:__Z14SetPlayerPause11PlayerPauseb
HPi:_AudioClipPlayable_GetLooped_m2341122984_AdjustorThunk
Ivj:_Vector3_op_Equality_m305888255
T2d:_FontData_get_defaultFontData_m3296571046
xXg:__Z65RuntimeInvoker_Int32_t2071877448_RuntimeObject_Single_t2076509932PFvvEPK10MethodInfoPvPS4_
A8d:_InputField_InPlaceEditing_m1040314765
I1:__Z30scripting_stack_trace_info_for21ScriptingExceptionPtrR14StackTraceInfo
RTj:_glCompressedTexSubImage3D__wrapper
Cdd:__ZN15dense_hashtableINSt3__24pairIK10KeyWrapperINS1_IPK12PropertyInfoP11Il2CppClassEEEjEES9_17ReflectionMapHashIS8_EN14dense_hash_mapIS9_jSD_NS9_14EqualsComparerINS0_8equal_toIS8_EEEENS0_9allocatorISB_EEE9SelectKeyESI_SK_EC2ERKSN_j
YK:__ZN15AudioReverbZone7CleanupEv
QMa:__ZN10BufferGLESD0Ev
Kbj:_InternalEnumerator_1_System_Collections_IEnumerator_get_Current_m790514740_gshared
aOd:__Z9NullCheckPv
fUc:__ZN22UnityAnalyticsSettings8TransferI14SafeBinaryReadEEvRT_
RCb:__ZN9Scripting35ErrorMessageForUnsupportedEnumFieldE17ScriptingFieldPtr
FHc:_cf2_hintmask_isNew
OMe:_Array_InternalArray__Insert_TisIntPtr_t_m3232864760_gshared
Ara:__ZN6prcoreL26RemapGenericIntegerToFloatI17TexFormatARGB888818TexFormatARGBFloatEEvPKNS_9InnerInfoE
jFj:__ZL24UnresolvedVirtualCall_10P12Il2CppObjectPK10MethodInfo
GYj:_emscripten_glCompressedTexSubImage2D__wrapper
Gqg:_DSA_FromXmlString_m2141326025
Jph:_GUIStyle_CalcSizeWithConstraints_m4117833199
cVc:__ZZN18UnityConnectClient23RegisterGlobalCallbacksEvEN46EarlyUpdateUnityConnectClientUpdateRegistrator7ForwardEv
yHh:_Dictionary_2_System_Collections_IDictionary_Remove_m2901901588_gshared
Ftj:_Transform_INTERNAL_set_localScale_m3680777866
E4c:__ZN6il2cpp2vmL29SocketPollingThreadEntryPointEPv
Tue:_DateTime_GetNow_m1004310079
lKg:__Z97RuntimeInvoker_Void_t1841601450_RuntimeObject_Int32_t2071877448_SByte_t454417549_SByte_t454417549PFvvEPK10MethodInfoPvPS4_
Uvb:__ZN10Matrix4x4f8TransferI18StreamedBinaryReadILb0EEEEvRT_
m5f:_SslStreamBase_get_Length_m763159069
KTf:_Comparison_1_Invoke_m4190993814_gshared
QO:__ZN4FMOD7Channel19getReverbPropertiesEP29FMOD_REVERB_CHANNELPROPERTIES
ydj:_InternalEnumerator_1_get_Current_m906360510_AdjustorThunk
Oye:_StackFrame_GetSecureFileName_m389986943
Mlg:_FormatterConverter_ToInt16_m2774942580
S_d:_CanvasScaler_HandleConstantPixelSize_m229625308
X_d:_CanvasUpdateRegistry_PerformUpdate_m2200492017
jAg:_UInt16_System_IConvertible_ToByte_m806893944_AdjustorThunk
Stg:_UTF32Encoding_GetCharCount_m3319809517
g9b:__Z12CancelInvokeR13MonoBehaviourR11ICallString
Pkh:_GUILayout_Height_m607115982
n5c:__ZN6il2cpp6icalls8mscorlib6System8MonoType13GetInterfacesEP20Il2CppReflectionType
qX:__ZN11UnityEngine15CloudWebService25WebRequestDownloadHandler7OnAbortEv
RVa:__ZN6Camera12CustomRenderER11CullResultsR17ShaderPassContextPK21CameraRenderingParamsNS_10RenderFlagEPNS_21PerformRenderFunctionEPFvvE
_Ab:__ZN14SafeBinaryRead21TransferSTLStyleArrayINSt3__26vectorIi13stl_allocatorIiL18MemLabelIdentifier12ELi16EEEEEEvRT_17TransferMetaFlags
Hmf:_KeyValuePair_2_ToString_m2613351884_AdjustorThunk
lof:_Enumerator_System_Collections_IEnumerator_get_Current_m3461301268_AdjustorThunk
_sd:__ZN6il2cpp2os6Thread22SetNativeThreadCleanupEPFvPvE
abc:__Z35Application_Get_Custom_PropPlatformv
Y6c:_il2cpp_class_from_system_type
EJb:__Z18Transfer_BlittableI24GenerateTypeTreeTransferLb1E10ColorRGBAfEvRK29SerializationCommandArgumentsR31RuntimeSerializationCommandInfo
Aqa:__ZN6prcoreL17RemapGenericFloatI18TexFormatRGBAFloat16TexFormatRGFloatEEvPKNS_9InnerInfoE
Ebf:_MSCompatUnicodeTable_FillCJKCore_m1100372933
O4c:__ZN6il2cpp6icalls8mscorlib6System8MonoType8get_NameEP20Il2CppReflectionType
BGb:__ZNSt3__26vectorI10RectOffset13stl_allocatorIS1_L18MemLabelIdentifier1ELi16EEE8__appendEj
nqe:_DateTime_op_Inequality_m1607380213
rt:__ZN21AnimationClipPlayable22PrepareAnimationEventsEfR13dynamic_arrayI22AnimationClipEventInfoLj4EE
X1b:__ZN9ShaderLab33GenerateFastPropertyName28BitHashEPKc
cRe:_Dictionary_2_Do_ICollectionCopyTo_TisRuntimeObject_m4050345195_gshared
iEe:_Array_InternalArray__ICollection_Contains_TisResourceCacheItem_t333236149_m1769941464_gshared
EUi:_ContextMenu__ctor_m3931483141
$o:FUNCTION_TABLE_ff
bp:FUNCTION_TABLE_fi
MTd:_BaseEventData_set_selectedObject_m2198139983
Gz:__ZNSt3__227__insertion_sort_incompleteIRN11UnityEngine9Animation11BindingSortEPNS_4pairINS2_14GenericBindingEPNS2_10BoundIndexEEEEEbT0_SB_T_
iFd:__ZN6il2cpp2vm16GenericContainer19GetGenericParameterEPK22Il2CppGenericContainert
hhe:_Char_System_IConvertible_ToSingle_m2547558725_AdjustorThunk
Wlh:_GUILayoutEntry_ApplyOptions_m115321759
BAb:__ZN18StreamedBinaryReadILb0EE21TransferSTLStyleArrayINSt3__26vectorIN15ResourceManager10DependencyE13stl_allocatorIS5_L18MemLabelIdentifier51ELi16EEEEEEvRT_17TransferMetaFlags
zd:_emscripten_glGetAttribLocation
V4:__ZNSt3__26vectorINS_4pairIiiEE13stl_allocatorIS2_L18MemLabelIdentifier37ELi16EEE6insertENS_11__wrap_iterIPKS2_EERS8_
$Ta:__ZZ23InitPlayerLoopCallbacksvEN39PostLateUpdateResetInputAxisRegistrator7ForwardEv
qN:__ZN4FMOD12ChannelGroup14getParentGroupEPPS0_
C3f:_SslClientStream_add_ServerCertValidation_m684653638
Dd:_emscripten_set_blur_callback
asj:_TextGenerator_Invalidate_m3217235344
dVj:___cxa_pure_virtual__wrapper
nIa:__ZNK14ImageReference9ClipImageEiiii
U2a:__ZN10Matrix4x4f30SetPositionAndOrthoNormalBasisERK8Vector3fS2_S2_S2_
qhb:__ZN5RectTIfE8TransferI24GenerateTypeTreeTransferEEvRT_
lsd:__ZN6il2cpp6icalls8mscorlib6System4Enum8ToObjectEP20Il2CppReflectionTypeP12Il2CppObject
$af:_TableRange__ctor_m1944319286_AdjustorThunk
PYa:__ZN12FlareManager6UpdateEv
BVj:_glColorMask__wrapper
zYh:__ZL59_ConstructorInfo_t3269099341_CustomAttributesCacheGeneratorP21CustomAttributesCache
NIh:_Dictionary_2_ContainsKey_m1385349577_gshared
rjf:_X509CertificateEnumerator_MoveNext_m1031936092
wqa:__ZN6prcoreL17RemapGenericFloatI17TexFormatRGBFloat14TexFormatRHalfEEvPKNS_9InnerInfoE
R_f:_TlsStream__ctor_m2982031560
sag:_X509EnhancedKeyUsageExtension__ctor_m4050164330
jPb:__ZN18StreamedBinaryReadILb1EE8TransferI8Vector3fEEvRT_PKc17TransferMetaFlags
Kaj:_InternalEnumerator_1_get_Current_m2198364332_AdjustorThunk
Vsa:__ZN27GenericSlowGarbageCollector16ProcessReferenceEi
hkg:_RealProxy_InternalGetProxyType_m858618403
FBe:_FieldAccessException__ctor_m1240495912
Zlj:_Uri_HexUnescapeMultiByte_m25670899
K_d:_CanvasScaler_set_dynamicPixelsPerUnit_m742632820
ONj:_fopen
gAc:__ZN20TextRenderingPrivate8FontImplD2Ev
$Y:__ZN19CloudServiceHandler8SaveFileERKN4core12basic_stringIcNS0_20StringStorageDefaultIcEEEEPKvj
Vkd:__ZN6il2cpp2vm9Exception5RaiseEib
Ndg:_X509EnhancedKeyUsageExtension_CopyFrom_m1426370958
Ppc:__ZN9rapidjson13GenericReaderINS_4UTF8IcEES2_13JSONAllocatorE10ParseValueILj1ENS_25GenericInsituStringStreamIS2_EENS_15GenericDocumentIS2_S3_S3_EEEEvRT0_RT1_
vWj:_glFramebufferTexture2D__wrapper
nFd:__ZN6il2cpp6icalls8mscorlib6System7Runtime8Remoting7Proxies9RealProxy27InternalGetTransparentProxyEP12Il2CppObjectP12Il2CppString
lyf:_List_1_AddEnumerable_m1000825969_gshared
Dtd:__ZN6il2cpp2vm6Method10IsInflatedEPK10MethodInfo
Zwh:_ScriptPlayableOutput__ctor_m3107656159
Zyd:_GC_remove_header
nXe:_RegionInfo_GetHashCode_m1038358761
Drd:__ZN6il2cpp2vm6Object6IsInstEP12Il2CppObjectP11Il2CppClass
nT:__ZN17AudioClipPlayableC2E18DirectorPlayerType
q$i:_ConfigHandler_ReadCustomProviderData_m784203316
Oib:__ZNSt3__26vectorI17SortingLayerEntryNS_9allocatorIS1_EEE7reserveEj
N$f:_Context_set_MasterSecret_m1422386411
yMb:__Z19TransferField_ArrayI19StreamedBinaryWriteILb0EE27Converter_UnityEngineObjectEvRK23StaticTransferFieldInfoR31RuntimeSerializationCommandInfoRT0_
jYf:_RSAManaged_ToXmlString_m2606223477
fij:_CharacterClass__ctor_m1318163925
Y_g:__Z150RuntimeInvoker_Void_t1841601450_Vector3_t2243707580_Color32_t874517518_Vector2_t2243707579_Vector2_t2243707579_Vector3_t2243707580_Vector4_t2243707581PFvvEPK10MethodInfoPvPS4_
q8g:_AssemblyName_GetObjectData_m1221677827
uFa:__Z16GetMSAALevelDesc9MSAALevel
_bj:_InternalEnumerator_1_get_Current_m4196174237_AdjustorThunk
nWa:__ZN8Renderer27EnsureTransformInfoUpToDateEv
dca:__ZN15dense_hashtableINSt3__24pairIKN4core12basic_stringIcNS2_20StringStorageDefaultIcEEEEP11AssetBundleEES6_20StringHash32FunctionIS6_EN14dense_hash_mapIS6_S9_SC_NS0_8equal_toIS6_EENS0_9allocatorISA_EEE9SelectKeyESF_SH_E9copy_fromERKSK_j
f$j:_emscripten_glFrontFace__wrapper
AVi:_Display_GetRenderingExtImpl_m3739199112
Ma:invoke_fiffi
ADd:__ZN6il2cpp5utils6Memory6CallocEjj
n5:__ZN14SerializedFile14SerializedType8ReadTypeILb1EEEbibRPKhS3_Pi
qWj:_emscripten_glRenderbufferStorage__wrapper
Zmb:__ZN8Playable7SetTimeEd
f1:__ZN13RuntimeStaticI12GraphicsCapsLb0EE16StaticInitializeEPv
gva:__ZN9Texture3D17UploadToGfxDeviceEv
itc:__Z18Transfer_BlittableI8JSONReadLb1E8Vector4fEvRK29SerializationCommandArgumentsR31RuntimeSerializationCommandInfo
vDc:_tt_cmap2_validate
t2f:_HttpsClientStream_U3CHttpsClientStreamU3Em__1_m4293802471
oIc:_cff_cmap_unicode_done
vVe:_NumberFormatter_Init_m1515770916
vkj:_Literal_Compile_m3864266818
$$g:__Z72RuntimeInvoker_Boolean_t3825574718_CharU26_t1894467670_Int16_t4041245914PFvvEPK10MethodInfoPvPS4_
pgb:__ZN9Scripting20SendScriptingMessageER10GameObjectPKc18ScriptingObjectPtr
hga:__Z26IsSplashScreenFadeCompletev
xwb:__Z17SendMessageDirectR6ObjectRK17MessageIdentifierR11MessageData
Zc:_glGenSamplers
C8d:_InputField_LateUpdate_m1045279070
occ:__Z42Register_UnityEngine_Camera_get_clearFlagsv
p5c:__ZNSt3__26__treeIP11Il2CppClassNS_4lessIS2_EENS_9allocatorIS2_EEED2Ev
QHh:_Dictionary_2_InitArrays_m852496598_gshared
L6i:_InternalEnumerator_1_get_Current_m1389169756_gshared
Omh:_GUIScrollGroup_SetVertical_m3540700730
_sg:_StringBuilder_set_Chars_m1019094834
W5a:__ZN15LODGroupManager24UpdateLODGroupComponentsEv
gbb:__ZN13RenderManager27UpdatePreviousFrameMatricesEv
jge:_Byte_System_IConvertible_ToUInt64_m2667486567
e7:__Z22SetManagerPtrInContextiP6Object
Lzb:__ZN14PlayerSettings8TransferI19StreamedBinaryWriteILb0EEEEvRT_
Wsc:__Z18Transfer_BlittableI8JSONReadLb0E10ColorRGBAfEvRK29SerializationCommandArgumentsR31RuntimeSerializationCommandInfo
KJf:_Collection_1_Remove_m2017992820_gshared
LMe:_Array_InternalArray__Insert_TisInt16_t4041245914_m371511339_gshared
N9g:_ConstructorBuilder_get_next_table_index_m932085784
xGh:_ValueCollection_System_Collections_ICollection_get_SyncRoot_m919209341_gshared
A1c:__ZN15dense_hashtableINSt3__24pairIK10KeyWrapperIN6il2cpp5utils13dynamic_arrayIPK10Il2CppTypeLj4EEEEPFvvEEESA_NS3_8metadata19Il2CppSignatureHashEN14dense_hash_mapISA_SD_SG_NSA_14EqualsComparerINSF_22Il2CppSignatureCompareEEENS0_9allocatorISE_EEE9SelectKeyESK_SM_E14squash_deletedEv
OEi:_Slider_UpdateDrag_m1963963631
fpg:_SByte_Equals_m755715567
_9:__ZN15DirectorManagerD2Ev
ucd:__ZN15dense_hashtableINSt3__24pairIK10KeyWrapperINS1_IPK10MethodInfoP11Il2CppClassEEEjEES9_17ReflectionMapHashIS8_EN14dense_hash_mapIS9_jSD_NS9_14EqualsComparerINS0_8equal_toIS8_EEEENS0_9allocatorISB_EEE9SelectKeyESI_SK_E9copy_fromERKSN_j
aSc:__ZN11UnityEngine15PlatformWrapper12GetInfoFlagsEv
EUg:__Z87RuntimeInvoker_Void_t1841601450_Int32_t2071877448_Single_t2076509932_Single_t2076509932PFvvEPK10MethodInfoPvPS4_
End:__ZN6il2cpp6icalls8mscorlib6System13Globalization11CultureInfo45construct_internal_locale_from_current_localeEP17Il2CppCultureInfo
Eti:__ZL70InputField_t1631627530_CustomAttributesCacheGenerator_m_CaretBlinkRateP21CustomAttributesCache
OIe:_Array_IndexOf_TisCustomAttributeNamedArgument_t94157543_m2205974312_gshared
RIe:_Array_IndexOf_TisAnimatorClipInfo_t3905751349_m4033344779_gshared
RLa:__ZN15TextureTFMethod16BindForRenderingEj
DEe:_Array_InternalArray__ICollection_Contains_TisUICharInfo_t3056636800_m2001435744_gshared
eLh:_DefaultComparer_GetHashCode_m3250641461_gshared
Jeg:_Key_ToString_m1129871742
bde:_Array_Sort_m1417611156
fOj:_access
XHg:__Z59RuntimeInvoker_RuntimeObject_RuntimeObject_Int64_t909078037PFvvEPK10MethodInfoPvPS4_
Xnd:__ZN15dense_hashtableINSt3__24pairIK10KeyWrapperINS1_IPKcS4_EEEiEES6_24NamespaceAndNamePairHashN14dense_hash_mapIS6_iS9_NS6_14EqualsComparerI26NamespaceAndNamePairEqualsEENS0_9allocatorIS8_EEE9SelectKeyESD_SF_E4findERS7_
Flj:_Uri_Merge_m2181117222
Lxc:__ZN20TextRenderingPrivate8FontImpl13CharacterInfo8TransferI19StreamedBinaryWriteILb0EEEEvRT_
I3c:__ZN6il2cpp2os19SocketHandleWrapper7ReleaseEv
g1d:_DefaultControls_CreateRawImage_m2572997170
Ixg:_TimeSpan_get_TotalDays_m3496775483_AdjustorThunk
Syb:__ZNSt3__27__sort4IRNS_6__lessINS_4pairIPKN5Unity4TypeE7Hash128EES8_EEPS8_EEjT0_SC_SC_SC_T_
Jka:__ZNK11NamedObject22GetTypeVirtualInternalEv
rwg:_Thread_Start_m1419497481
CYg:__Z94RuntimeInvoker_Void_t1841601450_RuntimeObject_PlayableGraph_t1041204988_RuntimeObject_IntPtr_tPFvvEPK10MethodInfoPvPS4_
lSe:_Array_InternalArray__get_Item_TisDictionaryEntry_t3048875398_m2371191320_gshared
Hsi:__ZL62FontData_t2614388407_CustomAttributesCacheGenerator_m_RichTextP21CustomAttributesCache
bKg:__Z65RuntimeInvoker_Double_t4078015681_RuntimeObject_Int32_t2071877448PFvvEPK10MethodInfoPvPS4_
z4i:_InternalEnumerator_1_get_Current_m2351441486_gshared
AEh:_Enumerator_System_Collections_IEnumerator_Reset_m1146954164_AdjustorThunk
Wlc:__ZN11IMGUIModule21QueryGUIDisplayTargetE17ScriptingClassPtr
Uac:__ZN11UTF16StringC2ERKS_18MemLabelIdentifier
onh:_GUISkin_set_textField_m1154803040
D0c:__ZNSt3__27__sort4IRN6il2cpp5utils11collections13ArrayValueMapIPK10Il2CppType17Il2CppInteropData26InteropDataToTypeConverterNS1_8metadata14Il2CppTypeLessENSA_26Il2CppTypeEqualityComparerEE12SortComparerEPS8_EEjT0_SH_SH_SH_T_
oRj:dynCall_vidi
Hlh:_GUIStyle_GetRectOffsetPtr_m4223228888
LPf:_ReadOnlyCollection_1_System_Collections_IList_Remove_m2350545199_gshared
brh:_Input_get_mouseScrollDelta_m3430638853
$Qj:___udivdi3
UYb:__ZN11PlayerPrefs9SetStringERKN4core12basic_stringIcNS0_20StringStorageDefaultIcEEEES6_
PBd:__ZN6il2cpp6icalls8mscorlib6System8Delegate18SetMulticastInvokeEP14Il2CppDelegate
JLi:_AnimatorControllerPlayable_SetLayerWeight_m3897438650_AdjustorThunk
Bae:_LayoutGroup_get_minHeight_m2270010946
RTc:__ZNSt3__26__treeINS_12__value_typeIN4core12basic_stringIcNS2_20StringStorageDefaultIcEEEEN11UnityEngine7Connect19RemoteSettingsValueEEENS_19__map_value_compareIS6_SA_NS_4lessIS6_EELb1EEE13stl_allocatorISA_L18MemLabelIdentifier5ELi16EEE16__construct_nodeERKNS_4pairIKS6_S9_EE
aX:__ZN11UnityEngine15CloudWebService20WebRequestRestClient5BeginEv
yWf:_ARC4Managed_GenerateIV_m2815460576
EOd:_String_Substring_m2032624251
D2b:__ZN8Material12CleanupClassEv
Oue:_DateTime_get_DayOfWeek_m2345429939_AdjustorThunk
mzg:_Type_GetTypeCode_m1044483454
tYi:_ResourceSet_GetObjectInternal_m3556256510
dJb:__Z22TransferField_NonArrayI17RemapPPtrTransfer27Converter_SimpleNativeClassI10RectOffsetEEvRK23StaticTransferFieldInfoR31RuntimeSerializationCommandInfoRT0_
pqe:_DateTimeOffset__ctor_m2870721395
UO:__ZN20SoundChannelInstance11set3DSpreadEf
vz:__ZNSt3__26__sortIRN11UnityEngine9Animation11BindingSortEPNS_4pairINS2_14GenericBindingEPNS2_10BoundIndexEEEEEvT0_SB_T_
CRd:_String_ReplaceFallback_m64616664
Vhh:_MonoMethod_GetCustomAttributes_m2493833930
Dzb:__ZN24GenerateTypeTreeTransfer32TransferSTLStyleArrayWithElementI16SplashScreenLogoEEvRT_17TransferMetaFlags
Xad:__ZN15dense_hashtableINSt3__24pairIK10KeyWrapperINS1_IPK9FieldInfoP11Il2CppClassEEEjEES9_17ReflectionMapHashIS8_EN14dense_hash_mapIS9_jSD_NS9_14EqualsComparerINS0_8equal_toIS8_EEEENS0_9allocatorISB_EEE9SelectKeyESI_SK_E6insertERKSB_
YZe:_Int32_System_IConvertible_ToDouble_m3322226667_AdjustorThunk
hMe:_Array_InternalArray__ICollection_CopyTo_TisPlayableBinding_t2498078091_m2296273826_gshared
ZQj:_memmove
pyd:_GC_log_printf
dUf:_Comparison_1_BeginInvoke_m4224593217_gshared
Apg:_CodeAccessPermission_ToString_m3345031296
Grd:__ZN6il2cpp2vm6Object5UnboxEP12Il2CppObject
M7f:_FtpWebRequest__ctor_m3003551676
Kbc:__Z52Register_UnityEngine_ScriptableObject_CreateInstancev
xhf:_EncryptedPrivateKeyInfo__ctor_m832236482
z$:__ZN23DefaultMeshVertexFormatC2E17ShaderChannelMask
SNb:__ZL26Transfer_SimpleNativeClassI18StreamedBinaryReadILb1EE8GradientLb1EEvRK29SerializationCommandArgumentsR31RuntimeSerializationCommandInfo
MPd:_Single_Equals_m3359827399
bwg:_Thread_FreeLocalSlotValues_m2948667652
Wbb:__ZNSt3__26vectorINS_4pairIN4core12basic_stringIcNS2_20StringStorageDefaultIcEEEES6_EE13stl_allocatorIS7_L18MemLabelIdentifier37ELi16EEE12__move_rangeEPS7_SC_SC_
cFa:__ZN7ApiGLES10InvalidateERK14GfxContextGLES
Rxj:_InvokableCall_2_Invoke_m1071013389_gshared
eff:_ASN1Convert_ToOid_m2695991795
EKc:_UNITY_FT_Init_Class_tt_service_truetype_glyf
WDd:__ZN6il2cpp2os5Mutex7TryLockEjb
A$:__Z20IsVectorBuiltinParamPKcPi
drd:__ZN6il2cpp2vm5Field8GetFlagsEP9FieldInfo
qvh:_PlayableGraph_INTERNAL_CALL_CreatePlayableHandleInternal_m1089209954
Y9i:_InternalEnumerator_1_get_Current_m727737343_AdjustorThunk
kkd:__ZN6il2cpp6icalls8mscorlib6System10ReflectionL16LoadResourceFileEP24Il2CppReflectionAssembly
R4:__Z13IsFileCreatedRKN4core12basic_stringIcNS_20StringStorageDefaultIcEEEE
XCd:__ZN6il2cpp6icalls8mscorlib6System21CurrentSystemTimeZone15GetTimeZoneDataEiPP11Il2CppArrayS6_
cqb:__ZN16LightmapSettings18TransferDeprecatedI14SafeBinaryReadEEvRT_
Qqd:__ZN15dense_hashtableINSt3__24pairIK10KeyWrapperIP12Il2CppObjectEN6il2cpp2gc9CachedCCWEEES5_NS7_5utils11PointerHashIS3_EEN14dense_hash_mapIS5_S9_SD_NS5_14EqualsComparerINS0_8equal_toIS4_EEEENS0_9allocatorISA_EEE9SelectKeyESI_SK_E5eraseE30dense_hashtable_const_iteratorISA_S5_SD_SM_SI_SK_E
X2:__ZN15dense_hashtableINSt3__24pairIKiP6ObjectEEi21InstanceIDHashFunctorN14dense_hash_mapIiS4_S6_NS0_8equal_toIiEE13stl_allocatorIS5_L18MemLabelIdentifier65ELi16EEE9SelectKeyES9_SC_E12maybe_shrinkEv
eQd:_String__cctor_m710226597
wej:_DefaultComparer_Compare_m3953592365_gshared
nLf:_Collection_1_IsValidItem_m404831699_gshared
iyg:_TimeSpan_Negate_m4198463235_AdjustorThunk
rkb:__ZN12FlareManager9AddCameraER6Camera
KP:__ZN11AudioSource8TransferI14SafeBinaryReadEEvRT_
N6b:__ZN4Mesh17SetIndicesComplexEPKvjj16GfxPrimitiveTypei
ejh:_ParameterInfo_GetCustomAttributes_m2985072480
HJf:_Collection_1_Insert_m4010554762_gshared
Lu:__ZN7mecanim9animation23TransformDeltasFromClipEiiiRKNS0_18ClipMuscleConstantERKNS0_12ClipBindingsERKNS_14ValueArrayMaskERN4math4trsXESC_SC_
KPe:_Array_Sort_TisRuntimeObject_m1954851512_gshared
fRj:___divdi3
Ksh:_Matrix4x4_GetColumn_m1367096730_AdjustorThunk
N0i:_ContextAttribute_GetHashCode_m3646968314
Ybf:_SimpleCollator_GetSortKey_m540875593
$Vb:__ZN9ShaderLab9IntShader26CreateFromSerializedShaderERKNS_16SerializedShaderERNSt3__26vectorI4PPtrI6ShaderENS4_9allocatorIS8_EEEEbPS7_
RWa:__ZN19ShaderPropertySheet16SetComputeBufferEN9ShaderLab16FastPropertyNameE15ComputeBufferIDNS_8SetFlagsE
rvd:__ZNK15dense_hashtableINSt3__24pairIK10KeyWrapperIPK19Il2CppGenericMethodEP10MethodInfoEES6_N6il2cpp8metadata23Il2CppGenericMethodHashEN14dense_hash_mapIS6_S9_SD_NS6_14EqualsComparerINSC_26Il2CppGenericMethodCompareEEENS0_9allocatorISA_EEE9SelectKeyESH_SJ_E5beginEv
Pu:__ZN7mecanim21CreateFloatValueArrayEPKNS_18ValueArrayConstantERNS_6memory9AllocatorE
ewg:_Thread_GetCachedCurrentCulture_m450033007
m6a:__ZL12CullGroupJobP20CullingGroupsJobDataj
vzd:_GC_remove_dangling_disappearing_links
QX:__ZN11UnityEngine15CloudWebService14RestDownloader9IsAbortedEv
Wx:__ZN7mecanim12statemachine28DestroyStateMachineWorkspaceEPNS0_21StateMachineWorkspaceERNS_6memory9AllocatorE
Pk:_emscripten_glNormalPointer
Anc:__Z30GUIStyle_CUSTOM_SetDefaultFontP12Il2CppObject
Ufg:_Interval_t2354235237_marshal_pinvoke_back
qo:FUNCTION_TABLE_f
ep:FUNCTION_TABLE_i
Nxe:_Decimal_ToString_m541380585_AdjustorThunk
Kba:__ZN11TypeManager12RegisterTypeERK20TypeRegistrationDesc
Gn:FUNCTION_TABLE_v
Evb:__ZNSt3__26vectorI17BlendShapeChannelNS_9allocatorIS1_EEE8__appendEj
U5d:_Image_get_preserveAspect_m2161836851
pq:__ZN18StreamedBinaryReadILb0EE21TransferSTLStyleArrayI13dynamic_arrayI8Vector3fLj4EEEEvRT_17TransferMetaFlags
fUa:__ZZ23InitPlayerLoopCallbacksvEN43PostLateUpdateUpdateAllRenderersRegistrator7ForwardEv
iua:__ZN21LightProbeProxyVolume13GetRenderDataER27LightProbeProxyVolumeSample
Wte:_CurrentSystemTimeZone_GetDaylightChanges_m2777828412
G6c:__ZN6il2cpp2vm7Runtime30CallUnhandledExceptionDelegateEP12Il2CppDomainP14Il2CppDelegateP15Il2CppException
WLj:_Predicate_1_Invoke_m577088274_gshared
okg:_RemotingProxy_get_TypeName_m1400928020
yyb:__ZN11TimeManager8TransferI24GenerateTypeTreeTransferEEvRT_
bcf:_SortKeyBuffer_GetResult_m962852575
Kbf:_SimpleCollator_Category_m1504096908
HJj:_DisplayBuffer_Wrap_m137575239
hr:__ZNK11UnityEngine9Animation28GenericAnimationBindingCache10BindCustomERKNS0_14GenericBindingER9TransformRNS0_10BoundCurveE
o9c:__ZN6il2cpp2vm17TypeNameParseInfoC2ERKS1_
TTc:__ZN18UnityConnectClient17InitConnectClientEv
y3i:_ArrayReadOnlyList_1_ReadOnlyError_m2158247090_gshared
BMj:_memcmp
eve:_DateTime_CompareTo_m3372173896
Uyh:_Rect_ToString_m2728794442
Fsa:__ZN9Scripting32GetCachedPtrFromScriptingWrapperE18ScriptingObjectPtr
RNc:__ZN2UI29ScheduleUIJobsForInstructionsERNS_7BatchesEjPKNS_13UIInstructionEfjjPNS_13CanvasJobDataE
fN:__ZN5audio5mixer22CreateAudioMixerMemoryERKNS0_18AudioMixerConstantEPN4FMOD6SystemERN7mecanim6memory9AllocatorEib
GCb:__ZL65EmitSerializationCommandsForLinearCollectionOfManagedObjectsFieldRK31TransferFunctionScriptingTraitsRK23TransferArrayField_InfoR20SerializationCommandR32SerializationCommandQueueBuilderRP20AllowNameConversions
l3f:_RSASslSignatureDeformatter_VerifySignature_m3138484348
GLe:_Array_InternalArray__ICollection_CopyTo_TisDecimal_t724701077_m1087621311_gshared
mCh:_Enumerator_System_Collections_IDictionaryEnumerator_get_Value_m2325383168_AdjustorThunk
okd:__ZNSt3__26vectorIN6il2cpp2vm22EmbeddedResourceRecordENS_9allocatorIS3_EEE21__push_back_slow_pathIS3_EEvOT_
wfc:__Z28Mesh_CUSTOM_SetTrianglesImplP12Il2CppObjectiP11Il2CppArrayih
kui:__ZL61RawImage_t2749640213_CustomAttributesCacheGenerator_m_TextureP21CustomAttributesCache
Wya:__ZL20ShaderWarmupFuncImplP6ShaderiPN9ShaderLab4PassERK16ShaderKeywordSetP10DynamicVBOPvR17ShaderPassContext
IGd:_HMAC_set_Key_m1530357889
Irj:_Vector2_get_zero_m3966848876
R1b:__ZNK32RendererMaterialAnimationBinding13SetFloatValueERKN11UnityEngine9Animation10BoundCurveEf
nad:__ZN15dense_hashtableINSt3__24pairIK10KeyWrapperINS1_IPK14Il2CppAssemblyP11Il2CppClassEEEjEES9_17ReflectionMapHashIS8_EN14dense_hash_mapIS9_jSD_NS9_14EqualsComparerINS0_8equal_toIS8_EEEENS0_9allocatorISB_EEE9SelectKeyESI_SK_E3endEv
qTj:dynCall_iiii
EAi:_Scrollbar_set_numberOfSteps_m579707524
LMj:_fmt_u
WFa:__ZN14DataBufferGLES12RecordUpdateEv
HXi:_ResourceManager__cctor_m2190112652
Zyc:__ZN20TextRenderingPrivate15DynamicFontData28GetFaceForFontRefFromOSFontsERKNS_7FontRefE
Wfc:__Z34MonoBehaviour_CUSTOM_StopCoroutineP12Il2CppObjectP12Il2CppString
tVa:__ZN10systeminfo19IsPlatformWebPlayerE15RuntimePlatform
Ird:__ZN6il2cpp2vm12GenericClass12SetupMethodsEP11Il2CppClass
Vea:__ZNK20LocalFileSystemPosix18GetApplicationPathEv
fKj:_InputBuffer_ReceiveFrameInput_m576052007
Sqe:_Decimal__ctor_m3876694886
CCb:__ZN9Scripting30IsSystemCollectionsGenericListE17ScriptingClassPtr
aEe:_Array_InternalArray__ICollection_Contains_TisIntPtr_t_m3256777387_gshared
Ode:_AttributeUsageAttribute__ctor_m2873156923
hOc:__ZN2UI23InitializeCanvasManagerEv
n9a:__ZN10GameObject16CheckConsistencyEv
B0b:__ZN14RenderSettings15InitializeClassEv
_9f:_AsnEncodedData_set_Oid_m3568255745
Zdc:__Z46Register_UnityEngine_GameObject_get_activeSelfv
$3f:_SslClientStream_OnRemoteCertificateValidation2_m3416857045
Aog:_RuntimeTypeHandle_Equals_m452760426_AdjustorThunk
ORi:_Camera_get_depth_m1329692468
L0b:__ZL19OnLightProbesUpdatev
Odj:_InternalEnumerator_1_System_Collections_IEnumerator_get_Current_m762846484_AdjustorThunk
rNc:__ZN2UI16GetCanvasManagerEv
Alc:__ZNK8GUIStyle20GetCursorStringIndexERK5RectTIfER10GUIContentRK8Vector2f
k7b:__ZN15GUIEventManager8PopEventER10InputEvent
fdc:__Z31RectOffset_Get_Custom_PropRightP12Il2CppObject
ELc:__Z54Register_UnityEngine_TextGenerator_GetVerticesInternalv
cId:__Z3BoxP11Il2CppClassPv
ZCe:_CultureInfo_Clone_m2970753766
nfg:_IntStack_Push_m1259764820
WLa:__ZN21UniformBufferTFMethodD2Ev
_1e:_FileStream_InitBuffer_m2153931481
Rzg:_Type_MakeGenericType_m2765875033
p9b:__ZL34GetComponentsImplementationRecurseILb1ELi1ELi2EEbR10GameObjectbRK17CompareParametersRK39GetComponentsImplementation_ReturnValue
tpa:__ZN6prcoreL12RemapGenericI15TexFormatRGB56515TexFormatRGB888EEvPKNS_9InnerInfoE
kCd:__ZN6il2cpp5utils10MemoryPool9AddRegionEj
$dd:__ZN15dense_hashtableINSt3__24pairIK10KeyWrapperINS1_IPK9EventInfoP11Il2CppClassEEEjEES9_17ReflectionMapHashIS8_EN14dense_hash_mapIS9_jSD_NS9_14EqualsComparerINS0_8equal_toIS8_EEEENS0_9allocatorISB_EEE9SelectKeyESI_SK_E15insert_noresizeERKSB_
uPc:__Z41CanvasGroup_Get_Custom_PropBlocksRaycastsP12Il2CppObject
jWa:__ZN22RenderingCommandBuffer20CleanupCommandBufferEv
uSb:__ZNSt3__26vectorIN9ShaderLab26SerializedShaderDependencyENS_9allocatorIS2_EEE8__appendEj
i8i:_InternalEnumerator_1_System_Collections_IEnumerator_get_Current_m4242639349_gshared
D6:__ZN32TransformHierarchyChangeDispatch26DispatchSelfAndAllChildrenE15TransformAccessNS_12InterestTypeE
fsg:_UTF32Encoding__ctor_m3199945978
i8:__ZN13RuntimeStaticI22VirtualJoystickManagerLb0EE13StaticDestroyEPv
aK:__ZN13AudioListener12ApplyFiltersEv
rTi:_CanvasRenderer_set_cull_m1437892490
iNi:_AnimatorControllerPlayable_PlayInFixedTime_m3726932292_AdjustorThunk
wXe:_SortKey_GetHashCode_m2534654444
$De:_Array_InternalArray__ICollection_Contains_TisInt64_t909078037_m1425723755_gshared
N0f:_HandshakeMessage_Update_m1733566706
nTj:dynCall_viiif
SDd:__ZN6il2cpp8metadata27Il2CppGenericContextCompare7CompareEPK20Il2CppGenericContextS4_
sSj:dynCall_viiii
uje:_ArrayListWrapper_ToArray_m235921330
tWf:_ARC4Managed_set_Key_m663161993
Nfh:_MemberInfoSerializationHolder_Serialize_m4243060728
Jyi:_MaskableGraphic_OnDisable_m2605143092
s9c:__ZNSt3__214__split_bufferIN6il2cpp2vm17TypeNameParseInfoERNS_9allocatorIS3_EEED2Ev
Izg:_Type_GetConstructor_m663514781
W_e:_Int64_System_IConvertible_ToDouble_m638786774_AdjustorThunk
rXg:__Z98RuntimeInvoker_Void_t1841601450_Rect_t3681755626_RuntimeObject_Int32_t2071877448_Int32_t2071877448PFvvEPK10MethodInfoPvPS4_
_aa:__ZN15DirectorManager14ConnectionPool16GrowEmptyBucketsEv
EZe:_Int16_ToString_m1247017262
J2:__ZN17PersistentManager32CopyToAwakeFromLoadQueueInternalER18AwakeFromLoadQueue
uye:_Delegate_Combine_m1976351882
z$a:__ZNK6Camera16SetActiveVRUsageEv
BBg:_UInt32_System_IConvertible_ToUInt16_m2798641702
JWj:_emscripten_glDrawElementsInstanced__wrapper
fU:__ZN13PlayableGraph12CreateOutputI19AudioPlayableOutputEEPT_PKc
ysj:_Texture_Internal_GetWidth_m56137242
wtc:__ZL26Transfer_SimpleNativeClassI8JSONRead8GradientLb1EEvRK29SerializationCommandArgumentsR31RuntimeSerializationCommandInfo
dNj:_open
Yqe:_Decimal_ThrowInvalidExp_m3430267638
Tic:__Z35Transform_Get_Custom_PropChildCountP12Il2CppObject
nbb:__Z30GetPlayerShouldRunInBackgroundv
pT:__ZNK17AudioClipPlayable13GetStartDelayEv
Ddj:_InternalEnumerator_1_get_Current_m2986222582_gshared
yDg:_UnitySerializationHolder__ctor_m2832165173
Btg:_UnicodeEncoding_GetBytes_m4175529985
DOc:__Z13RegisterClassIN2UI6CanvasEEvv
PAi:_Selectable_OnDisable_m2660228016
npa:__ZN6prcoreL12RemapGenericI11TexFormatI815TexFormatRGB565EEvPKNS_9InnerInfoE
O$:__ZN13RuntimeStaticINSt3__23setI19RepeatingLogMessageNS0_4lessIS2_EE13stl_allocatorIS2_L18MemLabelIdentifier71ELi16EEEELb0EE13StaticDestroyEPv
sPg:__Z75RuntimeInvoker_DateTime_t693205669_DateTime_t693205669_TimeSpan_t3430258949PFvvEPK10MethodInfoPvPS4_
Zza:__ZNK13TranslateGLES17FramebufferTargetEN2gl17FramebufferTargetE
kud:__ZL11on_gc_event11GCEventType
nid:__ZNSt3__214__split_bufferIN6il2cpp8metadata18GenericArrayMethodERNS_9allocatorIS3_EEED2Ev
aPd:_Single_System_IConvertible_ToBoolean_m2661548087_AdjustorThunk
arg:_DSASignatureDeformatter_VerifySignature_m4078616251
vVj:b62
uVj:b61
tVj:b60
LWj:b67
JJe:_Array_InternalArray__IndexOf_TisUInt16_t986882611_m390127593_gshared
W6d:_InputField_set_shouldHideMobileInput_m2478534110
xVj:b64
ORd:_String_Concat_m3881798623
OWj:b68
sch:_FieldBuilder_IsDefined_m2730324893
L4h:__ZL56FlagsAttribute_t859561169_CustomAttributesCacheGeneratorP21CustomAttributesCache
ESg:__Z102RuntimeInvoker_RuntimeObject_RuntimeObject_RuntimeObject_Int32_t2071877448_RuntimeObject_RuntimeObjectPFvvEPK10MethodInfoPvPS4_
ILi:_AnimatorControllerPlayable_SetLayerWeight_m3897438650
aTf:_ReadOnlyCollection_1_System_Collections_IList_Insert_m571902768_gshared
JNg:__Z93RuntimeInvoker_Single_t2076509932_SingleU26_t4173844468_Single_t2076509932_Single_t2076509932PFvvEPK10MethodInfoPvPS4_
uSj:dynCall_iifffi
B7b:__Z9SetIIMGUIP6IIMGUI
Cne:_SyncHashtable_ContainsKey_m3408601214
NDc:_tt_cmap10_get_info
Oga:__Z28SetupPixelCorrectCoordinatesi
y5b:__ZNSt3__218__insertion_sort_3IRN10vector_mapIiiNS_4lessIiEE13stl_allocatorINS_4pairIiiEEL18MemLabelIdentifier1ELi16EEE13value_compareEPS6_EEvT0_SD_T_
zFa:__Z5SplitRKN4core12basic_stringIcNS_20StringStorageDefaultIcEEEEcRNSt3__26vectorIS3_NS6_9allocatorIS3_EEEEi
Skj:_RegularExpression_Compile_m3944989565
RLb:__Z18Transfer_BlittableI19StreamedBinaryWriteILb0EELb0E10Matrix4x4fEvRK29SerializationCommandArgumentsR31RuntimeSerializationCommandInfo
X5a:__ZN15LODGroupManager26CollectAllLODGroupManagersEPK6CameraR13dynamic_arrayIPS_Lj4EEb
YKh:_DefaultComparer_Equals_m524689061_gshared
J4b:__ZN13PlayableGraph16DestroyRecursiveEP8Playable
hze:_Double_System_IConvertible_ToType_m4036266196_AdjustorThunk
hK:__ZN12AudioManagerD0Ev
JMj:___fwritex
_b:invoke_viiififii
leg:_Capture__ctor_m885749277
W2e:_Stream_EndRead_m2148943753
FAb:__ZNK22GenericPropertyBinding13SetFloatValueERKN11UnityEngine9Animation10BoundCurveEf
s0b:__ZN6ShaderC2E18MemLabelIdentifier18ObjectCreationMode
hIi:_AnimationClipPlayable_INTERNAL_CALL_SetRemoveStartOffsetInternal_m4218625892
WAc:_raccess_guess_darwin_ufs_export
kZf:_CipherSuite_get_ExpandedKeyMaterialSize_m296573450
yTa:__ZN11TypeManager18InitializeAllTypesEv
rI:__ZN9AudioClipD0Ev
cAh:_Renderer_get_sortingOrder_m1544525007
b7c:_il2cpp_class_from_name
VEe:_Array_InternalArray__ICollection_Remove_TisKeyValuePair_2_t38854645_m3060436673_gshared
zv:__ZN17AnimationPlayable16AllocateBindingsEPK35AnimationPlayableEvaluationConstant
Euf:_List_1_Find_m3480386930_gshared
KMh:_EqualityComparer_1__cctor_m51007461_gshared
vw:__ZN27AnimationLayerMixerPlayable26ProcessAnimationLayerBeginEP35AnimationPlayableEvaluationConstantP32AnimationPlayableEvaluationInputP33AnimationPlayableEvaluationOutput
G8:__Z26GetMeshVertexFormatManagerv
XZb:__Z13RegisterClassI8GUILayerEvv
Ofb:__ZN25ThreadsafeLinearAllocatorC2EiiPKc
wcf:_SimpleCollator_IsSuffix_m740049399
RJa:__ZN14GfxContextGLES11MakeCurrentER7ApiGLESN2gl13ContextHandleE
wnj:_PKCS12__cctor_m3312759338
mJc:_UNITY_tt_glyphzone_new
X_f:_RecordProtocol_BeginSendRecord_m166940611
G8e:_ShortComparer_Compare_m1398180168
_pj:_Screen_get_width_m41137238
xuh:_Object_Internal_InstantiateSingleWithParent_m509082884
Pya:__ZN16GraphicsSettings22WarmupPreloadedShadersEv
HQc:__Z34Canvas_Set_Custom_PropSortingOrderP12Il2CppObjecti
h4e:_MonoIO_get_ConsoleError_m592181393
w3f:_SslCipherSuite_prf_m2084589217
db:invoke_iiiiiiffiiiiiiiiiffffiii
dMc:__ZN2UI6Canvas8TransferI14SafeBinaryReadEEvRT_
KUi:_Coroutine_Finalize_m3953619693
cYg:__Z51RuntimeInvoker_Color32_t874517518_Color_t2020392075PFvvEPK10MethodInfoPvPS4_
Uuj:_Vector2_op_Division_m96580069
xbd:__ZN6il2cpp2gc19AppendOnlyGCHashMapIPK10Il2CppTypeP20Il2CppReflectionTypeNS_8metadata14Il2CppTypeHashENS7_26Il2CppTypeEqualityComparerEE3AddERKS4_S6_
WU:__ZN11UnityEngine15CloudWebService17CloudJobScheduler11ScheduleJobEPFvPvES2_
ppi:__ZL57CSSMeasureFunc_t2092170507_CustomAttributesCacheGeneratorP21CustomAttributesCache
lYe:_Guid_Equals_m2389236871_AdjustorThunk
dW:__ZN11UnityEngine15CloudWebService17CloudServiceEvent12ToJsonStringER9JSONWrite
I8:__ZNK18VertexChannelsInfoltERKS_
U0h:__ZL93ASCIIEncoding_t3022927988_CustomAttributesCacheGenerator_ASCIIEncoding_GetDecoder_m3693600923P21CustomAttributesCache
f8b:__Z18SetTargetFrameRatei
mpc:__ZN9JSONWrite8TransferIfEEvRT_PKc17TransferMetaFlags
a0d:_ContentSizeFitter_SetLayoutHorizontal_m2830034151
VQa:__ZN10MemoryFileD0Ev
a5b:__ZN10MonoScript27InitializeAndRegisterScriptERKN4core12basic_stringIcNS0_20StringStorageDefaultIcEEEES6_S6_S6_b
nqg:_DES_set_Key_m2689203108
b5i:_InternalEnumerator_1_get_Current_m1526874475_gshared
fTe:_Array_InternalArray__get_Item_TisWorkRequest_t1154022482_m2456727038_gshared
Omj:_SubjectAltNameExtension_ToString_m1300810903
Xhf:_RSAManaged_ImportParameters_m2382611442
dGb:__ZN13GUIStyleState8TransferI14SafeBinaryReadEEvRT_
Ygj:_PatternCompiler_EmitSet_m866698437
Ud:_glDrawArrays
YNf:_ReadOnlyCollection_1_System_Collections_IList_Add_m527174473_gshared
y7i:_InternalEnumerator_1_System_Collections_IEnumerator_get_Current_m127456009_AdjustorThunk
IEj:_HashSet_1_System_Collections_Generic_ICollectionU3CTU3E_CopyTo_m1933244740_gshared
x1h:__ZL54UTF8Encoding_t111055448_CustomAttributesCacheGeneratorP21CustomAttributesCache
CD:__ZN23AnimatedPropertyBuilder5BuildEP13AnimationClip18ScriptingObjectPtr
f6b:__Z17InstantiateObjectR6ObjectR9TransformRK8Vector3fRK11Quaternionf
B_e:_Int32_TryParse_m656840904
OEe:_Array_InternalArray__ICollection_Remove_TisChar_t3454481338_m1562002771_gshared
S_e:_Int64_System_IConvertible_ToDateTime_m1002280174_AdjustorThunk
Tvb:__ZN14BlendShapeData8TransferI18StreamedBinaryReadILb0EEEEvRT_
tXa:__ZN13sorted_vectorINSt3__24pairIiN17InstancedPropInfo12PropertyTypeEEEN10vector_mapIiS3_NS0_4lessIiEE13stl_allocatorIS4_L18MemLabelIdentifier1ELi16EEE13value_compareESA_E21sort_clear_duplicatesEv
AJc:_Round_To_Grid
fzc:_UNITY_FT_Stream_Close
Cca:__ZL20FormatOrderedProcessPKcP17FormatOrderedDataPc
Bvc:__ZN9rapidjson6WriterI16TempBufferWriterNS_4UTF8IcEES3_13JSONAllocatorE9WriteBoolEb
Tcc:__Z35DebugLogHandler_CUSTOM_Internal_Log7LogTypeP12Il2CppStringP12Il2CppObject
IWj:_emscripten_glShaderBinary__wrapper
VIa:__ZL17ProgramUniform3ivPK7ApiGLESjiihPKv
UBa:__ZN9GfxDevice25GetBackBufferColorSurfaceEv
lRa:__ZN25SingleBlockMemoryFileData9SetLengthEy
K5b:__Z29AwakeAndActivateClonedObjectsPP6ObjectRK10vector_mapIiiNSt3__24lessIiEE13stl_allocatorINS3_4pairIiiEEL18MemLabelIdentifier1ELi16EEE
hgd:__ZN15dense_hashtableINSt3__24pairIK10KeyWrapperINS1_IPK10MethodInfoP11Il2CppClassEEEjEES9_17ReflectionMapHashIS8_EN14dense_hash_mapIS9_jSD_NS9_14EqualsComparerINS0_8equal_toIS8_EEEENS0_9allocatorISB_EEE9SelectKeyESI_SK_E14squash_deletedEv
WYg:__Z55RuntimeInvoker_Void_t1841601450_RaycastResult_t21186376PFvvEPK10MethodInfoPvPS4_
m_b:__Z13RegisterClassI6ShaderEvv
dZe:_Int16_System_IConvertible_ToUInt32_m883204517
$Xi:_ResourceCacheItem_t333236149_marshal_pinvoke_cleanup
Rqf:_List_1_CheckMatch_m1196994270_gshared
$$:__ZN13RuntimeStaticI11WindManagerLb0EE13StaticDestroyEPv
zte:_Convert_ToUInt64_m3559662221
brc:__Z18Transfer_BlittableI9JSONWriteLb1EaEvRK29SerializationCommandArgumentsR31RuntimeSerializationCommandInfo
cgd:__ZN13Il2CppHashMapINSt3__24pairIPK10MethodInfoP11Il2CppClassEEj17ReflectionMapHashIS7_ENS0_8equal_toIS7_EENS0_9allocatorINS1_IK10KeyWrapperIS7_EjEEEEEC2EjRKS9_RKSB_
jie:_ArrayList_set_Item_m1858827078
Vua:__ZN9Texture3D23VirtualRedirectTransferER19StreamedBinaryWriteILb0EE
HWf:_HMAC__ctor_m2605930831
KR:__Z13RegisterClassI10SampleClipEvv
coj:_X509Certificate_set_RSA_m1038416652
v2a:__ZNK23ForwardShaderRenderLoop18RenderObjectSorterILb1EEclERK21ForwardRenderPassDataS4_
RT:__Z76Register_UnityEngine_Audio_AudioClipPlayable_INTERNAL_CALL_GetLoopedInternalv
W1c:__ZN15dense_hashtableI10KeyWrapperIPK19Il2CppGenericMethodES4_N6il2cpp8metadata23Il2CppGenericMethodHashEN14dense_hash_setIS4_S7_NS4_14EqualsComparerINS6_26Il2CppGenericMethodCompareEEENSt3__29allocatorIS4_EEE8IdentityESB_SE_E12maybe_shrinkEv
LMa:__ZN10BufferGLES10BeginWriteEjj
V1c:__ZNK15dense_hashtableI10KeyWrapperIPK19Il2CppGenericMethodES4_N6il2cpp8metadata23Il2CppGenericMethodHashEN14dense_hash_setIS4_S7_NS4_14EqualsComparerINS6_26Il2CppGenericMethodCompareEEENSt3__29allocatorIS4_EEE8IdentityESB_SE_E12test_deletedEj
NA:__ZN7mecanim12statemachine18StateMachineMemory8TransferI9BlobWriteEEvRT_
$Tb:__ZN9ShaderLab20SerializedSubProgramaSERKS0_
_Bg:_UInt64_System_IConvertible_ToByte_m953298241
KMa:__ZN7ApiGLES11FlushBufferEjN2gl12BufferTargetEll
Ite:_Convert_ToUInt64_m1896191125
YGb:__ZN14SafeBinaryRead21TransferSTLStyleArrayI13dynamic_arrayI8BitFieldLj4EEEEvRT_17TransferMetaFlags
gKa:__ZN12_GLOBAL__N_127PrepareReadback_ResolveMSAAER18GfxFramebufferGLESR7ApiGLESP17RenderSurfaceGLESS5_
Abh:_EnumBuilder_GetAttributeFlagsImpl_m4263246832
j9g:_CustomAttributeData_GetHashCode_m3989739430
VFi:_Text_AssignDefaultFont_m1295571657
f2b:__ZNK24RendererAnimationBinding9BindValueER6ObjectRKN11UnityEngine9Animation14GenericBindingERNS3_10BoundCurveE
Te:_glBindBuffer
PQb:__ZN8GUIStyle8TransferI18StreamedBinaryReadILb0EEEEvRT_
o9:__ZNSt3__213__stable_sortIRN10vector_mapIijNS_4lessIiEENS_9allocatorINS_4pairIijEEEEE13value_compareENS_11__wrap_iterIPS6_EEEEvT0_SE_T_NS_15iterator_traitsISE_E15difference_typeEPNSH_10value_typeEi
yOi:_Application_get_platform_m3989224144
KKe:_Array_InternalArray__ICollection_Add_TisCustomAttributeNamedArgument_t94157543_m1003067274_gshared
Jgc:__ZN13PlayableGraph12CreateOutputI20ScriptPlayableOutputEEPT_PKc
DXb:__ZNSt3__218__insertion_sort_3IRNS_6__lessIN4core12basic_stringIcNS2_20StringStorageDefaultIcEEEES6_EEPS6_EEvT0_SA_T_
sof:_Enumerator_System_Collections_IEnumerator_Reset_m925111644_gshared
xta:__ZN18LoadSceneOperation13CleanupMemoryEv
oMj:_isupper
pTg:__Z93RuntimeInvoker_Vector3_t2243707580_Vector3_t2243707580_Vector3_t2243707580_Single_t2076509932PFvvEPK10MethodInfoPvPS4_
lZg:__Z57RuntimeInvoker_Boolean_t3825574718_ColorBlock_t2652774230PFvvEPK10MethodInfoPvPS4_
Drg:_Encoding_set_DecoderFallback_m2255528738
$ma:__ZNSt3__26__treeINS_12__value_typeIN9ShaderLab16FastPropertyNameEN18UnityPropertySheet11UnityTexEnvEEENS_19__map_value_compareIS3_S6_NS_4lessIS3_EELb1EEENS_9allocatorIS6_EEE7destroyEPNS_11__tree_nodeIS6_PvEE
C4f:_InternalAsyncResult_get_IsCompleted_m1463732458
f3c:__ZN6il2cpp2vm13MetadataCache24GetExportedTypeFromIndexEi
QQ:__ZN18AudioMixerPlayable18InsertFMODResourceEPN4FMOD6SystemE
UOj:_getuid
w5d:_HorizontalLayoutGroup_CalculateLayoutInputVertical_m3516192138
gE:__ZN7mecanim5human8BoneNameEj
B_b:__Z13RegisterClassI10MonoScriptEvv
Ygf:_AttrListImpl__ctor_m3211398293
HB:__ZN13dynamic_arrayIN8Animator11AnimatorJobELj4EE9push_backERKS1_
Fxc:__ZN20TextRenderingPrivate8FontImpl8TransferI18StreamedBinaryReadILb0EEEEvRT_
Zsg:_StringBuilder_get_Chars_m256627635
rvg:_EventWaitHandle_Set_m2975776670
M4c:__ZN6il2cpp6icalls8mscorlib6System8MonoType22get_IsGenericParameterEP20Il2CppReflectionType
au:__ZN7mecanim5human14HumanPoseClearERNS0_9HumanPoseE
g1e:_MonoIO_GetException_m957022672
Ina:__ZN18StreamedBinaryReadILb0EE19TransferSTLStyleMapINSt3__23mapIN9ShaderLab16FastPropertyNameE10ColorRGBAfNS2_4lessIS5_EENS2_9allocatorINS2_4pairIKS5_S6_EEEEEEEEvRT_17TransferMetaFlags
Abg:_X509Certificate2_GetValueAsString_m1286925493
Yxi:_Mask__ctor_m1716732261
Lhe:_Char_ToLower_m2719897546
qOe:_Array_InternalArray__set_Item_TisHitInfo_t1761367055_m2693590376_gshared
qH:__Z105Register_UnityEngine_Animations_AnimatorControllerPlayable_INTERNAL_CALL_GetNextAnimatorStateInfoInternalv
e9e:_MonoType_IsPointerImpl_m648213545
UVe:_InvalidOperationException__ctor_m2801133788
fbb:__ZN13RenderManager28AreCamerasUsingMotionVectorsEv
t8:__Z25InitializeLODGroupManagerPv
N_d:_CanvasScaler_SetScaleFactor_m3305903109
$Ke:_Array_InternalArray__ICollection_Add_TisUriScheme_t1876590943_m3218110478_gshared
fYa:__ZNK12ImageFilters28ApplyAfterTransparentFiltersEv
sMi:_AnimatorControllerPlayable_IsInTransitionInternal_m3924673941
hbe:_LayoutRebuilder_U3Cs_RebuildersU3Em__0_m3768099182
rTc:__ZN11UnityEngine7Connect15AppRunningEvent12ToJsonStringER9JSONWrite
g0:__ZN19ShaderPropertySheet5ClearEb
x1f:_TlsServerCertificate_ProcessAsTls1_m3083203628
_Of:_ReadOnlyCollection_1_System_Collections_Generic_IListU3CTU3E_set_Item_m1099846173_gshared
j0a:__ZNK6Camera11GetPositionEv
Es:__ZN8Animator19CreatePlayableGraphEv
o_j:_emscripten_glClearDepth__wrapper
Jse:_Convert_ToSByte_m1880147062
qeb:__ZNK16MemoryFileSystem8FilenameERK13FileEntryData
Xf:_glUniform1fv
$f:_JS_FileSystem_Sync
IHd:_MD5CryptoServiceProvider_HashCore_m2367253552
IEa:__ZNSt3__26__treeINS_12__value_typeI21GLESRenderTargetSetupN2gl6HandleILNS3_10ObjectTypeE9EEEEENS_19__map_value_compareIS2_S7_NS_4lessIS2_EELb1EEENS_9allocatorIS7_EEE7destroyEPNS_11__tree_nodeIS7_PvEE
Loj:_X509StoreManager_get_TrustedRootCertificates_m122138510
dyj:_UnityAction_1_BeginInvoke_m530778538_gshared
QJc:_Direct_Move
Zf:__emscripten_sample_gamepad_data
N$b:__Z22DelayedDestroyCallbackP6ObjectPv
VWj:_glBlendEquationSeparate__wrapper
_Vc:__ZN20UnityWebRequestProtoI19TransportJavaScript16AtomicRefCounter14RedirectHelper14ResponseHelper15DownloadHandler13UploadHandler12HeaderHelper14AsyncOperationE19Job_InvokeCoroutineEPS7_
$nh:_GUISkin_GetStyle_m3594137272
S4d:_GraphicRegistry__cctor_m4197769737
JTc:__ZN11UnityEngine7Connect20BasePersistentValues13RestoreValuesER8JSONRead
Jsj:_Time_get_time_m2216684562
aYf:_KeyGeneratedEventHandler_Invoke_m1298576133
l9d:_InputField_Rebuild_m3481959062
nyb:__ZN11TimeManagerD0Ev
SX:__ZN11UnityEngine15CloudWebService18RestFileDownloader10InitializeERKN4core12basic_stringIcNS2_20StringStorageDefaultIcEEEE
jpb:__ZN9Texture2D16DeleteGfxTextureEv
iea:__ZN20LocalFileSystemPosix4OpenER13FileEntryData14FilePermission16FileAutoBehavior
BWf:_KeyBuilder_get_Rng_m2539978716
dQi:_AudioClipPlayable_INTERNAL_CALL_ValidateType_m1977251214
d1c:__ZN15dense_hashtableINSt3__24pairIK10KeyWrapperIN6il2cpp5utils13dynamic_arrayIPK10Il2CppTypeLj4EEEEPFvvEEESA_NS3_8metadata19Il2CppSignatureHashEN14dense_hash_mapISA_SD_SG_NSA_14EqualsComparerINSF_22Il2CppSignatureCompareEEENS0_9allocatorISE_EEE9SelectKeyESK_SM_ED2Ev
ULc:__ZN2UI6Canvas12AddToManagerEv
ECc:_UNITY_tt_face_load_sbit
p5b:__Z37GetTransformFromComponentOrGameObjectP6Object
PCh:_ShimEnumerator_get_Current_m2516732679_gshared
uHc:_cf2_hint_isTop
e9a:__ZN23ManagedAttributeManager21GetRequiredComponentsE17ScriptingClassPtr
pAa:__ZN9GfxDevice18GetNumGraphicsJobsEj
Zbb:__Z23InitializeStdConvertersv
LGf:_Collection_1_Contains_m3292349561_gshared
r6d:_Image_SetNativeSize_m3580044470
s1a:__ZN19ShaderPropertySheet17UpdateTextureInfoEiRK23FastTexturePropertyNamePK10TextureRef
tsj:_TextGenerator_get_lines_m916366224
LFc:_ps_unicodes_init
_Ta:__ZZ23InitPlayerLoopCallbacksvEN38PreUpdateCheckTexFieldInputRegistrator7ForwardEv
aod:__ZNK10KeyWrapperINSt3__24pairIPKcS3_EEE14EqualsComparerI26NamespaceAndNamePairEqualsEclERKS5_SA_
Xye:_StackTrace__ctor_m772333217
tPd:_Single_System_IConvertible_ToSingle_m2540530435
tjf:_X509CertificateEnumerator__ctor_m1500464146
Xyg:_Type_get_IsPointer_m3832342327
kld:__ZN6il2cpp2vm9Exception27GetExecutionEngineExceptionEPKc
xIh:_Dictionary_2_System_Collections_ICollection_CopyTo_m2784181332_gshared
lh:_JS_WebRequest_GetResponseHeaders
Ldb:__ZNSt3__26__treeINS_12__value_typeI26SerializedObjectIdentifieriEENS_19__map_value_compareIS2_S3_NS_4lessIS2_EELb1EEENS_9allocatorIS3_EEE7destroyEPNS_11__tree_nodeIS3_PvEE
cCc:_UNITY_FT_Create_Class_tt_cmap_classes
B$f:_ClientSessionInfo_get_Valid_m3589823308
W9b:__ZN9Scripting18RaiseNullExceptionEPKcz
gPf:_ReadOnlyCollection_1_System_Collections_IList_Insert_m2659121605_gshared
kba:__ZN13RuntimeStaticI13RendererSceneLb0EE16StaticInitializeEPv
fGg:__Z46RuntimeInvoker_RuntimeObject_Int32_t2071877448PFvvEPK10MethodInfoPvPS4_
Hzi:_RawImage_SetNativeSize_m672994452
wh:_glCreateProgram
shf:_PKCS1_Sign_v15_m2137018891
lMe:_Array_InternalArray__ICollection_CopyTo_TisContentType_t1028629049_m330597634_gshared
Sje:_SimpleEnumerator_Reset_m3524591211
Ruj:_Vector2_op_Addition_m1389598521
RBg:_UInt32_ToString_m554020223_AdjustorThunk
Wib:__ZN24GenerateTypeTreeTransfer32TransferSTLStyleArrayWithElementI17SortingLayerEntryEEvRT_17TransferMetaFlags
OVj:_glUniformMatrix3fv__wrapper
Nkb:__ZN5Light9SetupHaloEv
ONb:__Z18Transfer_BlittableI18StreamedBinaryReadILb1EELb1E12PropertyNameEvRK29SerializationCommandArgumentsR31RuntimeSerializationCommandInfo
MOd:_SecurityFrame__ctor_m3738328608_AdjustorThunk
Efd:__ZN15dense_hashtableINSt3__24pairIK10KeyWrapperIPK22Il2CppGenericParameterEPK24MonoGenericParameterInfoEES6_N6il2cpp5utils11PointerHashIS4_EEN14dense_hash_mapIS6_SA_SF_NS6_14EqualsComparerINS0_8equal_toIS5_EEEENS0_9allocatorISB_EEE9SelectKeyESK_SM_EC2ERKSP_j
U$:__ZN23TransformChangeDispatch12CleanupClassEPv
A8b:__ZN8UserList11SendMessageERK17MessageIdentifier
yQc:__Z33Canvas_Get_Custom_PropScaleFactorP12Il2CppObject
eC:__ZNK26AnimatorControllerPlayable21GetStateMachineMemoryEi
y7:__ZNSt3__26__treeINS_12__value_typeI18UnityInterfaceGUIDP15IUnityInterfaceEENS_19__map_value_compareIS2_S5_NS_4lessIS2_EELb1EEE13stl_allocatorIS5_L18MemLabelIdentifier6ELi16EEE7destroyEPNS_11__tree_nodeIS5_PvEE
yNd:_EvidenceEnumerator_get_Current_m632582639
L4a:__Z15CullLocalLightsR8JobFenceS0_RK22SceneCullingParametersiPK8Vector4fRK13dynamic_arrayIhLj1EER9IndexListSC_PfP5RectTIfEP13TargetEyeMaskPPK5LightRK14ShadowCullData
bTd:_DecoderFallback_get_ReplacementFallback_m2155645318
uka:__ZNK6Camera16GetTargetTextureEv
Mqe:_Convert_ToDateTime_m3528521877
qGb:__Z35Transfer_Blittable_SingleValueFieldI14SafeBinaryReadyEvRT_R17GeneralMonoObjectRK23StaticTransferFieldInfo
hnb:__ZN8Playable20ClearInputConnectionEi
$Za:__ZN13BatchRenderer12EndLoopFlushEv
hAe:_Enum_System_IConvertible_ToChar_m1838232954
mCe:_CultureInfo_CreateTextInfo_m2269397562
jce:_Array_SetValue_m2469980129
lIi:_AnimationLayerMixerPlayable__ctor_m114206992_AdjustorThunk
a7b:__ZNK6Sprite11GetInnerUVsE20SpriteRenderDataMode
KC:__ZN11UnityEngine9Animation28DestroyAvatarBindingConstantEPNS0_21AvatarBindingConstantERN7mecanim6memory9AllocatorE
UKb:__Z29Transfer_Blittable_ArrayFieldI24GenerateTypeTreeTransfer11ColorRGBA32EvRT_R9ArrayInfoRK23StaticTransferFieldInfo
kTi:_CanvasRenderer_SplitUIVertexStreams_m3738089052
A$b:__ZN16MessageForwarder23RegisterMessageCallbackEiPFvPviR11MessageDataEPKN5Unity4TypeE
AHc:_cff_get_glyph_data
fi:_gmtime
mi:_emscripten_glUniform3i
YEa:__ZNK7ApiGLES10GetContextEv
mPd:_Single_System_IConvertible_ToInt16_m962677079_AdjustorThunk
cFb:__Z18Transfer_BlittableI14SafeBinaryReadLb1E5RectTIfEEvRK29SerializationCommandArgumentsR31RuntimeSerializationCommandInfo
Wta:__ZN15TextureSettings14SetAnisoLimitsEii
NKb:__Z19TransferField_ArrayI24GenerateTypeTreeTransfer27Converter_SimpleNativeClassI10RectOffsetEEvRK23StaticTransferFieldInfoR31RuntimeSerializationCommandInfoRT0_
Lqa:__ZN6prcoreL17RemapGenericFloatI18TexFormatARGBFloat15TexFormatRGHalfEEvPKNS_9InnerInfoE
Pee:_Boolean_System_IConvertible_ToInt64_m4142756949
zth:_Mesh_CheckCanAccessSubmeshIndices_m2098382465
JMd:_String_memcpy2_m2338403668
k4i:_InternalEnumerator_1_get_Current_m4154615771_AdjustorThunk
FZ:__GLOBAL__sub_I_runtime_graphics_lod_lump_cpp
LNe:_Array_InternalArray__set_Item_TisDateTime_t693205669_m197118909_gshared
reh:_ModuleBuilder_GetToken_m4190668737
K$j:_emscripten_glIsProgram__wrapper
s2b:__ZL22PrepareMeshRenderNodesILb1EEvR35RenderNodeQueuePrepareThreadContext
Sea:__ZN20LocalFileSystemPosix5TouchER13FileEntryData
nsc:__ZN9JSONWrite8TransferI13dynamic_arrayItLj2EEEEvRT_PKc17TransferMetaFlags
svg:_NativeEventCalls_SetEvent_internal_m2449488771
Ci:_emscripten_glDrawElements
SJd:_RSAPKCS1SignatureDeformatter_SetHashAlgorithm_m894366837
qjf:_X509Certificate_get_DSA_m3959895595
ssh:_Mathf_Round_m227387340
Gee:_Boolean_System_IConvertible_ToDouble_m624978277
Yxe:_Delegate_get_Method_m2968370506
b_d:_Button__ctor_m975719067
ouj:_UnityException__ctor_m3650417185
Hih:_MonoProperty_GetValue_m2150318626
Rxg:_TimeSpan_CompareTo_m2891128664
jA:__ZN9BlobWriteD2Ev
Pnj:_PKCS12_AddCertificate_m3637520737
nFb:__ZL26Transfer_SimpleNativeClassI14SafeBinaryRead8GradientLb0EEvRK29SerializationCommandArgumentsR31RuntimeSerializationCommandInfo
Y_j:_emscripten_glClientActiveTexture__wrapper
r2c:__ZNK15dense_hashtableI10KeyWrapperIPK17Il2CppGenericInstES4_N6il2cpp8metadata21Il2CppGenericInstHashEN14dense_hash_setIS4_S7_NS4_14EqualsComparerINS6_24Il2CppGenericInstCompareEEENSt3__29allocatorIS4_EEE8IdentityESB_SE_E4findERKS4_
RPg:__Z71RuntimeInvoker_Double_t4078015681_Double_t4078015681_Double_t4078015681PFvvEPK10MethodInfoPvPS4_
cef:_PrimalityTests_RabinMillerTest_m1376858197
Y_c:__ZNK15dense_hashtableINSt3__24pairIK10KeyWrapperIPKcEP11Il2CppClassEES5_N6il2cpp5utils11StringUtils12StringHasherIS4_EEN14dense_hash_mapIS5_S8_SE_NS5_14EqualsComparerINSB_13VmStringUtils21CaseSensitiveComparerEEENS0_9allocatorIS9_EEE9SelectKeyESJ_SL_E10test_emptyEj
jqg:_DES_Create_m2705450713
Coj:_X509CertificateCollection_Remove_m2722259192
GJe:_Array_InternalArray__IndexOf_TisSingle_t2076509932_m2151846718_gshared
Dia:__ZN13RenderTexture23VirtualRedirectTransferER18StreamedBinaryReadILb0EE
g1h:__ZL56StringBuilder_t1221177846_CustomAttributesCacheGeneratorP21CustomAttributesCache
OUe:_NumberFormatter_FormatHexadecimal_m1317851390
cDc:_UNITY_tt_face_lookup_table
Dcg:_X509Certificate2Collection_AddRange_m1503879780
lLa:__Z17ComputeMipmapSizeiii14GraphicsFormat
c2e:_StreamReader__ctor_m871771009
KHa:__ZN4crnd12crn_unpacker12unpack_dxt5aEPPhjjjjjj
thd:__ZNK15dense_hashtableINSt3__24pairIK10KeyWrapperINS1_IP11Il2CppClassjEEES4_EES6_N6il2cpp8metadata14ArrayClassHashEN14dense_hash_mapIS6_S4_SB_NS6_14EqualsComparerINSA_17ArrayClassCompareEEENS0_9allocatorIS8_EEE9SelectKeyESF_SH_E3endEv
kjj:_AnchorInfo_get_Length_m1721106162
Stj:_Transform_get_childCount_m881385315
vkg:_RemotingConfiguration_RegisterActivatedClientType_m2207611714
BPi:_AudioClipPlayable_GetClip_m1256087835_AdjustorThunk
akh:_GameObject_GetComponentInChildren_m4263325740
gEh:_Transform_1_Invoke_m1224512163_gshared
UDd:__ZN6il2cpp2os5Mutex4LockEb
N4d:_GraphicRaycaster_Raycast_m3351280444
nPb:__Z29Transfer_Blittable_ArrayFieldI18StreamedBinaryReadILb1EE8Vector2fEvRT_R9ArrayInfoRK23StaticTransferFieldInfo
KVg:__Z81RuntimeInvoker_Void_t1841601450_PlayableHandleU26_t4210769902_Vector3_t2243707580PFvvEPK10MethodInfoPvPS4_
RPc:__Z50CanvasRenderer_CUSTOM_CreateUIVertexStreamInternalP12Il2CppObjectS0_S0_S0_S0_S0_S0_S0_S0_S0_
daa:__ZN14PlayableOutput15PrepareTraverseERK9FrameData
Tld:__ZN6il2cpp2vm13LivenessState25FieldCanContainReferencesEP9FieldInfo
BRb:__ZL19RequireCorLibMethodPKcS0_S0_
Ith:_MonoBehaviour_IsInvoking_m1469271462
Fvb:__ZN15SerializeTraitsI13dynamic_arrayI10BlendShapeLj4EEE19ResizeSTLStyleArrayERS2_i18MemLabelIdentifier
Ugb:__ZNK5Unity9Component22GetTypeVirtualInternalEv
WUh:__ZL111RegionInfo_t3784626978_CustomAttributesCacheGenerator_RegionInfo_t3784626978____CurrencyNativeName_PropertyInfoP21CustomAttributesCache
BHd:_MD5_Create_m1572997499
$kf:_AppDomain_LoadAssembly_m1537679648
yra:__ZN6prcoreL26RemapGenericIntegerToFloatI17TexFormatARGB888817TexFormatRGBFloatEEvPKNS_9InnerInfoE
T8c:__ZN6il2cpp2vm14TypeNameParser26ParseTypeArgumentsOptionalERi
Z5a:__ZN15LODGroupManager27GarbageCollectCameraLODDataEv
_ka:__ZN11NamedObjectC2E18MemLabelIdentifier18ObjectCreationMode
jbb:__ZN13ScreenManagerC2Ev
$6g:_OrdinalComparer_GetHashCode_m3400975772
_v:__ZN7mecanim20ValueArrayBlendBeginILb1EEEvRNS_14ValueArrayMaskE
ukc:__ZN12GUIClipState20CalculateMouseValuesER10InputEvent
Hhd:__ZN14dense_hash_mapI10KeyWrapperIP11Il2CppClassES2_N6il2cpp8metadata16SZArrayClassHashENS3_14EqualsComparerINS5_19SZArrayClassCompareEEENSt3__29allocatorINSA_4pairIKS3_S2_EEEEE13set_empty_keyERSD_
UEa:__ZN7ApiGLES4InitERK14GfxContextGLESR16GfxDeviceLevelGL
Eua:__ZNK11LightProbes14LightProbeData33GetLightProbeInterpolationWeightsERK8Vector3fRiR8Vector4fRf
gjg:_SoapServices_GetAssemblyName_m2037446159
axf:_List_1_System_Collections_IList_IndexOf_m3828407883_gshared
agb:__ZN21UnityDefaultAllocatorI17LowLevelAllocatorED0Ev
c5i:_InternalEnumerator_1_System_Collections_IEnumerator_get_Current_m1313308902_AdjustorThunk
uBg:_UInt32_System_IConvertible_ToInt64_m3091851828_AdjustorThunk
wIa:__Z14DecodeBC7BlockP9HDRColorAPKh
d2b:__ZNK24RendererAnimationBinding12GetPPtrValueERKN11UnityEngine9Animation10BoundCurveE
s$f:_ClientSessionCache__cctor_m1134810266
gkj:_CharacterClass_GetIntervalCost_m2706255216
smg:_ObjectReader_ReadGenericArray_m788836286
Fkg:_RemotingConfiguration_RegisterChannelTemplate_m3410954518
jCf:_Queue_1__ctor_m4288477928_gshared
Eyj:_UnityAction_2_Invoke_m1528820797_gshared
iBd:_GC_new_proc_inner
qc:invoke_fiiffi
dia:__ZN19RenderBufferManager13GetTempBufferE17RenderTextureDesc
hIc:_UNITY_FT_Init_Class_cff_service_glyph_dict
zEb:__Z35Transfer_Blittable_FixedBufferFieldI14SafeBinaryReadiEvRK29SerializationCommandArgumentsR31RuntimeSerializationCommandInfo
yId:_RijndaelManagedTransform_TransformFinalBlock_m3663752599
KRd:_String_Format_m4262916296
Mva:__ZL24stbir__filter_catmullromff
pcf:_SimpleCollator_CompareInternal_m280569710
QPj:__ZNSt3__212basic_stringIcNS_11char_traitsIcEENS_9allocatorIcEEE6__initEPKcjj
nyc:__ZN20TextRenderingPrivate15GetFormatStringER11UTF16StringR13dynamic_arrayINS_16TextFormatChangeELj4EE
_bg:_X509ExtensionEnumerator_get_Current_m3926549773
rQg:__Z77RuntimeInvoker_TimeSpan_t3430258949_TimeSpan_t3430258949_TimeSpan_t3430258949PFvvEPK10MethodInfoPvPS4_
W5c:__ZN6il2cpp6icalls8mscorlib6SystemL16CheckMemberMatchI9EventInfoNS_5utils10functional6FilterINSt3__212basic_stringIcNS8_11char_traitsIcEENS8_9allocatorIcEEEENS5_13VmStringUtils21CaseSensitiveComparerEEEEEbPKT_PK11Il2CppClassSN_iRKT0_
ZUe:_NumberFormatter_IsZeroOnly_m3495795110
ibj:_InternalEnumerator_1_System_Collections_IEnumerator_get_Current_m3732729179_AdjustorThunk
zZe:_Int32_ValidDigit_m2682121722
a9a:__Z23ValidateScriptComponentP10MonoScriptPN4core12basic_stringIcNS1_20StringStorageDefaultIcEEEE
Xt:__ZN7mecanim9animation12GetHumanPoseIfEEvRKNS0_18ClipMuscleConstantEPKT_RNS_5human9HumanPoseE
eub:__ZNSt3__215__inplace_mergeIRNS_4lessI4PPtrI11SpriteAtlasEEENS_11__wrap_iterIPS4_EEEEvT0_SA_SA_T_NS_15iterator_traitsISA_E15difference_typeESE_PNSD_10value_typeEi
Kng:_SerializationInfo_AddValue_m2342806462
RAc:_UNITY_FT_Init_Class_ft_outline_glyph_class
Q8f:_IPv6Address_AsIPv4Int_m3565745471
abg:_X509BasicConstraintsExtension__ctor_m4017912156
UUj:_glTexStorage3D__wrapper
RFc:_ft_get_adobe_glyph_index
MGa:__ZN7ApiGLES17CreateFramebufferEv
oic:__Z47Register_UnityEngine_Texture_Internal_GetHeightv
yCb:__Z25scripting_field_get_flags17ScriptingFieldPtr
Tnj:_X501_ToString_m3314567798
VAi:_Scrollbar_OnBeginDrag_m574021735
dhh:_MonoEvent_GetObjectData_m4084431065
muc:__ZN8JSONRead8TransferIyEEvRT_PKc17TransferMetaFlagsb
YEb:__Z18Transfer_BlittableI14SafeBinaryReadLb0EtEvRK29SerializationCommandArgumentsR31RuntimeSerializationCommandInfo
q2i:_U3CGetEnumeratorU3Ec__Iterator0_MoveNext_m2489948797_gshared
s_:__ZNK20DynamicHeapAllocatorI17LowLevelAllocatorE8ContainsEPKv
Oy:__ZN23AnimationPlayableOutput7DestroyEv
uMg:__Z128RuntimeInvoker_Void_t1841601450_Byte_t3683104436_RuntimeObject_SByte_t454417549_ObjectU26_t597476745_HeaderU5BU5DU26_t2818328198PFvvEPK10MethodInfoPvPS4_
gwh:_PlayableHandle_INTERNAL_CALL_SetInputCountInternal_m3510545880
qld:__ZN6il2cpp2vm14PlatformInvoke36MarshalCppStringToCSharpStringResultEPKc
I3a:__ZN8Material23GetStencilWriteMaterialEv
JKa:__Z12GetBlockSize14GraphicsFormat
p7e:_Math_Log_m3325929366
qha:__ZNK9ShaderLab11ShaderState16ApplyShaderStateEjPK19ShaderPropertySheetRK17ShaderPassContextP6ShaderPNS_4PassEPNS_11SubProgramsE
Bij:_Assertion__ctor_m1169129098
Uib:__ZN10TagManager8TransferI24GenerateTypeTreeTransferEEvRT_
Yzi:_ReflectionMethodsCache_get_Singleton_m2330935729
e0i:_Context_NotifyGlobalDynamicSinks_m2916447645
Mfg:_InterpreterFactory_get_GroupCount_m1785101782
_he:_CharEnumerator_Clone_m3844021309
pff:_BlockProcessor_Initialize_m3476609078
u6b:__Z35AllocExtractMeshComponentFromScriptRK4Mesh30InternalScriptingShaderChannel34InternalScriptingVertexChannelTypei
$v:__ZN7mecanim12SetValueMaskILb1EEEvPNS_14ValueArrayMaskEb
Bib:__ZN10TagManager23VirtualRedirectTransferER24GenerateTypeTreeTransfer
tRf:_ReadOnlyCollection_1_System_Collections_IList_Remove_m688362945_gshared
Gva:__ZL23stbir__filter_trapezoidff
Heg:_Key_GetHashCode_m345804220
byg:_TimeSpan_FromHours_m2521548378
Eze:_Double_System_IConvertible_ToUInt16_m286326038
o7a:__ZN23ScriptableRenderContextD2Ev
MHa:__ZN4crnd12crn_unpacker11unpack_dxt1EPPhjjjjjj
ozi:_Shadow__ctor_m924057531
Oif:_PKCS12__ctor_m3492967071
icd:__ZN15dense_hashtableINSt3__24pairIK10KeyWrapperINS1_IPK10MethodInfoP11Il2CppClassEEEjEES9_17ReflectionMapHashIS8_EN14dense_hash_mapIS9_jSD_NS9_14EqualsComparerINS0_8equal_toIS8_EEEENS0_9allocatorISB_EEE9SelectKeyESI_SK_E15insert_noresizeERKSB_
oLc:__Z32TextGenerator_CUSTOM_Dispose_cppP12Il2CppObject
Odh:_MethodBuilder_GetCustomAttributes_m923430117
Gjd:__ZN6il2cpp6icalls8mscorlib6System19ExtractWidenedValueE14Il2CppTypeEnumPv
Faj:_InternalEnumerator_1_get_Current_m2198364332_gshared
QAd:_GC_invoke_finalizers
dcj:_InternalEnumerator_1_get_Current_m1715820327_gshared
lBb:__ZNSt3__26vectorIN30RuntimeInitializeOnLoadManager9ClassInfoE13stl_allocatorIS2_L18MemLabelIdentifier12ELi16EEE6assignINS_11__wrap_iterIPS2_EEEENS_9enable_ifIXaasr21__is_forward_iteratorIT_EE5valuesr16is_constructibleIS2_NS_15iterator_traitsISC_E9referenceEEE5valueEvE4typeESC_SC_
hFb:__Z18Transfer_BlittableI14SafeBinaryReadLb0E8BitFieldEvRK29SerializationCommandArgumentsR31RuntimeSerializationCommandInfo
yeh:_OpCode_GetHashCode_m2974727122_AdjustorThunk
jbh:_EnumBuilder_get_BaseType_m63295819
Cge:_Byte_ToString_m1309661918_AdjustorThunk
Bfj:_Comparer_1_System_Collections_IComparer_Compare_m1153499515_gshared
b1e:_Directory_CreateDirectoriesInternal_m2817848291
E5i:_InternalEnumerator_1_System_Collections_IEnumerator_get_Current_m3546309124_gshared
UHe:_Array_BinarySearch_TisRuntimeObject_m3048647515_gshared
sug:_UTF7Encoding_GetDecoder_m396865028
pla:__ZNK9ShaderLab22ShaderStencilStateDesc17ToGfxStencilStateEPK19ShaderPropertySheetS3_RK14GfxRasterStateR15GfxStencilState
YJj:_Hacker_CheckPassword_m4100071066
ygf:_SmallXmlParser_ReadContent_m4038164984
xpj:_X509Extension_WriteLine_m364247613
qDc:_tt_cmap0_char_next
$eb:__ZN15GUIEventManager10QueueEventERK10InputEvent
xIa:__Z15DecodeBC6HBlockP9HDRColorAPKh
r_e:_Int32_Equals_m753832628_AdjustorThunk
XAd:_GC_malloc_uncollectable
lle:_CollectionBase_System_Collections_IList_get_IsReadOnly_m2883787483
peb:__ZNK16MemoryFileSystem6ParentERK13FileEntryDataRN4core12basic_stringIcNS3_20StringStorageDefaultIcEEEE
v8:__ZN15LODGroupManagerD2Ev
B7g:_Assembly_IsDefined_m2841897391
nLj:_Nullable_1_ToString_m1238126148_gshared
IQa:__ZN12IFileAdapter9SetLengthER13FileEntryDatay
R7d:_InputField_set_lineType_m3589045448
Ghc:__Z39SortingLayer_CUSTOM_GetLayerValueFromIDi
Sc:_Mix_PlayMusic
sIc:_cff_cmap_encoding_init
uCj:_EqualityComparer_1_System_Collections_IEqualityComparer_GetHashCode_m2460068977_gshared
xq:__ZN7Hash1288TransferI19StreamedBinaryWriteILb0EEEEvRT_
lQi:_AudioMixerPlayable_CreateHandle_m628052855
Jra:__ZN19RuntimeSceneManager24PrepareNewBootstrapSceneEv
Pbe:_Array_GetLongLength_m3005360186
Fbd:__ZNK15dense_hashtableINSt3__24pairIK10KeyWrapperIPK10Il2CppTypeEjEES6_N6il2cpp8metadata14Il2CppTypeHashEN14dense_hash_mapIS6_jSB_NS6_14EqualsComparerINSA_26Il2CppTypeEqualityComparerEEENS0_9allocatorIS8_EEE9SelectKeyESF_SH_E12test_deletedEj
O7a:__ZN10SpookyHash7Hash128EPKvjPyS2_
k5a:__ZL60CombineDirectionalShadowCasterCullingIndexListsAndDestroyJobP20ShadowCullingJobData
zYe:_Guid_ToString_m3858592945_AdjustorThunk
beh:_MethodToken__cctor_m2172944774
H7i:_InternalEnumerator_1_get_Current_m3206960238_gshared
V0f:_TlsClientCertificate_ProcessAsSsl3_m3634449507
CNd:_Hash_GetData_m3416116641
LGd:_HMAC_get_Block_m1367204253
GUb:__ZN9ShaderLab18SerializedPropertyC2ERKS0_
TFc:_cff_driver_init
lMi:_AnimatorControllerPlayable_INTERNAL_CALL_GetNextAnimatorClipInfoInternal_m528333893
m2d:_Dropdown_AlphaFadeList_m511547679
UXi:_ResourceReader_LoadResourceValues_m1346096618
N0b:__ZN16ReflectionProbes20DidChangeActiveSceneEP10UnitySceneS1_
WUe:_NumberFormatter_RoundDecimal_m176606570
TJg:__Z90RuntimeInvoker_RuntimeObject_RuntimeObject_SByte_t454417549_RuntimeObject_SByte_t454417549PFvvEPK10MethodInfoPvPS4_
igg:_Interval_Contains_m3209397137_AdjustorThunk
Tsb:__ZN16SpriteRenderData8TransferI14SafeBinaryReadEEvRT_
ure:_Convert_ToDouble_m1714698801
WKi:_AnimatorControllerPlayable_INTERNAL_CALL_SetTriggerString_m1525516737
Paj:_InternalEnumerator_1_get_Current_m35328337_gshared
n3b:__ZN6CameraC2E18MemLabelIdentifier18ObjectCreationMode
syj:_UnityAction_1_Invoke_m3061904506_gshared
L$e:_Int64_ToString_m1544341651
tfa:__ZN20LocalFileSystemPosix4CopyER13FileEntryDataS1_
z3a:__ZL31SetRenderStateForStencilMarkingR9GfxDeviceR17ShaderPassContextjj
sTa:__ZN20ArchiveStorageReader20FillChunkCachedBlockEPNS_11CachedBlockE
Esj:_Texture_INTERNAL_get_texelSize_m3180609662
cP:__ZN10AudioMixer16ResumeProcessingEv
DKf:_Collection_1_ConvertItem_m2559468638_gshared
Thj:_Parser_GetMapping_m2879066771
PGb:__ZNSt3__26vectorI17AnimationCurveTplIfE13stl_allocatorIS2_L18MemLabelIdentifier1ELi16EEE7reserveEj
lXd:_PointerEventData_get_dragging_m220490640
n7e:_Math_Ceiling_m614624719
yVf:_BigInteger_op_Inequality_m4286929594
Mvi:__ZL80CanvasScaler_t2574720772_CustomAttributesCacheGenerator_m_ReferencePixelsPerUnitP21CustomAttributesCache
tOd:_SecurityException__ctor_m230238597
rOc:__ZN2UI13CanvasManager21EmitGeometryForCameraEP6Camera
Nd:_glClearColor
RUe:_CustomInfo_Parse_m3558073058
HH:__Z83Register_UnityEngine_Animations_AnimatorControllerPlayable_INTERNAL_CALL_SetFloatIDv
jmf:_KeyValuePair_2_get_Value_m1916631176_gshared
FVb:__ZN9ShaderLab16SerializedTagMap8TransferI19StreamedBinaryWriteILb0EEEEvRT_
ZGh:_Dictionary_2_InitArrays_m3810830177_gshared
Xjd:__ZN6il2cpp6icalls8mscorlib6System9Threading6Thread25SetCachedCurrentUICultureEP12Il2CppThreadP12Il2CppObject
w$j:_glIsVertexArray__wrapper
Xjg:_RemotingServices_DisposeIdentity_m266836454
NJd:_RSAPKCS1KeyExchangeFormatter_SetRSAKey_m3575964424
HLj:_Predicate_1_BeginInvoke_m2336395304_gshared
Hyc:_UNITY_FT_Bitmap_Convert
_pe:_DateTimeUtils_GetStandardPattern_m4198947977
l5a:__Z22CullDirectionalShadowsR9IndexListPK9SceneNodePK4AABBR22DirectionalCullContext
RSe:_Array_InternalArray__get_Item_TisUInt16_t986882611_m2599215710_gshared
iAh:_Enumerator_System_Collections_IEnumerator_Reset_m2828524109_gshared
L8g:_Default_IsArrayAssignable_m3862319150
Umj:_PKCS12_MAC_m3228833816
F2c:__ZN15dense_hashtableINSt3__24pairIK10KeyWrapperIPK11Il2CppClassEPKcEES6_N6il2cpp5utils11PointerHashIS3_EEN14dense_hash_mapIS6_S9_SE_NS6_14EqualsComparerINS0_8equal_toIS5_EEEENS0_9allocatorISA_EEE9SelectKeyESJ_SL_E4findERS7_
zUe:_NumberFormatter_FastAppendDigits_m2324805728
bY:__ZN11UnityEngine15CloudWebService14RestDownloader7OnAbortEv
Jmg:_FormatterServices_GetUninitializedObject_m1786947853
hO:__ZNK11AudioSource22GetTypeVirtualInternalEv
Csa:__ZN13MonoBehaviour26WillUnloadScriptableObjectEv
qKc:_UNITY_FT_Get_Glyph_Name
EXa:__Z13VFormatBufferPciPKcPi
OKb:__Z19TransferField_ArrayI24GenerateTypeTreeTransfer27Converter_SimpleNativeClassI8GradientEEvRK23StaticTransferFieldInfoR31RuntimeSerializationCommandInfoRT0_
HBi:_ScrollRect_get_vertical_m3957330783
FV:__ZN11UnityEngine15CloudWebService16SessionContainer16MarkAsDispatchedERKN4core12basic_stringIcNS2_20StringStorageDefaultIcEEEE
Vic:__Z26Transform_CUSTOM_IsChildOfP12Il2CppObjectS0_
dOi:_AnimatorStateInfo_IsTag_m1529621725
koh:_GUIStyle__ctor_m2210993436
Pdf:_BigInteger_op_Subtraction_m2941563507
g2b:__ZN13ProduceHelperI11PreloadDataLb0EE7ProduceE18MemLabelIdentifier18ObjectCreationMode
dCh:_Enumerator_Reset_m3129803197_gshared
pXj:_glDeleteSamplers__wrapper
TAa:__ZNK13GfxDeviceGLES11GetViewportEv
Mla:__ZNK9ShaderLab11ShaderState34ShouldRemoveAnyUnsupportedProgramsEv
nKc:_UNITY_tt_face_load_cvt
rXa:__ZN19ShaderPropertySheet29PreallocateArrayUninitializedEN9ShaderLab16FastPropertyNameENS_12PropertyTypeEj
O7b:__ZN14AssetReferenceC2E4PPtrI6ObjectE
R_i:_CrossAppDomainData__ctor_m899931420
A3c:__ZL32InitializeCustomAttributesCachesPv
qRa:__ZN20ArchiveStorageReaderD0Ev
aSb:__ZN6Shader23VirtualRedirectTransferER19StreamedBinaryWriteILb0EE
Rie:_ArrayListWrapper__ctor_m3783588291
ehg:_MethodCall_get_MethodBase_m688041003
UVc:__ZN19TransportJavaScript7PrepareEv
bEe:_Array_InternalArray__ICollection_Contains_TisRuntimeObject_m4286375615_gshared
pgj:_Match_NextMatch_m1088868049
YFi:_Text_OnPopulateMesh_m835520031
rzb:__ZN10VRSettings9Cardboard8TransferI14SafeBinaryReadEEvRT_
_xb:__ZNSt3__214__split_bufferI9InputAxisRNS_9allocatorIS1_EEED2Ev
FWi:_InvokableCall_add_Delegate_m1598143083
Wea:__ZNK20LocalFileSystemPosix20GetApplicationFolderEv
HV:__ZN11UnityEngine15CloudWebService14DataDispatcher31SetupSessionContainerToDispatchEv
Ijc:__Z68Register_UnityEngine_Object_INTERNAL_CALL_Internal_InstantiateSinglev
wRb:__Z29Transfer_Blittable_ArrayFieldI18StreamedBinaryReadILb0EE8Vector3fEvRT_R9ArrayInfoRK23StaticTransferFieldInfo
mFe:_Array_InternalArray__ICollection_Remove_TisResourceInfo_t3933049236_m1768394498_gshared
bYf:_RSAManaged_get_KeySize_m3478823737
ivf:_List_1_System_Collections_IList_Remove_m875577424_gshared
rzi:_Shadow_ApplyShadowZeroAlloc_m2132231878
Ala:__ZN9ShaderLab11shaderprops9GetVectorEPK19ShaderPropertySheetS3_NS_16FastPropertyNameE
NK:__ZN4FMOD12ChannelGroup10getDSPHeadEPPNS_3DSPE
gnf:_Enumerator_System_Collections_IEnumerator_Reset_m610822832_gshared
eJc:_UNITY_tt_size_run_prep
iK:__ZN12AudioManager17MainThreadCleanupEv
$tg:_UTF32Encoding_GetByteCount_m77034086
a2a:__ZNK6Camera18ScreenToWorldPointERK8Vector3f
Kjd:__ZN6il2cpp6icalls8mscorlib6System9Threading6Thread11GetDomainIDEv
$za:__ZNK13TranslateGLES13GetFormatDescE14GraphicsFormat
vtg:_UnicodeEncoding_GetByteCount_m3828694214
hSa:__ZN17ArchiveFileSystemD0Ev
$vg:_Thread_get_CurrentContext_m3123598616
Hdg:_X509ChainStatus_t4278378721_marshal_pinvoke_back
j2a:__ZN14qsort_internal5QSortIP20ShadowCasterSortDatai26ShadowCasterSortDataSorterEEvT_S4_T0_T1_
pae:_LayoutElement_set_layoutPriority_m3326469165
Zmd:__ZNK15dense_hashtableINSt3__24pairIK10KeyWrapperIP14Il2CppIUnknownEjEES5_N6il2cpp5utils11PointerHashIS3_EEN14dense_hash_mapIS5_jSB_NS5_14EqualsComparerINS0_8equal_toIS4_EEEENS0_9allocatorIS7_EEE9SelectKeyESG_SI_E3endEv
KGb:__Z22TransferField_NonArrayI14SafeBinaryRead27Converter_SimpleNativeClassI8GradientEEvRK23StaticTransferFieldInfoR31RuntimeSerializationCommandInfoRT0_
Gf:_emscripten_glBufferData
jOc:__ZZN2UI23InitializeCanvasManagerEvEN53UIEventsCanvasManagerEmitOffScreenGeometryRegistrator7ForwardEv
Kf:_glUniform3iv
p6d:_Image_OnAfterDeserialize_m457193290
bOj:___fseeko
xwg:_Thread_GetHashCode_m2038641494
FKe:_Array_InternalArray__ICollection_Add_TisInt16_t4041245914_m321723604_gshared
jwg:_Thread_SetCachedCurrentUICulture_m1504514384
Nsh:_Matrix4x4_ToString_m1982554457
HOj:_fwrite
VTd:_BaseInput_get_compositionCursorPos_m3148596268
ETd:_AxisEventData_set_moveVector_m3227339885
Hsh:_Matrix4x4_GetHashCode_m3649708037_AdjustorThunk
NEh:_Enumerator_MoveNext_m1212551889_gshared
IBb:__ZN13MonoBehaviourD0Ev
kkf:_X509CertificateEnumerator_Reset_m3421070487
LNc:__ZN2UI6Canvas18UpdateEventIndexesEv
Xhe:_CharEnumerator_System_Collections_IEnumerator_get_Current_m1338581333
$Sd:_DecoderFallback__cctor_m215821245
QUd:_EventSystem_set_current_m1323649628
_gc:__Z50RectTransform_CUSTOM_INTERNAL_set_anchoredPositionP12Il2CppObjectRK13Vector2fIcall
wUb:__ZNSt3__26vectorIN9ShaderLab19SerializedSubShaderENS_9allocatorIS2_EEE6resizeEj
yxe:_Decimal_Multiply_m1884379383
Nbb:__ZN4FileC2Ev
H0i:_Context_GetNamedDataSlot_m372993642
dT:__ZN11AudioSource15InitializeClassEv
Iah:_DerivedType_GetAttributeFlagsImpl_m876862795
ocd:__ZN15dense_hashtableINSt3__24pairIK10KeyWrapperINS1_IPK10MethodInfoP11Il2CppClassEEEjEES9_17ReflectionMapHashIS8_EN14dense_hash_mapIS9_jSD_NS9_14EqualsComparerINS0_8equal_toIS8_EEEENS0_9allocatorISB_EEE9SelectKeyESI_SK_E12maybe_shrinkEv
Uwa:__ZN14BatchAllocator16AllocateInternalEPPvijjj
n_b:__Z13RegisterClassI6SpriteEvv
F$c:__ZN14dense_hash_setI10KeyWrapperIPK17Il2CppGenericInstEN6il2cpp8metadata21Il2CppGenericInstHashENS4_14EqualsComparerINS6_24Il2CppGenericInstCompareEEENSt3__29allocatorIS4_EEEC2EjRKS7_RKSA_
k_a:__ZN12LODFadeCacheC2ER13BatchRenderer
Jqh:_GUIUtility_IsExitGUIException_m4230716438
Syd:_min_bytes_allocd
OOb:__ZN17AnimationCurveTplIfE15InvalidateCacheEv
mfc:__Z29Mesh_Get_Custom_PropCanAccessP12Il2CppObject
Ftb:__ZN6Sprite8TransferI19StreamedBinaryWriteILb0EEEEvRT_
KRf:_ReadOnlyCollection_1_System_Collections_Generic_IListU3CTU3E_Insert_m2811860789_gshared
$zj:_IndexedSet_1_Contains_m4188067325_gshared
F2g:__Z56RuntimeInvoker_Void_t1841601450_RaycastHit2D_t4063908774PFvvEPK10MethodInfoPvPS4_
gri:__ZL58BaseInputModule_t1295781545_CustomAttributesCacheGeneratorP21CustomAttributesCache
ZD:__ZN7mecanim9animation18ControllerConstant15InitializeClassEv
tla:__ZNK9ShaderLab6TexEnv11PrepareDataEiiP15GfxTextureParam
sCe:_CompareInfo_internal_compare_managed_m1173317301
Do:FUNCTION_TABLE_iiiiiiiffiiiiiiiiiffffiiii
A7d:_InputField_get_customCaretColor_m2991404035
lka:__ZNK19StereoRenderTexture7IsEmptyEv
iYe:_Guid_Equals_m2346664749_AdjustorThunk
z2e:_FileStream_get_CanSeek_m1833070492
