Fc:_glClearStencil
WKe:_Array_InternalArray__ICollection_Add_TisMark_t2724874473_m1613484179_gshared
Usi:__ZL80Graphic_t2426225576_CustomAttributesCacheGenerator_Graphic_OnFillVBO_m1723985607P21CustomAttributesCache
xog:_RuntimeTypeHandle_GetObjectData_m3567098501
dfh:_TypeBuilder_ToString_m1952363535
Ztd:__ZN6il2cpp2vm5Array13GetByteLengthEP11Il2CppArray
iAi:_Raycast3DCallback_BeginInvoke_m3028685017
cIg:__Z79RuntimeInvoker_RuntimeObject_Int64_t909078037_Int64_t909078037_Int64_t909078037PFvvEPK10MethodInfoPvPS4_
dOh:_EqualityComparer_1__cctor_m968537130_gshared
xsj:_TextGenerator_get_lineCount_m4287181941
sVc:__ZN15DownloadHandler7OnAbortEv
_Tf:_Comparison_1_Invoke_m353639462_gshared
eCg:_UInt64_System_IConvertible_ToDecimal_m4205696037
R3d:_GraphicRegistry_RegisterGraphicForCanvas_m2284226562
fIa:__Z21SourceMipLevelForBlitiiii
Xlb:__ZN31CanvasBatchIntermediateRenderer15AddAsRenderNodeER15RenderNodeQueueRK20DeprecatedSourceData
Dch:_GenericTypeParameterBuilder_GetEvent_m4210567427
kvh:_Playable__ctor_m2954384102
loe:_Enumerator_get_Key_m2908810861
NRc:__ZN11UnityEngine7Connect14AppUpdateEventD0Ev
zKi:_AnimatorControllerPlayable_SetBool_m1780824884_AdjustorThunk
_4g:__Z35RuntimeInvoker_UIVertex_t1204258818PFvvEPK10MethodInfoPvPS4_
b_:__ZdlPv
xF:__ZN23AnimationOffsetPlayable11SetRotationE11Quaternionf
cs:__ZN11UnityEngine9Animation28GenericAnimationBindingCacheD2Ev
bJi:_AnimationOffsetPlayable_op_Explicit_m363086289
KZh:__ZL68RemotingSurrogateSelector_t2821375126_CustomAttributesCacheGeneratorP21CustomAttributesCache
Apf:_List_1_System_Collections_IList_IndexOf_m39706221_gshared
vzj:_UnityEvent_1_RemoveListener_m219620396_gshared
aIh:_Dictionary_2_Remove_m1849931834_gshared
Qqe:_Decimal_op_Implicit_m2971610317
n1d:_Graphic_UnregisterDirtyVerticesCallback_m1526739224
m8a:__Z18RestoreRenderStateR20CameraRenderOldStateR17ShaderPassContext
Tje:_SynchronizedArrayListWrapper_get_Item_m3309425850
GNb:__Z18Transfer_BlittableI18StreamedBinaryReadILb1EELb1E5RectTIfEEvRK29SerializationCommandArgumentsR31RuntimeSerializationCommandInfo
WJb:__Z18Transfer_BlittableI24GenerateTypeTreeTransferLb0E11ColorRGBA32EvRK29SerializationCommandArgumentsR31RuntimeSerializationCommandInfo
p4:__Z25scripting_class_from_name17ScriptingImagePtrPKcS1_
Dgd:__ZN14dense_hash_mapI10KeyWrapperINSt3__24pairIPK12PropertyInfoP11Il2CppClassEEEj17ReflectionMapHashIS8_ENS9_14EqualsComparerINS1_8equal_toIS8_EEEENS1_9allocatorINS2_IKS9_jEEEEE15set_deleted_keyERSH_
QCb:__Z29scripting_class_enum_basetype17ScriptingClassPtr
I_i:__ZN21InterfaceFuncInvoker3IP12Il2CppObjectP8String_tS1_PS3_E6InvokeEjP11Il2CppClassS1_S3_S1_S4_
G4d:_GraphicRaycaster_get_ignoreReversedGraphics_m2757724367
BTg:__Z111RuntimeInvoker_Void_t1841601450_Vector4_t2243707581_Vector4_t2243707581_Vector4_t2243707581_Vector4_t2243707581PFvvEPK10MethodInfoPvPS4_
mjb:__ZNK12BaseRenderer18GetRenderNodeCountEv
odh:_GenericTypeParameterBuilder_GetHashCode_m867619899
lyg:_TimeSpan_ToString_m2947282901
wNh:_EqualityComparer_1__cctor_m3397254040_gshared
yea:__ZNK20LocalFileSystemPosix6ParentERK13FileEntryDataRN4core12basic_stringIcNS3_20StringStorageDefaultIcEEEE
qhi:__ZL136AnimatorControllerPlayable_t1744083903_CustomAttributesCacheGenerator_AnimatorControllerPlayable_CrossFadeInternal_m1106561990____layer3P21CustomAttributesCache
$xh:_RaycastHit2D_get_distance_m4065977169
rsj:_TextGenerator_get_verts_m3124035267
P8e:_MonoType_CheckMethodSecurity_m4116906190
_uj:_Vector2_get_one_m3174311904
kQe:_Array_Sort_TisVector2_t2243707579_m1307634946_gshared
Mxa:__ZN17PersistentManager22CheckInstanceIDsLoadedEPii
$Fa:__ZN7ApiGLES17CopyBufferSubDataEjjlll
vnb:__ZNK20ScriptPlayableOutput7GetTypeEv
gdi:__ZL99Sprite_t309593783_CustomAttributesCacheGenerator_Sprite_get_associatedAlphaSplitTexture_m3617241169P21CustomAttributesCache
QZc:__ZNSt3__26vectorIPK10Il2CppTypeNS_9allocatorIS3_EEE7reserveEj
$Kj:_U3CCreateWhereIteratorU3Ec__Iterator1D_1_Reset_m1773515612_gshared
J$a:__ZN25CameraStackRenderingState20GetOrCreateBuiltinRTE24BuiltinRenderTextureTypeii17DepthBufferFormat19RenderTextureFormatj22RenderTextureReadWrite14VRTextureUsagei
i8d:_InputField_get_caretPosition_m1005871812
DGh:_Dictionary_2__ctor_m3111963761_gshared
$Bj:_AesManaged_CreateEncryptor_m1729287824
wub:__ZNK14Texture2DArray26CanReuploadDataToGfxDeviceEv
n4a:__ZN17PrePassRenderLoop14RenderBasePassEP13RenderTextureRK14LightingLayersR13dynamic_arrayI16RenderObjectDataLj4EERbR10MinMaxAABB
qib:__ZN17GlobalGameManager23VirtualRedirectTransferER17RemapPPtrTransfer
jDc:_sfnt_stream_close
Yge:_Char_System_IConvertible_ToInt16_m2741348777_AdjustorThunk
Ukc:__ZN5IMGUI18RepaintModalWindowER8GUIState
uHj:__ZL25UnresolvedVirtualCall_129P12Il2CppObject17Color_t2020392075PK10MethodInfo
m3d:_FontData_get_verticalOverflow_m83665814
OMf:_ReadOnlyCollection_1_System_Collections_Generic_IListU3CTU3E_set_Item_m1547026160_gshared
RSh:__ZL61MarshalAsAttribute_t2900773360_CustomAttributesCacheGeneratorP21CustomAttributesCache
btb:__Z23SetSpriteMeshIndexCountP14SharedMeshDataj
Rha:__ZN7Texture13SetFilterModeEi
cbc:__Z46Register_UnityEngine_Application_get_isPlayingv
Cvd:__ZN6il2cpp8metadata13GenericMethod9GetMethodEPK19Il2CppGenericMethod
Iq:__ZNSt3__26vectorIN4core12basic_stringIcNS1_20StringStorageDefaultIcEEEENS_9allocatorIS5_EEE7reserveEj
ite:_Convert_ToUInt16_m2130758075
HHf:_Collection_1_get_Item_m1415164804_gshared
cVg:__Z132RuntimeInvoker_Void_t1841601450_RuntimeObject_AnimatorStateInfo_t2577870592_Int32_t2071877448_AnimatorControllerPlayable_t1744083903PFvvEPK10MethodInfoPvPS4_
ebg:_X509BasicConstraintsExtension_Encode_m3505127076
QAi:_Scrollbar_OnRectTransformDimensionsChange_m330142657
SAa:__ZN13GfxDeviceGLES11SetViewportERK5RectTIiE
l6d:_Image_get_pixelsPerUnit_m4104195799
FGi:_Toggle_InternalToggle_m2323729210
$we:_Decimal_System_IConvertible_ToInt64_m2504363272
vic:__Z24Time_Get_Custom_PropTimev
ece:_Array_GetValue_m3182152438
Wd:_emscripten_glDepthRange
xqg:_DESTransform_CipherFunct_m3559419566
TCg:_UIntPtr_get_Size_m537421489
kId:_Rijndael_Create_m113171669
omh:_GUILayoutGroup_CalcWidth_m4107152934
aog:_RuntimeFieldHandle_get_Value_m3963757144
iTb:__Z14resize_trimmedINSt3__26vectorIN9ShaderLab20SerializedSubProgram12UAVParameterENS0_9allocatorIS4_EEEEEvRT_j
Ugg:_SerializationInfo_AddValue_m1781549036
D2g:__Z59RuntimeInvoker_Void_t1841601450_PlayableBinding_t2498078091PFvvEPK10MethodInfoPvPS4_
HIi:_AnimationLayerMixerPlayable_SetLayerMaskFromAvatarMask_m2582039992_AdjustorThunk
U_f:_TlsServerKeyExchange_verifySignature_m3641534563
QIf:_Collection_1_Clear_m445145071_gshared
TEi:_Slider_FindSelectableOnLeft_m3136767885
FHa:__ZN4crndL20crnd_default_reallocEPvjPjbS0_
Y3d:__ZN21InterfaceFuncInvoker1IP19Material_t193706927S1_E6InvokeEjP11Il2CppClassP12Il2CppObjectS1_
RHe:_Array_BinarySearch_TisInt32_t2071877448_m51233948_gshared
sPj:__ZNSt3__212basic_stringIcNS_11char_traitsIcEENS_9allocatorIcEEEC2ERKS5_
akg:_ProviderData_CopyFrom_m431414335
AWg:__Z74RuntimeInvoker_Boolean_t3825574718_Vector2_t2243707579_Vector2_t2243707579PFvvEPK10MethodInfoPvPS4_
Utb:__ZN18SpriteAtlasManager19AddRequestingSpriteE4PPtrI6SpriteE
Ytg:_UTF32Encoding_GetPreamble_m767706727
gic:__Z33Texture_CUSTOM_Internal_GetHeightP12Il2CppObject
KFf:_Collection_1_System_Collections_IList_Add_m1953936885_gshared
Cae:_LayoutGroup_get_preferredHeight_m3901163825
tMg:__Z111RuntimeInvoker_Void_t1841601450_RuntimeObject_SByte_t454417549_ObjectU26_t597476745_HeaderU5BU5DU26_t2818328198PFvvEPK10MethodInfoPvPS4_
l7a:__ZN23ScriptableRenderContextC2Ev
Vjb:__ZN4PPtrI13RenderTextureE8TransferI18StreamedBinaryReadILb0EEEEvRT_
Jac:__Z22InverseTransformVector23TransformAccessReadOnlyRKN4math7_float3E
Aqe:_DateTime_AbsoluteDays_m3061694073
gKc:_UNITY_FT_Stream_GetChar
dOb:__Z18Transfer_BlittableI18StreamedBinaryReadILb1EELb1EdEvRK29SerializationCommandArgumentsR31RuntimeSerializationCommandInfo
_Bh:_Enumerator_System_Collections_IEnumerator_get_Current_m229223308_gshared
l8h:__ZL202U3CCreateWhereIteratorU3Ec__Iterator1D_1_t2523986802_CustomAttributesCacheGenerator_U3CCreateWhereIteratorU3Ec__Iterator1D_1_System_Collections_Generic_IEnumerableU3CTSourceU3E_GetEnumerator_m2392330777P21CustomAttributesCache
ZCb:__Z26BuildSerializationCacheFor17ScriptingClassPtrRb
nKa:__ZN7ApiGLES15BlitFramebufferEN2gl6HandleILNS0_10ObjectTypeE9EEENS0_15FramebufferReadES3_S3_iiiiiiiiNS0_15FramebufferTypeE
g7c:_il2cpp_class_get_name
CSg:__Z112RuntimeInvoker_RuntimeObject_RuntimeObject_RuntimeObject_RuntimeObject_RuntimeObject_RuntimeObject_RuntimeObjectPFvvEPK10MethodInfoPvPS4_
bYh:__ZL55GCHandleType_t1970708122_CustomAttributesCacheGeneratorP21CustomAttributesCache
XVi:_Event_Init_m3901382626
Cje:_FixedSizeArrayListWrapper_AddRange_m2071800418
ND:__ZN13ProduceHelperI8AnimatorLb0EE7ProduceE18MemLabelIdentifier18ObjectCreationMode
Pfa:__Z9InitInputv
ONg:__Z85RuntimeInvoker_Boolean_t3825574718_Int64_t909078037_Int64_t909078037_SByte_t454417549PFvvEPK10MethodInfoPvPS4_
Pfd:__ZN30dense_hashtable_const_iteratorINSt3__24pairIK10KeyWrapperIPK22Il2CppGenericParameterEPK24MonoGenericParameterInfoEES6_N6il2cpp5utils11PointerHashIS4_EEN14dense_hash_mapIS6_SA_SF_NS6_14EqualsComparerINS0_8equal_toIS5_EEEENS0_9allocatorISB_EEE9SelectKeyESK_SM_E30advance_past_empty_and_deletedEv
nof:_Enumerator_VerifyState_m2358705882_AdjustorThunk
dDc:_UNITY_tt_face_build_cmaps
ccd:__ZN6il2cpp2gc19AppendOnlyGCHashMapINSt3__24pairIPK10MethodInfoP11Il2CppClassEEP22Il2CppReflectionMethod17ReflectionMapHashIS9_ENS2_8equal_toIS9_EEE3AddERKS9_SB_
Aeb:__ZN16MemoryFileSystem6DeleteER13FileEntryDatab
rvj:_Vector3_get_normalized_m936072361
ova:__ZL21BlitScaleStbImageImplRK14ImageReferenceRS_NS_10ColorSpaceE
z5f:_TlsStream_set_Position_m378064217
sD:__ZN18StreamedBinaryReadILb0EE21TransferSTLStyleArrayI13dynamic_arrayIjLj4EEEEvRT_17TransferMetaFlags
pGb:__Z29Transfer_Blittable_ArrayFieldI14SafeBinaryReadyEvRT_R9ArrayInfoRK23StaticTransferFieldInfo
eHj:__ZL25UnresolvedVirtualCall_113P12Il2CppObjectiiiPK10MethodInfo
AO:__ZN20SoundChannelInstance15setChannelGroupEPN4FMOD12ChannelGroupE
sNd:_Evidence_Equals_m2325859915
y8g:_Default__ctor_m172834064
tc:invoke_vifffii
jri:__ZL77StandaloneInputModule_t70867863_CustomAttributesCacheGenerator_m_VerticalAxisP21CustomAttributesCache
uQb:__Z35Transfer_Blittable_FixedBufferFieldI18StreamedBinaryReadILb0EEaEvRK29SerializationCommandArgumentsR31RuntimeSerializationCommandInfo
Hkd:__ZN6il2cpp2vm9Exception27RaiseNullReferenceExceptionEv
Rij:_Regex_IsMatch_m2159202025
SQa:__ZNK25MultiBlocksMemoryFileData5CloneEv
fBd:_GC_add_ext_descriptor
dCd:__ZN6il2cpp2os14WindowsRuntime22GetRestrictedErrorInfoEv
D6d:_Image_CalculateLayoutInputHorizontal_m3275149860
ahg:_RemotingServices_GetMethodBaseFromName_m3271095947
ISa:__ZN17ArchiveFileSystem11CreateAsDirER13FileEntryData
tRj:dynCall_iiiiiiiiiiii
zSd:_ASCIIEncoding_GetBytes_m3617160053
Pbj:_InternalEnumerator_1_MoveNext_m2289229080_AdjustorThunk
YZf:_CipherSuiteCollection_System_Collections_IList_RemoveAt_m143866082
IE:__ZN26AnimatorControllerPlayable26ParameterControlledByCurveEi
Nza:__ZN22VertexDeclarationCacheD0Ev
yXb:__ZL26KeywordSetToStringDontSortRKNSt3__26vectorIN4core12basic_stringIcNS1_20StringStorageDefaultIcEEEENS_9allocatorIS5_EEEERS5_
rqa:__ZN6prcoreL17RemapGenericFloatI16TexFormatRGFloat17TexFormatRGBAHalfEEvPKNS_9InnerInfoE
eJ:__ZN12AudioManager22CreateFMODSoundFromWWWEP10IWWWStream15FMOD_SOUND_TYPE17FMOD_SOUND_FORMATjjbbP10SampleClip
U1b:__ZNK32RendererMaterialAnimationBinding15GenerateBindingERKN4core12basic_stringIcNS0_20StringStorageDefaultIcEEEEbRN11UnityEngine9Animation14GenericBindingE
jdd:__ZN24dense_hashtable_iteratorINSt3__24pairIK10KeyWrapperINS1_IPK11Il2CppImageP11Il2CppClassEEEjEES9_17ReflectionMapHashIS8_EN14dense_hash_mapIS9_jSD_NS9_14EqualsComparerINS0_8equal_toIS8_EEEENS0_9allocatorISB_EEE9SelectKeyESI_SK_E30advance_past_empty_and_deletedEv
nSg:__Z40RuntimeInvoker_HandshakeType_t2540099417PFvvEPK10MethodInfoPvPS4_
pXi:_UnityEventBase_UnityEngine_ISerializationCallbackReceiver_OnBeforeSerialize_m1773826808
nLh:_DefaultComparer_GetHashCode_m361278435_gshared
YQ:__ZNK19AudioPlayableOutput7GetTypeEv
F3:__ZN8Remapper23GetOrGenerateInstanceIDERK26SerializedObjectIdentifier
A5e:_StreamWriter_Flush_m3426120024
OSa:__ZN17FileSystemHandler10AtomicMoveER13FileEntryDataS1_
_a:invoke_iiiiiifffiiifii
d3e:_MemoryStream__ctor_m1489366847
NNd:_SecurityElement_IsValidTag_m64902195
bCh:_Enumerator_System_Collections_IEnumerator_get_Current_m229223308_AdjustorThunk
pjh:_PropertyInfo_SetValue_m2961483868
Dlh:_GUILayoutEntry_set_style_m70917293
fvf:_List_1_System_Collections_IList_Contains_m4193366963_gshared
x4c:__ZNSt3__214__split_bufferI6pollfdRNS_9allocatorIS1_EEED2Ev
big:_DictionaryEnumerator_get_Value_m1915638953
W8g:_ConstructorInfo_Invoke_m2144827141
Wdi:__ZL82Object_t1021602117_CustomAttributesCacheGenerator_Object_get_hideFlags_m4158950869P21CustomAttributesCache
otb:__ZN6Sprite8TransferI24GenerateTypeTreeTransferEEvRT_
kjc:__Z48Register_UnityEngine_Transform_SetAsFirstSiblingv
Qjh:_Font_get_fontSize_m1732593415
rtb:__ZN7SubMesh8TransferI24GenerateTypeTreeTransferEEvRT_
sih:_MonoProperty_get_CanWrite_m2124922514
b5c:__ZN6il2cpp6icalls8mscorlib6SystemL16CheckMemberMatchI9FieldInfoNS_5utils10functional6FilterINSt3__212basic_stringIcNS8_11char_traitsIcEENS8_9allocatorIcEEEENS5_13VmStringUtils23CaseInsensitiveComparerEEEEEbPKT_PK11Il2CppClassSN_iRKT0_
cZf:_CipherSuite_get_HashAlgorithmType_m3902365773
vOj:_poll
R2e:_Stream_BeginRead_m1985960185
qoh:_GUIStyle_GetFontInternalDuringLoadingThread_m229734483
a0b:__ZN13ProduceHelperI14Texture2DArrayLb0EE7ProduceE18MemLabelIdentifier18ObjectCreationMode
mXf:_MD4Managed_GG_m1462438360
ofc:__Z46Mesh_CUSTOM_PrintErrorCantAccessMeshForIndicesP12Il2CppObject
sgc:__Z53PlayableHandle_CUSTOM_INTERNAL_CALL_GetPlayableTypeOfR9HPlayable
Bac:__ZN9Transform23SetSiblingIndexInternalEib
ycf:_SimpleCollator_LastIndexOfOrdinal_m45234497
F0e:_BinaryReader_CheckBuffer_m1059275266
eBa:__ZN13GfxDeviceGLES17DestroySubProgramEPN9ShaderLab10SubProgramE
Ut:__ZN7mecanim5human12HumanPoseSubERNS0_9HumanPoseERKS1_S4_
_Wf:_MD4_Create_m2582504069
KEj:_HashSet_1_System_Collections_IEnumerable_GetEnumerator_m2498631708_gshared
Cpd:__ZN6il2cpp8metadata15GenericMetadata15GetGenericClassEiPK17Il2CppGenericInst
Jee:_Boolean_System_IConvertible_ToInt16_m977801621
dFb:__Z18Transfer_BlittableI14SafeBinaryReadLb0E10Matrix4x4fEvRK29SerializationCommandArgumentsR31RuntimeSerializationCommandInfo
DUa:__Z24GetFixedBehaviourManagerv
o0g:__Z69RuntimeInvoker_Void_t1841601450_Int32_t2071877448_Vector4_t2243707581PFvvEPK10MethodInfoPvPS4_
VYa:__ZN12FlareManager9UpdateJobEP25FlareManagerUpdateJobData
G4c:__ZN6il2cpp2vm10ThreadPool4WaitEP17Il2CppAsyncResultPPv
GMj:_vfprintf
Vgg:_SerializationException__ctor_m1019897788
poa:__ZL13SortTexByNameRKNSt3__24pairIN9ShaderLab16FastPropertyNameEN18UnityPropertySheet11UnityTexEnvEEES7_
GZa:__ZN20DynamicPropertySheetD0Ev
$bb:__ZN14SafeBinaryRead17RegisterConverterEPKcS1_PFbPvRS_E
$Z:__ZN35RegisterRuntimeInitializeAndCleanup8RegisterEPFvPvES2_iS0_
Ade:_AsyncCallback__ctor_m3071689932
vSf:_ReadOnlyCollection_1_System_Collections_IList_Clear_m2600246370_gshared
M1g:__Z62RuntimeInvoker_Int32_t2071877448_ParameterModifier_t1820634920PFvvEPK10MethodInfoPvPS4_
Qff:_DSAManaged_NormalizeArray_m2287089393
tjc:__Z21Object_CUSTOM_DestroyP12Il2CppObjectf
Icj:_InternalEnumerator_1_System_Collections_IEnumerator_get_Current_m2389982234_AdjustorThunk
HUa:__ZN8Material26ResetAllCachedMaterialDataEP6Shader
yDi:_Selectable_get_interactable_m1725029500
PRh:__ZL66RuntimeArray_CustomAttributesCacheGenerator_Array_Sort_m3002148658P21CustomAttributesCache
rKc:_UNITY_TT_Get_MM_Var
$va:__ZN24GenerateTypeTreeTransfer21TransferResourceImageE19ActiveResourceImagePKcR13StreamingInfoPvjiPKN5Unity4TypeE
aa:invoke_diddi
rWd:_ExecuteEvents__cctor_m288775360
aMc:__ZNK2UI6Canvas13GetRenderModeEv
Ere:_Double_TryParseStringConstant_m2585405703
n7d:__ZN21InterfaceFuncInvoker1I22UICharInfo_t3056636800iE6InvokeEjP11Il2CppClassP12Il2CppObjecti
uPi:_AudioClipPlayable_GetHandle_m234442096_AdjustorThunk
xEb:__Z18Transfer_BlittableI14SafeBinaryReadLb0EiEvRK29SerializationCommandArgumentsR31RuntimeSerializationCommandInfo
u3c:__ZN6il2cpp2vm13MetadataCache30GetPropertyDefinitionFromIndexEi
XXi:_ResourceEnumerator__ctor_m1679839941
vId:_RijndaelTransform_Clear_m1652144089
t1e:_MonoIO_GetException_m2577367044
UTc:__ZN22BaseUnityConnectClient17InitializeSessionERKN4core12basic_stringIcNS0_20StringStorageDefaultIcEEEES6_N19CloudServiceHandler13InitModeFlagsE
CEh:_Enumerator_MoveNext_m1404007384_gshared
jaf:_NumberFormatter_get_IsZero_m1325357749
zXj:_emscripten_glDeleteBuffers__wrapper
gXg:__Z121RuntimeInvoker_Void_t1841601450_Single_t2076509932_Single_t2076509932_Single_t2076509932_Single_t2076509932_RuntimeObjectPFvvEPK10MethodInfoPvPS4_
PAe:_Enum_ToObject_m322320225
vAh:_Enumerator_get_Current_m2754383612_gshared
Q8b:__ZN13MonoBehaviour34StopCoroutineFromEnumeratorManagedE18ScriptingObjectPtr
ZLd:_X509Certificate__ctor_m3860837120
NBc:_gray_raster_reset
YIi:_AnimationOffsetPlayable_CreateHandle_m1204489623
Wjh:_GameObject_Internal_CreateGameObject_m3428198595
V_g:__Z109RuntimeInvoker_RuntimeObject_Ray_t2469606224_Single_t2076509932_Int32_t2071877448_RuntimeObject_RuntimeObjectPFvvEPK10MethodInfoPvPS4_
hSi:_Camera_RaycastTry2D_m755036866
qSf:_ReadOnlyCollection_1_System_Collections_Generic_IListU3CTU3E_set_Item_m3663361643_gshared
_D:__ZN7mecanim9animation14AvatarConstant15InitializeClassEv
AVd:_EventTrigger_OnScroll_m626934407
zBb:__ZN30RuntimeInitializeOnLoadManager8TransferI18StreamedBinaryReadILb0EEEEvRT_
SJh:_Dictionary_2__ctor_m1206668798_gshared
ybh:_TypeBuilder_not_supported_m3178173643
wCc:_UNITY_tt_face_load_pclt
y9b:__ZL34GetComponentsImplementationRecurseILb1ELi0ELi2EEbR10GameObjectbRK17CompareParametersRK39GetComponentsImplementation_ReturnValue
jKh:_Dictionary_2_Init_m1045257495_gshared
jje:_ArrayListWrapper_Remove_m1105489978
WYa:__ZNK6Camera18WorldToScreenPointERK8Vector3fPb
rpj:_X509Extension_get_Oid_m3620527052
v_f:_TlsClientSettings_set_TargetHost_m3421266913
C3g:__Z84RuntimeInvoker_Void_t1841601450_RaycastResultU5BU5DU26_t2399554255_Int32_t2071877448PFvvEPK10MethodInfoPvPS4_
ane:_HashKeys_CopyTo_m3566668422
bAa:__Z18IsCompressedFormat14GraphicsFormat
l8i:_InternalEnumerator_1_Dispose_m549215360_AdjustorThunk
ehe:_Convert_ToSByte_m2665932200
V2:__ZNSt3__227__insertion_sort_incompleteIRPFbRKN18AwakeFromLoadQueue4ItemES4_EPS2_EEbT0_S9_T_
tah:_ILGenerator_label_fixup_m1325994348
iGh:_ValueCollection_System_Collections_ICollection_get_IsSynchronized_m45572582_gshared
y1c:__ZN14dense_hash_mapI10KeyWrapperIN6il2cpp5utils13dynamic_arrayIPK10Il2CppTypeLj4EEEEPFvvENS1_8metadata19Il2CppSignatureHashENS8_14EqualsComparerINSB_22Il2CppSignatureCompareEEENSt3__29allocatorINSG_4pairIKS8_SA_EEEEE15set_deleted_keyERSJ_
mzi:_Navigation_Equals_m4214630671_AdjustorThunk
CPf:_ReadOnlyCollection_1_System_Collections_Generic_IListU3CTU3E_set_Item_m257196015_gshared
Gfh:_FieldInfo_GetPseudoCustomAttributes_m2500972355
qqb:__ZN26EnlightenSystemInformation8TransferI14SafeBinaryReadEEvRT_
sSe:_Array_InternalArray__get_Item_TisLink_t2723257478_m2281261655_gshared
LPi:_AudioClipPlayable_INTERNAL_CALL_GetIsPlayingInternal_m4246314919
Twb:__ZN12MeshRendererD0Ev
pkj:_ExpressionAssertion_IsComplex_m783019628
bme:_Hashtable__ctor_m2702360557
Eh:_utime
BVe:_DateTimeFormatInfo_get_RawAbbreviatedDayNames_m3998113647
D9c:__ZNSt3__26vectorIN6il2cpp2vm17TypeNameParseInfoENS_9allocatorIS3_EEE8allocateEj
MVf:_PrimalityTest_Invoke_m4058801829
PTe:_Mesh_GetAllocArrayFromChannel_TisRuntimeObject_m1450958222_gshared
tn:FUNCTION_TABLE_viiiiif
Kkg:_RemotingConfiguration_SetCustomErrorsMode_m1844153208
yn:FUNCTION_TABLE_viiiiii
lDe:_CultureInfo_GetFormat_m3560116485
JC:__ZN7mecanim9animation22DestroyAvatarWorkspaceEPNS0_15AvatarWorkspaceERNS_6memory9AllocatorE
FSj:dynCall_viddi
hqj:_ScriptableObject_CreateInstance_m3271154163
M4d:__ZN21InterfaceFuncInvoker0IiE6InvokeEjP11Il2CppClassP12Il2CppObject
rjj:_AnchorInfo_get_IsPosition_m3791659233
BJe:_Array_InternalArray__IndexOf_TisResourceCacheItem_t333236149_m761772858_gshared
Pkc:__ZNSt3__210__list_impIN10GUIManager12SortedScriptE11memory_poolIS2_EE5clearEv
q3h:__ZL76Convert_t2607082565_CustomAttributesCacheGenerator_Convert_ToInt64_m44696721P21CustomAttributesCache
tnb:__ZN14PlayableOutput17SetSourcePlayableEP8Playable
$kg:_TrackingServices__cctor_m3639412334
oxj:_InvokableCall_1_add_Delegate_m3068046591_gshared
snc:__Z32GUIStyle_Set_Custom_PropRichTextP12Il2CppObjecth
bC:__ZN7mecanim9animation29MotionOutputGetDeltaTransformEPKNS0_12MotionOutputE
WZb:__Z13RegisterClassI16GraphicsSettingsEvv
uGh:_ValueCollection_System_Collections_IEnumerable_GetEnumerator_m1773104428_gshared
uE:__ZN8Animator14OnAddComponentEPN5Unity9ComponentE
kBf:_List_1_CheckMatch_m1184924052_gshared
Jic:__Z43Transform_CUSTOM_INTERNAL_get_localRotationP12Il2CppObjectP11Quaternionf
Qsj:_Touch_get_fingerId_m4109475843_AdjustorThunk
HVj:_glGetShaderInfoLog__wrapper
gi:_emscripten_glGetTexParameteriv
Tuf:_List_1_ToArray_m3752387798_gshared
Ehd:__ZN15dense_hashtableINSt3__24pairIK10KeyWrapperINS1_IP11Il2CppClassjEEES4_EES6_N6il2cpp8metadata14ArrayClassHashEN14dense_hash_mapIS6_S4_SB_NS6_14EqualsComparerINSA_17ArrayClassCompareEEENS0_9allocatorIS8_EEE9SelectKeyESF_SH_EC2EjRKSB_RKSF_RKSJ_
hYf:_RSAManaged_ImportParameters_m3060955884
Ejf:_DeriveBytes__ctor_m3089550878
x_i:_ChannelData_CopyFrom_m4049054607
a_b:__Z13RegisterClassI4MeshEvv
$pi:__ZL94AxisEventData_t1524870173_CustomAttributesCacheGenerator_AxisEventData_get_moveDir_m3968662359P21CustomAttributesCache
Tmb:__ZN8PlayableD0Ev
cU:__Z84Register_UnityEngine_Audio_AudioMixerPlayable_INTERNAL_CALL_SetAutoNormalizeInternalv
vK:__ZN12AudioManager8TransferI19StreamedBinaryWriteILb0EEEEvRT_
w3e:_WriteDelegate_Invoke_m2103848735
Svf:_List_1_get_Capacity_m4262042666_gshared
$Dj:_GenericEqualityComparer_1_GetHashCode_m1950634276_gshared
VOb:__ZN18StreamedBinaryReadILb1EE21TransferSTLStyleArrayI13dynamic_arrayI11ColorRGBA32Lj4EEEEvRT_17TransferMetaFlags
eEh:_Transform_1_EndInvoke_m687617772_gshared
oBj:_Locale_GetText_m512920887
T1b:__ZNK32RendererMaterialAnimationBinding12GetPPtrValueERKN11UnityEngine9Animation10BoundCurveE
LPb:__Z18Transfer_BlittableI18StreamedBinaryReadILb0EELb0E8Vector2fEvRK29SerializationCommandArgumentsR31RuntimeSerializationCommandInfo
skg:_RemotingConfiguration_get_ProcessId_m3870172209
JOc:__ZN2UI11CanvasGroup12CleanupClassEv
xXe:_SortKey_ToString_m2406913228
Qea:__ZN22LocalFileSystemHandler9MakeLocalER13FileEntryDatab
kxd:__ZN6il2cpp2vm8Profiler10AllocationEP12Il2CppObjectP11Il2CppClass
Lqe:_Convert_ToDateTime_m1020507389
q4b:__ZNK9HPlayable7IsValidEv
Rzc:__ZNSt3__23mapIN20TextRenderingPrivate7FontRefENS1_6OSFontENS_4lessIS2_EENS_9allocatorINS_4pairIKS2_S3_EEEEEixERS8_
Bca:__Z13FormatOrderedPKcz
RHh:_Dictionary_2_CopyToCheck_m1657324124_gshared
f6c:__ZN6il2cpp2vm8basepathEPKc
lmg:_ObjectManager_RegisterObjectInternal_m879109503
FDe:_Array_get_swapper_TisVector4_t2243707581_m97441823_gshared
Oxa:__ZNSt3__26__sortIRNS_4lessIiEEPiEEvT0_S5_T_
bxc:__ZN14SafeBinaryRead21TransferSTLStyleArrayI10vector_mapINSt3__24pairIttEEfN20TextRenderingPrivate8FontImpl14KerningCompareENS2_9allocatorINS3_IS4_fEEEEEEEvRT_17TransferMetaFlags
w_b:__Z13RegisterClassI15QualitySettingsEvv
Tvd:__ZN6il2cpp2vm6String21InitializeEmptyStringEP11Il2CppClass
c4a:__ZN25DeferredRenderLoopScratchD0Ev
gw:__ZN27AnimationLayerMixerPlayable14SetInputWeightEif
Qt:__ZN7mecanim9animation17EvaluateHumanPoseERKNS0_18ClipMuscleConstantERKNS0_15ClipMuscleInputEPKfRKNS0_12MotionOutputERNS_5human9HumanPoseE
q1h:__ZL90UTF7Encoding_t741406939_CustomAttributesCacheGenerator_UTF7Encoding_GetHashCode_m359766848P21CustomAttributesCache
SSb:__ZN15dense_hashtableINSt3__24pairIKiN4core17string_with_labelILi1EEEEEi18SInt32HashFunctionN14dense_hash_mapIiS5_S7_NS0_8equal_toIiEE13stl_allocatorIS6_L18MemLabelIdentifier1ELi16EEE9SelectKeyESA_SD_E9copy_fromERKSG_j
qka:__ZN6Camera11ResetAspectEv
Pzg:_Type_get_IsGenericType_m3396841573
bYa:__ZNSt3__227__insertion_sort_incompleteIRPFbP10GUIElementS2_EPS2_EEbT0_S7_T_
ugc:__Z56PlayableHandle_CUSTOM_INTERNAL_CALL_SetPlayStateInternalR9HPlayable9PlayState
gbg:_X509BasicConstraintsExtension_get_HasPathLengthConstraint_m3788532759
Ulb:__ZNK17InstancedPropInfo22FillInstancePropertiesER19ShaderPropertySheetjPK17BatchInstanceDatajRK15RenderNodeQueue
Rla:__ZN22CreateGpuProgramOutputD2Ev
wYh:__ZL58_AssemblyBuilder_t418776366_CustomAttributesCacheGeneratorP21CustomAttributesCache
FLb:__Z18Transfer_BlittableI19StreamedBinaryWriteILb0EELb1EsEvRK29SerializationCommandArgumentsR31RuntimeSerializationCommandInfo
FJd:_RSACryptoServiceProvider_EncryptValue_m802714447
smd:__ZN6il2cpp6icalls8mscorlib6System2IO6MonoIO9SetLengthE12Il2CppIntPtrxPi
P2h:__ZL76Convert_t2607082565_CustomAttributesCacheGenerator_Convert_ToByte_m932798552P21CustomAttributesCache
gS:__ZN13ProduceHelperI13AudioListenerLb0EE7ProduceE18MemLabelIdentifier18ObjectCreationMode
Bqf:_List_1_System_Collections_ICollection_get_SyncRoot_m1594235606_gshared
gUe:_DateTimeFormatInfo_GetInstance_m3133223810
eVf:_ModulusRing_BarrettReduction_m2802101099
tRa:__ZN12HandlerChain4OpenER13FileEntryData14FilePermission16FileAutoBehavior
rCj:_EqualityComparer_1_get_Default_m2134906921_gshared
zgh:_MonoMethodInfo_GetParametersInfo_m3456861922
gcd:__ZN15dense_hashtableINSt3__24pairIK10KeyWrapperINS1_IPK10MethodInfoP11Il2CppClassEEEjEES9_17ReflectionMapHashIS8_EN14dense_hash_mapIS9_jSD_NS9_14EqualsComparerINS0_8equal_toIS8_EEEENS0_9allocatorISB_EEE9SelectKeyESI_SK_E6insertERKSB_
qsa:__ZN18AssetBundleManager55CollectPreloadObjectsFromAssetBundleLoadAssetOperationsER13dynamic_arrayIiLj4EE
J5:__ZN14FileCacherReadD2Ev
fxa:__ZN13RendererScene23UpdatePreviousFrameDataEii
UJd:_RSAPKCS1SignatureDeformatter_VerifySignature_m1825067195
Qcc:__Z50Register_UnityEngine_CullingGroup_FinalizerFailurev
Gmf:_KeyValuePair_2_ToString_m2613351884_gshared
_ra:__ZN27UnloadUnusedAssetsOperationD0Ev
fkb:__ZN6Camera15ThreadedCleanupEv
cx:__ZN26AnimatorControllerPlayable6MemoryD2Ev
_ri:__ZL69ColorBlock_t2652774230_CustomAttributesCacheGenerator_m_DisabledColorP21CustomAttributesCache
fZf:_CipherSuite_get_Code_m3902213587
oAi:_Scrollbar__ctor_m2244981801
omd:__ZN6il2cpp6icalls8mscorlib6System2IO6MonoIO9GetLengthE12Il2CppIntPtrPi
ong:_ObjectRecord_get_HasPendingFixups_m670959802
wKd:_SHA256Managed_HashCore_m4111458495
bDe:_CultureInfo_get_CompareInfo_m3085280862
mng:_ObjectManager_RecordDelayedFixup_m1895730844
And:__ZNK15dense_hashtableINSt3__24pairIK10KeyWrapperIP14Il2CppIUnknownEjEES5_N6il2cpp5utils11PointerHashIS3_EEN14dense_hash_mapIS5_jSB_NS5_14EqualsComparerINS0_8equal_toIS4_EEEENS0_9allocatorIS7_EEE9SelectKeyESG_SI_E12test_deletedERK24dense_hashtable_iteratorIS7_S5_SB_SK_SG_SI_E
gxf:_List_1_System_Collections_IList_get_IsFixedSize_m3522184224_gshared
xI:__ZN9AudioClip23VirtualRedirectTransferER18StreamedBinaryReadILb0EE
y$f:_ClientSessionInfo_CheckDisposed_m1394638186
mpg:_SByte_Parse_m2544167007
DPd:_Single_CompareTo_m2081476257
Pye:_StackFrame_GetILOffset_m115192054
Bog:_RuntimeTypeHandle_GetHashCode_m3697629454_AdjustorThunk
ddf:_BigInteger__ctor_m2945783161
i1f:_TlsClientHello_Update_m1723542631
TZh:__ZL96ProxyAttribute_t4031752430_CustomAttributesCacheGenerator_ProxyAttribute_IsContextOK_m2391079277P21CustomAttributesCache
CYe:_IndexOutOfRangeException__ctor_m3497760912
B2g:__Z60RuntimeInvoker_Void_t1841601450_AnimatorClipInfo_t3905751349PFvvEPK10MethodInfoPvPS4_
_Qf:_ReadOnlyCollection_1_CopyTo_m1652036789_gshared
Fj:_glCopyTexSubImage2D
kkg:_RealProxy_InternalGetTransparentProxy_m3415358600
a2b:__ZNK24RendererAnimationBinding13GetFloatValueERKN11UnityEngine9Animation10BoundCurveE
tX:__ZNK15DownloadHandler14HasPendingDataEv
GEf:_Collection_1_Insert_m3594407958_gshared
Lda:__ZN18ScreenManagerWebGL13SetShowCursorEb
ixd:__ZN6il2cpp6icalls8mscorlib6System7Convert24InternalFromBase64StringEP12Il2CppStringb
zLd:_SymmetricAlgorithm_CreateDecryptor_m4240570785
bGi:_Text_get_preferredWidth_m3352156860
X7g:_AssemblyCompanyAttribute__ctor_m1217508649
MOc:__ZN2UI13CanvasManager14GetRenderOrderEPKNS_6CanvasE
bFb:__Z18Transfer_BlittableI14SafeBinaryReadLb0E5RectTIfEEvRK29SerializationCommandArgumentsR31RuntimeSerializationCommandInfo
GQf:_ReadOnlyCollection_1_System_Collections_Generic_IListU3CTU3E_RemoveAt_m878653284_gshared
mUe:_DateTimeFormatInfo_GetFormat_m3676195179
uGa:__ZN14GfxContextGLES14GetFramebufferEv
sWg:__Z92RuntimeInvoker_Void_t1841601450_PlayableHandleU26_t4210769902_RuntimeObject_SByte_t454417549PFvvEPK10MethodInfoPvPS4_
cpa:__ZN6prcoreL21CreateRemapAnyBlitterE13TextureFormatS0_
xFd:__ZN6il2cpp2os5Event4WaitEjb
H7b:__ZN17AnimationCurveTplIfE16StripInvalidKeysEv
xKe:_Array_InternalArray__ICollection_Add_TisKeyValuePair_2_t3716250094_m2381539361_gshared
okf:_X509Extension_WriteLine_m2850991173
FNc:__ZNK2UI6Canvas17GetSortingLayerIDEv
DQh:__ZL40UIntPtr_t_CustomAttributesCacheGeneratorP21CustomAttributesCache
$7c:_il2cpp_method_has_attribute
Q3b:__Z13RegisterClassI17GlobalGameManagerEvv
J6a:__ZN8Renderer24SetupNewRendererForSceneEv
_vi:__ZL70GridLayoutGroup_t1515633077_CustomAttributesCacheGenerator_m_StartAxisP21CustomAttributesCache
LI:__ZL16FMOD_ErrorString11FMOD_RESULT_599
cFe:_Array_InternalArray__ICollection_Remove_TisInt64_t909078037_m2653583130_gshared
ytf:_List_1_AddCollection_m2628217188_gshared
gvg:_Thread_get_ExecutionContext_m922067206
gtc:__Z35Transfer_Blittable_FixedBufferFieldI8JSONReadtEvRK29SerializationCommandArgumentsR31RuntimeSerializationCommandInfo
i$f:_RecordProtocol_get_Context_m2688493529
cna:__ZN4PPtrI7TextureE8TransferI14SafeBinaryReadEEvRT_
N4b:__ZN14PlayableOutput6HandleEv
Lsb:__ZNK6Sprite22GetTypeVirtualInternalEv
TBi:_ScrollRect_get_viewport_m3177057249
sn:FUNCTION_TABLE_iiiiiiiiiiiiii
HQg:__Z100RuntimeInvoker_Void_t1841601450_SByte_t454417549_SByte_t454417549_Int32_t2071877448_SByte_t454417549PFvvEPK10MethodInfoPvPS4_
fVi:_CustomYieldInstruction_get_Current_m1743233962
tTc:__ZN19UnityConnectService18OnPlayerQuitStaticEPS_
mDc:_UNITY_tt_get_cmap_info
VSd:_DecoderExceptionFallback_GetHashCode_m2972426052
jab:__ZN16ReflectionProbes8ScheduleEN18ReflectionProbeJob7JobTypeEP15ReflectionProbei
VJf:_Collection_1_IsFixedSize_m3675221982_gshared
z3h:__ZL77Convert_t2607082565_CustomAttributesCacheGenerator_Convert_ToSByte_m883113940P21CustomAttributesCache
qpf:_Enumerator_MoveNext_m3293920409_AdjustorThunk
ffa:__Z18IsDirectoryCreatedRKN4core12basic_stringIcNS_20StringStorageDefaultIcEEEE
X2g:__Z68RuntimeInvoker_Void_t1841601450_Int32_t2071877448_Double_t4078015681PFvvEPK10MethodInfoPvPS4_
LMc:__ZN2UI13CanvasManagerD2Ev
gfj:_Comparer_1__cctor_m3112251759_gshared
Mui:__ZL73ScrollRect_t1199013257_CustomAttributesCacheGenerator_m_VerticalScrollbarP21CustomAttributesCache
qag:_X509KeyUsageExtension_ToString_m1992050580
wzc:_UNITY_FT_GlyphLoader_Done
Ejj:_BalancingGroup__ctor_m2474435406
P1g:__Z49RuntimeInvoker_Int32_t2071877448_Byte_t3683104436PFvvEPK10MethodInfoPvPS4_
g_i:_ConstructionCall__ctor_m1143766850
uqh:_GUIStyleState_Init_m2434147050
hfj:_Comparer_1_System_Collections_IComparer_Compare_m3203078743_gshared
o0f:_Context_get_RandomSC_m1687420621
_vh:_PlayableHandle_IsValid_m1005197654_AdjustorThunk
Pki:__ZL67GUISkin_t1436893342_CustomAttributesCacheGenerator_m_verticalSliderP21CustomAttributesCache
VJj:_Terminal_WriteLine_m3165006896
aEc:_tt_cmap14_char_var_index
DQb:__Z35Transfer_Blittable_FixedBufferFieldI18StreamedBinaryReadILb0EEdEvRK29SerializationCommandArgumentsR31RuntimeSerializationCommandInfo
zFc:_psh_globals_new
k3e:_FileStream_Seek_m950719389
kYd:_StandaloneInputModule_set_allowActivationOnMobileDevice_m2631121618
Wqe:_Decimal_stripStyles_m294582157
CNi:_AnimatorControllerPlayable_Play_m614561002
lAa:__ZN9GfxDevice20SetMaxBufferedFramesEi
Lvf:_List_1_RemoveAll_m4125997475_gshared
T$g:__Z72RuntimeInvoker_Boolean_t3825574718_TypeU26_t1535498077_Int32_t2071877448PFvvEPK10MethodInfoPvPS4_
xJg:__Z98RuntimeInvoker_Void_t1841601450_Int32_t2071877448_Int32_t2071877448_RuntimeObject_SByte_t454417549PFvvEPK10MethodInfoPvPS4_
dN:__ZN24AudioScriptBufferManagerD2Ev
JRj:dynCall_vdd
iOc:__ZN2UIL17UnloadAllCanvasesEv
udb:__Z23ConvertIntegerToTypePtrIsEbPvR14SafeBinaryRead
FYh:__ZL54_MethodBase_t1935530873_CustomAttributesCacheGeneratorP21CustomAttributesCache
nCj:_EqualityComparer_1__ctor_m99476293_gshared
SZc:__ZN6il2cpp2vm5Class12HasAttributeEP11Il2CppClassS3_
SQi:_PCMReaderCallback_BeginInvoke_m3119095492
kie:_ArrayList_get_Count_m523955479
cMg:__Z96RuntimeInvoker_Void_t1841601450_SByte_t454417549_RuntimeObject_SByte_t454417549_SByte_t454417549PFvvEPK10MethodInfoPvPS4_
Gje:_FixedSizeArrayListWrapper_Remove_m1359458911
Ndj:_InternalEnumerator_1_get_Current_m747506907_gshared
kpa:__ZN6prcoreL29inner_stretch_rgb565_bilinearEPKNS_9InnerInfoE
_kj:_Uri__ctor_m3927533881
tad:__ZNK15dense_hashtableINSt3__24pairIK10KeyWrapperINS1_IPK14Il2CppAssemblyP11Il2CppClassEEEjEES9_17ReflectionMapHashIS8_EN14dense_hash_mapIS9_jSD_NS9_14EqualsComparerINS0_8equal_toIS8_EEEENS0_9allocatorISB_EEE9SelectKeyESI_SK_E12test_deletedEj
NNh:_EqualityComparer_1_System_Collections_IEqualityComparer_Equals_m3724603646_gshared
xQc:__Z33Canvas_Get_Custom_PropWorldCameraP12Il2CppObject
pFi:_Text_get_mainTexture_m813502234
j3a:__ZNK14RenderSettings19GetFlatAmbientColorEv
sva:__ZN6prcoreL10inner_flipILj4EEEvPhS1_j
_yb:__ZN18StreamedBinaryReadILb0EE21TransferSTLStyleArrayI10vector_mapIPKN5Unity4TypeE7Hash128NSt3__24lessIS6_EENS8_9allocatorINS8_4pairIS6_S7_EEEEEEEvRT_17TransferMetaFlags
ey:__ZNK27StateMachineBehaviourPlayer15IsSenderEnabledEv
MKi:_AnimatorControllerPlayable_SetInteger_m881630854
gAh:_Enumerator_VerifyState_m2118679243_gshared
X6d:_InputField_get_shouldHideMobileInput_m3694613599
fjc:__Z40Register_UnityEngine_Transform_SetParentv
ZQi:_AudioConfigurationChangeHandler_Invoke_m635374412
_3f:_SslClientStream_get_HaveRemoteValidation2Callback_m3555576758
lQg:__Z56RuntimeInvoker_TimeSpan_t3430258949_TimeSpan_t3430258949PFvvEPK10MethodInfoPvPS4_
Eub:__ZN14Texture2DArray17UploadToGfxDeviceEv
aQf:_ReadOnlyCollection_1_System_Collections_Generic_IListU3CTU3E_Insert_m4216310986_gshared
kMf:_ReadOnlyCollection_1_System_Collections_Generic_IListU3CTU3E_set_Item_m1532495847_gshared
aM:__Z14FMODMemoryFreePvjPKc
V3i:_InternalEnumerator_1_System_Collections_IEnumerator_Reset_m3731327620_AdjustorThunk
Sqi:__ZL104PointerEventData_t1599784723_CustomAttributesCacheGenerator_PointerEventData_get_worldNormal_m1704987468P21CustomAttributesCache
rwj:_YieldInstruction_t3462875981_marshal_pinvoke_cleanup
y6d:_Image_AddQuad_m1600600902
SGc:_cf2_glyphpath_moveTo
Jqj:_SharedBetweenAnimatorsAttribute__ctor_m1221241062
xZd:_AnimationTriggers_set_disabledTrigger_m609579531
kVh:__ZL47File_t1930543328_CustomAttributesCacheGeneratorP21CustomAttributesCache
Jve:_DateTimeOffset__ctor_m1796624924
rmh:_GUILayoutUtility_get_spaceStyle_m1918520192
MUd:_BaseRaycaster_OnDisable_m1716508791
Nu:__ZN7mecanim23TransformValueArrayLoopEiiiRKN4math4trsXES3_RNS_10ValueArrayEf
lWf:_ASN1Convert_ToInt32_m2121135414
eaj:_InternalEnumerator_1_MoveNext_m1741571735_gshared
QYc:__ZN6il2cpp2vmL15GetBitmapNoInitEP11Il2CppClassPjRjj
PQh:__ZL82Enum_t2459695545_CustomAttributesCacheGenerator_Enum_GetUnderlyingType_m3513899012P21CustomAttributesCache
nBd:_GC_is_heap_ptr
J1f:_TlsServerSettings_set_CertificateRequest_m3419519893
pB:__ZN7mecanim5human10RetargetToEPKNS0_5HumanEPKNS0_9HumanPoseES6_RKN4math4trsXEPS4_PNS_8skeleton13SkeletonPoseTIS8_EESF_
Gu:__ZN7mecanim9animation8SeekClipERKNS0_12StreamedClipERNS0_18StreamedClipMemoryEf
Tzg:_Type_get_IsGenericParameter_m161434704
Hdh:_MethodBuilder_get_Attributes_m3678061338
jm:_emscripten_glIsTexture
xsh:_Mathf_Clamp_m3542052159
mje:_ArrayListWrapper_CopyTo_m793444109
N3h:__ZL79Convert_t2607082565_CustomAttributesCacheGenerator_Convert_ToUInt16_m3265369225P21CustomAttributesCache
Qk:_emscripten_glHint
S4g:__Z33RuntimeInvoker_Color32_t874517518PFvvEPK10MethodInfoPvPS4_
eKc:_ft_var_readpackeddeltas
ave:_DateTime_AddMilliseconds_m1813199744_AdjustorThunk
Uog:_SByte_System_IConvertible_ToSByte_m108774324_AdjustorThunk
Ldh:_MethodBuilder_GetParameterCount_m467267889
Pgc:__Z65PlayableOutputHandle_CUSTOM_INTERNAL_CALL_GetPlayableOutputTypeOfR15HPlayableOutput
CNb:__Z35Transfer_Blittable_FixedBufferFieldI18StreamedBinaryReadILb1EEtEvRK29SerializationCommandArgumentsR31RuntimeSerializationCommandInfo
vHi:_AnimationEvent_set_intParameter_m1174062029
Gdg:_X509ChainStatus_t4278378721_marshal_pinvoke
ZXf:_RSAManaged__ctor_m1680944437
mm:_SDL_UpperBlit
yph:_GUIStyle_op_Implicit_m781448948
R3a:__Z35GetTextureDecodeValuesWithIntensity16TextureUsageMode17TextureColorSpace10ColorSpacef
qge:_Byte_GetHashCode_m2885528842_AdjustorThunk
wgd:__ZN15dense_hashtableINSt3__24pairIK10KeyWrapperINS1_IPK9EventInfoP11Il2CppClassEEEjEES9_17ReflectionMapHashIS8_EN14dense_hash_mapIS9_jSD_NS9_14EqualsComparerINS0_8equal_toIS8_EEEENS0_9allocatorISB_EEE9SelectKeyESI_SK_E15set_deleted_keyERKSB_
iHh:_Dictionary_2_OnDeserialization_m2092139626_gshared
x1:__ZN19RuntimeSceneManagerC2E18MemLabelIdentifier
rCb:__ZN14SafeBinaryRead20OverrideRootTypeNameEPKc
QXc:__ZNK10KeyWrapperIPK22Il2CppGenericParameterE14EqualsComparerINSt3__28equal_toIS2_EEEclERKS3_SA_
N5:__ZN14FileCacherRead16UnlockCacheBlockEj
sjf:_X509Certificate_GetUnsignedBigInteger_m3491353542
pxc:__ZNSt3__26vectorIN4core12basic_stringIcNS1_20StringStorageDefaultIcEEEE13stl_allocatorIS5_L18MemLabelIdentifier34ELi16EEE6assignINS_11__wrap_iterIPS5_EEEENS_9enable_ifIXaasr21__is_forward_iteratorIT_EE5valuesr16is_constructibleIS5_NS_15iterator_traitsISF_E9referenceEEE5valueEvE4typeESF_SF_
fki:__ZL90Event_t3028476042_CustomAttributesCacheGenerator_Event_Internal_GetMousePosition_m38523489P21CustomAttributesCache
UHb:__Z18Transfer_BlittableI17RemapPPtrTransferLb1E8Vector3fEvRK29SerializationCommandArgumentsR31RuntimeSerializationCommandInfo
gWh:__ZL57StackBehaviour_t1390406961_CustomAttributesCacheGeneratorP21CustomAttributesCache
FRj:dynCall_iifii
Rc:_emscripten_glUniform1f
x4f:_SslStreamBase_get_MightNeedHandshake_m3432170694
Xzc:__Z20ParseImageParametersR11UTF16StringRiRN20TextRenderingPrivate16TextFormatChangeE
Wc:_emscripten_glUniform1i
B8i:_InternalEnumerator_1_System_Collections_IEnumerator_Reset_m651165750_AdjustorThunk
jCb:__ZN13MonoBehaviour9CallAwakeEv
v7:__Z33UnregisterDeviceEventCallbackImplPFv23UnityGfxDeviceEventTypeE
ymh:__Z14bankers_roundff
_Mi:_AnimatorControllerPlayable_CrossFade_m3391147919
sUb:__ZN9ShaderLab16SerializedTagMapaSERKS0_
xGe:_SetPropertyUtility_SetStruct_TisFillMethod_t1640962579_m1867757822_gshared
PV:__ZN11UnityEngine15CloudWebService16SessionContainer20RestoreSessionHeaderERKN4core12basic_stringIcNS2_20StringStorageDefaultIcEEEES8_RNS0_13SessionHeaderE
xve:_DateTime_ToString_m1117481977
FWc:__ZN22UnityWebRequestManager13BackendRetainEv
rac:__ZN8Material28ApplyMaterialPropertyDrawersEv
bDd:__ZN6il2cpp2os12Cryptography23GetCryptographyProviderEv
vYc:__ZN24dense_hashtable_iteratorINSt3__24pairIK10KeyWrapperIPK22Il2CppGenericParameterEP11Il2CppClassEES6_N6il2cpp5utils11PointerHashIS4_EEN14dense_hash_mapIS6_S9_SE_NS6_14EqualsComparerINS0_8equal_toIS5_EEEENS0_9allocatorISA_EEE9SelectKeyESJ_SL_E30advance_past_empty_and_deletedEv
xC:__ZN11UnityEngine9Animation27CreateAvatarBindingConstantER9TransformPKN7mecanim9animation14AvatarConstantERNS3_6memory9AllocatorE
YAb:__ZN14SafeBinaryRead21TransferSTLStyleArrayINSt3__26vectorIN30RuntimeInitializeOnLoadManager9ClassInfoE13stl_allocatorIS4_L18MemLabelIdentifier12ELi16EEEEEEvRT_17TransferMetaFlags
CDg:_UnitySerializationHolder_GetObjectData_m2280028722
cCg:_UInt64_System_IConvertible_ToDateTime_m2412118561
eac:__ZN9BlobWriteC2ER13dynamic_arrayIhLj16EE24TransferInstructionFlags19BuildTargetPlatform
c4:__ZN14MessageHandler3GetEv
Qnh:_GUISkin_set_verticalScrollbarThumb_m2647835739
id:_emscripten_glAttachShader
TOf:_ReadOnlyCollection_1__ctor_m1539890895_gshared
kAa:__ZN9GfxDevice13SetActiveTierE12GraphicsTier
aof:_Enumerator_System_Collections_IEnumerator_get_Current_m3079057684_AdjustorThunk
Jfc:__Z46Register_UnityEngine_Mesh_ExtractArrayFromListv
Ixb:__ZNSt3__26vectorIN4core12basic_stringIcNS1_20StringStorageDefaultIcEEEENS_9allocatorIS5_EEE6assignIPS5_EENS_9enable_ifIXaasr21__is_forward_iteratorIT_EE5valuesr16is_constructibleIS5_NS_15iterator_traitsISC_E9referenceEEE5valueEvE4typeESC_SC_
igf:_KeyPairPersistence_get_UserPath_m3433052783
KGf:_Collection_1_ClearItems_m1410275009_gshared
Y5g:__Z36RuntimeInvoker_Enumerator_t975728254PFvvEPK10MethodInfoPvPS4_
bQh:__ZL58Decimal_t724701077_CustomAttributesCacheGenerator_MinusOneP21CustomAttributesCache
AHe:_Array_InternalArray__IEnumerable_GetEnumerator_TisKeyframe_t1449471340_m3949799719_gshared
MEb:__Z18Transfer_BlittableI14SafeBinaryReadLb0E11QuaternionfEvRK29SerializationCommandArgumentsR31RuntimeSerializationCommandInfo
lQb:__Z18Transfer_BlittableI18StreamedBinaryReadILb0EELb1E12PropertyNameEvRK29SerializationCommandArgumentsR31RuntimeSerializationCommandInfo
Qci:__ZL99MonoBehaviour_t1158329972_CustomAttributesCacheGenerator_MonoBehaviour_set_useGUILayout_m2666356651P21CustomAttributesCache
T7d:_InputField_get_inputType_m2187991661
K_:_tlsf_walk_heap
Sif:_PKCS12_Decode_m731190390
Jid:__ZNK15dense_hashtableINSt3__24pairIK10KeyWrapperIP11Il2CppClassES4_EES5_N6il2cpp8metadata16SZArrayClassHashEN14dense_hash_mapIS5_S4_SA_NS5_14EqualsComparerINS9_19SZArrayClassCompareEEENS0_9allocatorIS7_EEE9SelectKeyESE_SG_E10test_emptyERK24dense_hashtable_iteratorIS7_S5_SA_SI_SE_SG_E
J9i:_InternalEnumerator_1_get_Current_m1550231132_gshared
Djj:_Reference_get_IgnoreCase_m2810892634
PDg:_Version_CheckedSet_m76493673
nb:invoke_vif
nni:__ZL99SendMouseEvents_t3505065032_CustomAttributesCacheGenerator_SendMouseEvents_SetMouseMoved_m532965689P21CustomAttributesCache
ob:invoke_vid
JPj:__ZNSt3__212basic_stringIcNS_11char_traitsIcEENS_9allocatorIcEEE6insertEjPKc
Q0h:__ZL67UnverifiableCodeAttribute_t765455733_CustomAttributesCacheGeneratorP21CustomAttributesCache
pb:invoke_vii
W9h:__ZL86Component_t3819376471_CustomAttributesCacheGenerator_Component_SendMessage_m3615678587P21CustomAttributesCache
Pui:__ZL82ScrollRect_t1199013257_CustomAttributesCacheGenerator_m_HorizontalScrollbarSpacingP21CustomAttributesCache
k5d:_LayoutGroup_get_padding_m1653511445
Hfb:__ZN12TLSAllocatorI14StackAllocatorE16ThreadInitializeEP13BaseAllocator
Kie:_ArrayList_Sort_m2778059513
Bni:__ZL107StackTraceUtility_t1881293839_CustomAttributesCacheGenerator_StackTraceUtility_SetProjectFolder_m2154926761P21CustomAttributesCache
p5d:_LayoutGroup_SetChildAlongAxis_m2732017156
EPc:__Z41CanvasRenderer_CUSTOM_DisableRectClippingP12Il2CppObject
aQi:_AudioClipPlayable_SetPauseDelayInternal_m3827440449
QWf:_MD2_Create_m539024737
Pne:_SortedList_get_SyncRoot_m3299704254
sqf:_List_1_System_Collections_ICollection_CopyTo_m2020941110_gshared
Bdd:__ZN15dense_hashtableINSt3__24pairIK10KeyWrapperINS1_IPK12PropertyInfoP11Il2CppClassEEEjEES9_17ReflectionMapHashIS8_EN14dense_hash_mapIS9_jSD_NS9_14EqualsComparerINS0_8equal_toIS8_EEEENS0_9allocatorISB_EEE9SelectKeyESI_SK_E8min_sizeEjj
JRg:__Z112RuntimeInvoker_Void_t1841601450_RuntimeObject_Int32_t2071877448_Int32_t2071877448_RuntimeObject_SByte_t454417549PFvvEPK10MethodInfoPvPS4_
Wig:_SoapAttribute_get_XmlNamespace_m1436066016
gRa:__ZN25SingleBlockMemoryFileDataD0Ev
Fhb:__ZNSt3__26vectorI14ConstantStringNS_9allocatorIS1_EEE6assignINS_11__wrap_iterIPS1_EEEENS_9enable_ifIXaasr21__is_forward_iteratorIT_EE5valuesr16is_constructibleIS1_NS_15iterator_traitsISA_E9referenceEEE5valueEvE4typeESA_SA_
KV:__ZN11UnityEngine15CloudWebService16SessionContainer21ConvertFromFolderTimeERKN4core12basic_stringIcNS2_20StringStorageDefaultIcEEEEPjPt
gGb:__ZNSt3__26vectorI8GUIStyle13stl_allocatorIS1_L18MemLabelIdentifier1ELi16EEE7reserveEj
Yjd:__ZN6il2cpp6icalls8mscorlib6System9Threading6Thread27GetSerializedCurrentCultureEP12Il2CppThread
jbj:_InternalEnumerator_1_Dispose_m3765482968_AdjustorThunk
KJe:_Array_InternalArray__IndexOf_TisUInt32_t2149682021_m3231515987_gshared
J5i:_InternalEnumerator_1_MoveNext_m1667794624_AdjustorThunk
V$b:__Z31CalculateHierarchyTransformType23TransformAccessReadOnly
p_b:__Z13RegisterClassI11TimeManagerEvv
SL:__ZN4FMOD8ChannelI11setPositionEjj
VKg:__Z136RuntimeInvoker_IntPtr_t_RuntimeObject_Int32_t2071877448_Int32_t2071877448_Int32_t2071877448_Int32_t2071877448_MonoIOErrorU26_t1029615899PFvvEPK10MethodInfoPvPS4_
vUi:_Component_SendMessage_m913946877
izd:_GC_set_fl_marks
c1i:_SynchronizedClientContextSink__ctor_m978504596
Cba:__ZN17BaseObjectManager13StaticDestroyEPv
Orj:_TextGenerationSettings_CompareVector2_m592645251
Cni:__ZL108StackTraceUtility_t1881293839_CustomAttributesCacheGenerator_StackTraceUtility_ExtractStackTrace_m1593581205P21CustomAttributesCache
kwe:_DBNull_System_IConvertible_ToChar_m3344298044
dkf:_X509Certificate_GetObjectData_m3888130484
sAb:__ZNSt3__26vectorIN15ResourceManager10DependencyE13stl_allocatorIS2_L18MemLabelIdentifier51ELi16EEEC2INS_11__wrap_iterIPS2_EEEET_SB_RKS5_PNS_9enable_ifIXaasr21__is_forward_iteratorISB_EE5valuesr16is_constructibleIS2_NS_15iterator_traitsISB_E9referenceEEE5valueEvE4typeE
hVi:_CustomYieldInstruction_Reset_m3409422382
agj:_LinkStack_Push_m2660199875
MK:__ZN4FMOD6Reverb13setPropertiesEPK22FMOD_REVERB_PROPERTIES
Qhd:__ZN15dense_hashtableINSt3__24pairIK10KeyWrapperIP11Il2CppClassES4_EES5_N6il2cpp8metadata16SZArrayClassHashEN14dense_hash_mapIS5_S4_SA_NS5_14EqualsComparerINS9_19SZArrayClassCompareEEENS0_9allocatorIS7_EEE9SelectKeyESE_SG_E5clearEv
o_a:__ZN9DepthPass13PrepareSubsetEjRK10RenderNodeifRK17ShaderReplaceData
lrh:_Input_get_compositionString_m636835668
gnj:_X509CertificateCollection_Add_m4008705157
mig:_MonoMethodMessage_set_Uri_m3218581120
w6b:__Z35SetMeshComponentFromArrayFromScriptR4Mesh30InternalScriptingShaderChannel34InternalScriptingVertexChannelTypei17ScriptingArrayPtri
MQf:_ReadOnlyCollection_1_System_Collections_IList_Add_m3806843030_gshared
Pna:__ZN4PPtrI6ShaderE8TransferI19StreamedBinaryWriteILb0EEEEvRT_
bHf:_Collection_1_IsFixedSize_m1816795498_gshared
Bq:__ZN4core20StringStorageDefaultIcE6assignEPKcj
Cqd:__ZN15dense_hashtableINSt3__24pairIK10KeyWrapperIP12Il2CppObjectEN6il2cpp2gc9CachedCCWEEES5_NS7_5utils11PointerHashIS3_EEN14dense_hash_mapIS5_S9_SD_NS5_14EqualsComparerINS0_8equal_toIS4_EEEENS0_9allocatorISA_EEE9SelectKeyESI_SK_E3endEv
$Ab:__Z14resize_trimmedINSt3__26vectorIi13stl_allocatorIiL18MemLabelIdentifier12ELi16EEEEEvRT_j
WXd:_MouseButtonEventData_ReleasedThisFrame_m482758300
ohd:__ZN15dense_hashtableINSt3__24pairIK10KeyWrapperINS1_IP11Il2CppClassjEEES4_EES6_N6il2cpp8metadata14ArrayClassHashEN14dense_hash_mapIS6_S4_SB_NS6_14EqualsComparerINSA_17ArrayClassCompareEEENS0_9allocatorIS8_EEE9SelectKeyESF_SH_E9copy_fromERKSK_j
Lje:_ReadOnlyArrayListWrapper_set_Item_m2199017141
Z7a:__ZN6Camera6SetFarEf
bnj:_DeriveBytes_DeriveIV_m3343375195
SAc:_UNITY_FT_Init_Class_ft_bitmap_glyph_class
lJd:_RNGCryptoServiceProvider_GetBytes_m167497991
Upa:__ZN6prcoreL12RemapGenericI17TexFormatABGR888817TexFormatARGB8888EEvPKNS_9InnerInfoE
aib:__ZN11GameManager17MainThreadCleanupEv
iIf:_Collection_1_GetEnumerator_m1417525918_gshared
jRc:__Z50Register_UnityEngine_UISystemProfilerApi_EndSamplev
vUg:__Z60RuntimeInvoker_Boolean_t3825574718_PlayableOutput_t988259697PFvvEPK10MethodInfoPvPS4_
gbh:_TypeBuilder_get_Assembly_m492491492
ZHj:__ZL25UnresolvedVirtualCall_160P12Il2CppObject23RaycastResult_t21186376PK10MethodInfo
XIf:_Collection_1_InsertItem_m1225429801_gshared
oZf:_CipherSuite_set_Context_m4127897124
TIc:_UNITY_tt_slot_init
nUa:__ZZ23InitPlayerLoopCallbacksvEN41PostLateUpdateUpdateResolutionRegistrator7ForwardEv
jHd:_HMACSHA512__cctor_m1167457383
CRb:__Z25scripting_array_class_get17ScriptingClassPtrj
trc:__ZL22Transfer_ManagedObjectI9JSONWriteLb1EEvRK29SerializationCommandArgumentsR31RuntimeSerializationCommandInfo
fI:__ZNK10SampleClip22GetTypeVirtualInternalEv
HBa:__ZN9GfxDevice20DestroyRenderSurfaceER12ObjectHandleI17RenderSurface_TagP17RenderSurfaceBaseE
rca:__ZN18SpriteAtlasManagerC2Ev
XOa:__ZN9GfxDevice22UpdateComputeResourcesEjPK9TextureIDPK16TextureDimensionPKijPKjjPK15ComputeBufferIDS7_PK20ComputeBufferCounterjSC_S2_S5_S9_SF_
y3b:__ZN12_GLOBAL__N_15qAsinEff
XQe:_Dictionary_2_Do_ICollectionCopyTo_TisKeyValuePair_2_t3749587448_m2536766696_gshared
Ifb:__ZN12TLSAllocatorI14StackAllocatorE13ThreadCleanupEv
xQ:__Z18GetAudioManagerPtrv
MIe:_Array_IndexOf_TisRuntimeObject_m1815604637_gshared
Tqf:_List_1_GetEnumerator_m2837081829_gshared
Twd:__ZThn4_N6il2cpp2vm13ComObjectBase16MarshalInterfaceEP13Il2CppIStreamRK10Il2CppGuidPvjS7_j
rvb:__ZN4Mesh27SwizzleVertexColorsIfNeededEb
ogb:__Z27FindActiveTransformWithPathPKc
OSi:_CanvasGroup_get_alpha_m1304564441
ejb:__ZN12BaseRendererD0Ev
ldb:__Z29StdTemplateConversionFunctionIbyEbPvR14SafeBinaryRead
SQg:__Z44RuntimeInvoker_X509KeyUsageFlags_t2461349531PFvvEPK10MethodInfoPvPS4_
$Oi:_AsyncOperation_Finalize_m67522446
xkf:_SecurityParser_OnEndElement_m2909940377
k0a:__ZNK6Camera7GetNearEv
MJa:__ZN7ApiGLES11UnmapBufferEjN2gl12BufferTargetE
cxd:__ZN6il2cpp5utilsL24Utf32CharToSurrogatePairEjRA2_Ds
gpb:__Z25GetNextAllowedTextureSizeib13TextureFormat
Nea:__ZN20LocalFileSystemWebGL4CopyER13FileEntryDataS1_
Ewf:_List_1_CheckIndex_m4231572822_gshared
jY:__ZN19CloudServiceHandler6RetainEv
aFd:__ZN6il2cpp2os9Semaphore4WaitEb
UNd:_StrongName_Equals_m67226644
tjb:__ZN12BaseRenderer20FlattenToRenderQueueER15RenderNodeQueueRK20DeprecatedSourceData
ich:_FieldBuilder_get_Attributes_m2174064290
X6e:_UnmanagedMemoryStream_get_Length_m587008850
zsa:__Z34scripting_liveness_calculation_endPv
Gsd:__ZN6il2cpp2os6ThreadC2Ev
JOd:_SecurityFrame_InitFromRuntimeFrame_m45195821
FVh:__ZL53TextReader_t1561828458_CustomAttributesCacheGeneratorP21CustomAttributesCache
ucg:_X509Chain_IsSignedWith_m292245392
bu:__ZN21AnimationClipPlayable22ProcessAnimationNoClipEPK35AnimationPlayableEvaluationConstantPK32AnimationPlayableEvaluationInputP33AnimationPlayableEvaluationOutput
ZEe:_Array_InternalArray__ICollection_Remove_TisDateTime_t693205669_m1275668216_gshared
kIh:_Dictionary_2__ctor_m871840915_gshared
aLc:__ZNK19TextRenderingModule8TMGenGetERK11UTF16StringPN13TextRendering4FontE10TextAnchor13TextAlignmentfffbb11ColorRGBA32fii
Qsc:__Z18Transfer_BlittableI8JSONReadLb0E8Vector3fEvRK29SerializationCommandArgumentsR31RuntimeSerializationCommandInfo
B_i:_ChannelServices__cctor_m3534779830
Rid:__ZN6il2cpp2vm6Thread6DetachEP12Il2CppThread
JEc:_Render_Single_Pass
Ore:_Convert_ToInt16_m416789348
sTd:_EncoderExceptionFallback_Equals_m762170768
eGj:__ZL24UnresolvedVirtualCall_59P12Il2CppObjectS0_aPK10MethodInfo
pDj:_EqualityComparer_1__cctor_m2666196678_gshared
jqj:_MovedFromAttribute__ctor_m1535041828
YAh:_Enumerator_get_CurrentValue_m3147984131_AdjustorThunk
blh:_GUIStyle_Init_m3872198731
DC:__ZN7mecanim8skeleton30SkeletonBuildReverseIndexArrayEPiPKiPKNS0_8SkeletonES6_
hkc:__Z19GetGUIBlendMaterialv
BWg:__Z69RuntimeInvoker_Boolean_t3825574718_TextGenerationSettings_t2543476768PFvvEPK10MethodInfoPvPS4_
std:__ZN6il2cpp2os10ThreadImpl5SleepEjb
rdj:_InternalEnumerator_1_System_Collections_IEnumerator_Reset_m3669601605_AdjustorThunk
Apj:_X509ExtensionCollection_System_Collections_IEnumerable_GetEnumerator_m2600902401
IJf:_Collection_1_InsertItem_m1073626529_gshared
m6f:_ListDictionary_FindEntry_m432748847
qXj:_glBindSampler__wrapper
_xj:_UnityAction_1_Invoke_m3523417209_gshared
Of:_emscripten_set_mouseup_callback
MOa:__ZN9GfxDevice27SetRandomWriteTargetTextureEi9TextureID
t_g:__Z58RuntimeInvoker_Boolean_t3825574718_SpriteState_t1353336012PFvvEPK10MethodInfoPvPS4_
Sqj:_SpaceAttribute__ctor_m1444406696
aCa:__ZN9GfxDevice47SwitchColorRenderSurfaceOutOfFastMemoryPlatformEP17RenderSurfaceBaseb
Wda:__ZNK18ScreenManagerWebGL8GetWidthEv
VRj:dynCall_iiifii
p3c:__ZN6il2cpp2vm13MetadataCache33GetFieldDefaultValueDataFromIndexEi
Y4d:_GridLayoutGroup_set_startAxis_m1635162426
cI:__ZN10SampleClipD2Ev
h1i:_SynchronizationAttribute_EnterContext_m2984912761
_Qh:__ZL73Enum_t2459695545_CustomAttributesCacheGenerator_Enum_ToObject_m2601523252P21CustomAttributesCache
nDe:_CultureInfo_construct_internal_locale_from_name_m971766383
rtd:__ZN6il2cpp2os10ThreadImpl13SetWaitObjectEPNS0_5posix15PosixWaitObjectE
sge:_Byte_Equals_m368616327_AdjustorThunk
lLe:_Array_InternalArray__ICollection_Add_TisUIVertex_t1204258818_m3869382594_gshared
VX:__ZN11UnityEngine15CloudWebService20WebRequestRestClientC2Ev
nIc:_cff_cmap_unicode_init
xXa:__ZNSt3__224__buffered_inplace_mergeIRN10vector_mapIiN17InstancedPropInfo12PropertyTypeENS_4lessIiEE13stl_allocatorINS_4pairIiS3_EEL18MemLabelIdentifier1ELi16EEE13value_compareENS_11__wrap_iterIPS8_EEEEvT0_SH_SH_T_NS_15iterator_traitsISH_E15difference_typeESL_PNSK_10value_typeE
EAe:_Enum_ToObject_m2460371738
aef:_PrimalityTests_Test_m1088386156
Q5:__ZN14FileCacherRead13GetFileLengthEv
gmc:__Z36Event_CUSTOM_Internal_SetNativeEvent13Il2Cpp_IntPtr
jOj:_readlink
_dd:__ZN15dense_hashtableINSt3__24pairIK10KeyWrapperINS1_IPK9EventInfoP11Il2CppClassEEEjEES9_17ReflectionMapHashIS8_EN14dense_hash_mapIS9_jSD_NS9_14EqualsComparerINS0_8equal_toIS8_EEEENS0_9allocatorISB_EEE9SelectKeyESI_SK_E12resize_deltaEjj
vPe:_Array_Resize_TisVector3_t2243707580_m893658391_gshared
_5i:_InternalEnumerator_1_System_Collections_IEnumerator_get_Current_m4259662004_AdjustorThunk
YSe:_Array_InternalArray__get_Item_TisKeyframe_t1449471340_m1003508933_gshared
lOg:__Z50RuntimeInvoker_Double_t4078015681_Int64_t909078037PFvvEPK10MethodInfoPvPS4_
Mif:_StrongName_get_PublicKeyToken_m1968460885
yxb:__ZNK6Sprite9GetBoundsE8Vector2fbb
dWa:__ZNK19RenderEventsContext21CleanupCommandBuffersEv
TEa:__ZN11ContextGLES6CreateEi
B0e:_BinaryReader_Dispose_m4249456877
SVg:__Z53RuntimeInvoker_AnimatorControllerPlayable_t1744083903PFvvEPK10MethodInfoPvPS4_
qpj:_X509CrlEntry_get_Extensions_m1330698752
Tqe:_Double_ToString_m1085043609
bRb:__Z19TransferField_ArrayI18StreamedBinaryReadILb0EE27Converter_SimpleNativeClassI17AnimationCurveTplIfEEEvRK23StaticTransferFieldInfoR31RuntimeSerializationCommandInfoRT0_
sZf:_CipherSuite_createEncryptionCipher_m1926075645
tfb:__ZN14StackAllocator16FrameMaintenanceEb
r4d:_Graphic_Raycast_m3582517890
Uhb:__Z18ReadStringFromFilePN4core17string_with_labelILi1EEERKNS_12basic_stringIcNS_20StringStorageDefaultIcEEEE
z0:__ZNK10GameObject20QueryComponentByTypeEPKN5Unity4TypeE
fpf:_Enumerator_MoveNext_m1367380970_AdjustorThunk
weh:_OpCode_GetHashCode_m2974727122
tZf:_CipherSuite_createDecryptionCipher_m1118350455
fhj:_PatternCompiler_EmitReference_m1381860071
hH:__Z78AnimatorControllerPlayable_CUSTOM_INTERNAL_CALL_IsParameterControlledByCurveIDR9HPlayablei
uze:_Double_System_IConvertible_ToInt16_m4200640326
nwa:__ZN11TextureData5ResetEv
_dc:__Z53Register_UnityEngine_GameObject_get_activeInHierarchyv
kdh:_GenericTypeParameterBuilder_get_IsGenericType_m1883522222
KHb:__Z35Transfer_Blittable_FixedBufferFieldI17RemapPPtrTransferiEvRK29SerializationCommandArgumentsR31RuntimeSerializationCommandInfo
X1:__ZL30InitializeCoreScriptingClassesv
TJf:_Collection_1_CheckWritable_m3938993573_gshared
Jg:_glBlitFramebuffer
SSa:__ZN17ArchiveFileSystem5TouchER13FileEntryData
T1f:_SecurityParameters_set_Cipher_m3888132335
ief:_BigInteger_GeneratePseudoPrime_m2606361440
LVe:_DateTimeFormatInfo_get_ShortTimePattern_m20923983
FHb:__Z35Transfer_Blittable_SingleValueFieldI14SafeBinaryReadhEvRT_R17GeneralMonoObjectRK23StaticTransferFieldInfo
Wti:__ZL140U3CMouseDragOutsideRectU3Ec__Iterator1_t2599668326_CustomAttributesCacheGenerator_U3CMouseDragOutsideRectU3Ec__Iterator1_Dispose_m2134284531P21CustomAttributesCache
kki:__ZL90Event_t3028476042_CustomAttributesCacheGenerator_Event_Internal_SetNativeEvent_m1899228752P21CustomAttributesCache
YUc:__ZN22BaseUnityConnectClientC2ERN11UnityEngine7Connect20BasePersistentValuesE
zhf:_EncryptedPrivateKeyInfo_get_Algorithm_m2779196942
Sig:_RemotingServices_GetRealProxy_m620317996
E_a:__ZN13dynamic_arrayI11CulledLightLj4EE6insertEPS0_PKS0_S4_
x3i:_ArrayReadOnlyList_1_RemoveAt_m2270349795_gshared
Unb:__ZNK12CubemapArray22GetTypeVirtualInternalEv
CLj:_Predicate_1_Invoke_m2060780095_gshared
Sn:FUNCTION_TABLE_vif
Tn:FUNCTION_TABLE_vid
Un:FUNCTION_TABLE_vii
Nsa:__Z40scripting_liveness_calculation_from_root18ScriptingObjectPtrPv
Xka:__ZN7Texture23VirtualRedirectTransferER24GenerateTypeTreeTransfer
Byc:_UNITY_FT_Set_Transform
S1b:__ZNK32RendererMaterialAnimationBinding12SetPPtrValueERKN11UnityEngine9Animation10BoundCurveEi
Qpd:__ZN6il2cpp8metadata15GenericMetadata20RegisterGenericClassEP18Il2CppGenericClass
RUg:__Z63RuntimeInvoker_Double_t4078015681_PlayableHandleU26_t4210769902PFvvEPK10MethodInfoPvPS4_
hRg:__Z101RuntimeInvoker_OpFlags_t378191910_SByte_t454417549_SByte_t454417549_SByte_t454417549_SByte_t454417549PFvvEPK10MethodInfoPvPS4_
XWj:_glDeleteFramebuffers__wrapper
Q5d:_Image_get_overrideSprite_m706080347
J1g:__Z54RuntimeInvoker_Int32_t2071877448_LabelData_t3712112744PFvvEPK10MethodInfoPvPS4_
TUf:_BigInteger_ModInverse_m1881894572
t6c:__ZN6il2cpp2vm7Runtime17GetDelegateInvokeEP11Il2CppClass
Hwi:__ZL79LayoutRebuilder_t2155218138_CustomAttributesCacheGenerator_U3CU3Ef__amU24cache4P21CustomAttributesCache
jvi:__ZL59Slider_t297367283_CustomAttributesCacheGenerator_m_FillRectP21CustomAttributesCache
Atf:_List_1_AddEnumerable_m3541747636_gshared
sqb:__ZN28EnlightenRendererInformation8TransferI14SafeBinaryReadEEvRT_
yQg:__Z88RuntimeInvoker_RuntimeObject_RuntimeObject_Int32_t2071877448_RuntimeObject_RuntimeObjectPFvvEPK10MethodInfoPvPS4_
KXh:__ZL69DefaultDependencyAttribute_t3858269114_CustomAttributesCacheGeneratorP21CustomAttributesCache
OPa:__ZNK15Lz4Decompressor16DecompressMemoryEPKvPjPvS2_
Hxh:_Ray_ToString_m2019179238
zRf:_ReadOnlyCollection_1_System_Collections_IList_get_Item_m887129009_gshared
Llj:_Uri_GetOpaqueWiseSchemeDelimiter_m3686606461
Neb:__ZNSt3__26__treeINS_12__value_typeIN4core12basic_stringIcNS2_20StringStorageDefaultIcEEEEPN16MemoryFileSystem4NodeEEENS_19__map_value_compareIS6_SA_NS_4lessIS6_EELb1EEE13stl_allocatorISA_L18MemLabelIdentifier54ELi16EEE4findIS6_EENS_15__tree_iteratorISA_PNS_11__tree_nodeISA_PvEEiEERKT_
Lwe:_Decimal_System_IConvertible_ToType_m3828527724_AdjustorThunk
e8d:_InputField_get_caretPositionInternal_m3011712053
qCc:_UNITY_tt_face_load_os2
IWf:_HMAC_get_Key_m2528863640
FKf:_Collection_1_IsSynchronized_m1366278230_gshared
h1h:__ZL93StringBuilder_t1221177846_CustomAttributesCacheGenerator_StringBuilder_AppendLine_m1686706871P21CustomAttributesCache
aG:__Z90Register_UnityEngine_Animations_AnimationOffsetPlayable_INTERNAL_CALL_CreateHandleInternalv
gHb:__Z29Transfer_Blittable_ArrayFieldI14SafeBinaryRead8Vector4fEvRT_R9ArrayInfoRK23StaticTransferFieldInfo
tDe:_Array_get_swapper_TisInt32_t2071877448_m2837069166_gshared
hBi:_Selectable_Navigate_m915280351
lZh:__ZL62IDynamicMessageSink_t3056162262_CustomAttributesCacheGeneratorP21CustomAttributesCache
H$g:__Z77RuntimeInvoker_Boolean_t3825574718_AspectModeU26_t218518220_Int32_t2071877448PFvvEPK10MethodInfoPvPS4_
bzh:_RectTransform_INTERNAL_get_rect_m1177342209
YFf:_Collection_1_Clear_m268154422_gshared
oXd:_PointerEventData_IsScrolling_m1971908975
t4g:__Z56RuntimeInvoker_ContentType_t1028629049_Int32_t2071877448PFvvEPK10MethodInfoPvPS4_
pKj:_Keyboard_WarnIfTerminalNotConneced_m4209930749
ZJj:_Hacker_DisplayWinScreen_m3165369911
eUa:__ZZ23InitPlayerLoopCallbacksvEN51PostLateUpdateUpdateCustomRenderTexturesRegistrator7ForwardEv
Zii:__ZL53UILineInfo_t3621277874_CustomAttributesCacheGeneratorP21CustomAttributesCache
mzd:_GC_print_finalization_stats
zu:__ZN7mecanim9animation12EvaluateClipEPKNS0_4ClipEPKNS0_9ClipInputEPNS0_10ClipMemoryEPNS0_10ClipOutputE
Dqb:__ZN4PPtrI11LightProbesE8TransferI18StreamedBinaryReadILb0EEEEvRT_
bZi:_ComVisibleAttribute__ctor_m1789587486
Khh:_MonoMethodInfo_GetReturnType_m2864247130
bPg:__Z39RuntimeInvoker_DateTimeKind_t2186819611PFvvEPK10MethodInfoPvPS4_
u6a:__ZN13RenderManager29SetCurrentCameraAndStackStateEP6CameraP25CameraStackRenderingState
Did:__ZN15dense_hashtableINSt3__24pairIK10KeyWrapperINS1_IP11Il2CppClassjEEES4_EES6_N6il2cpp8metadata14ArrayClassHashEN14dense_hash_mapIS6_S4_SB_NS6_14EqualsComparerINSA_17ArrayClassCompareEEENS0_9allocatorIS8_EEE9SelectKeyESF_SH_E12resize_deltaEjj
Xh:_JS_WebRequest_Release
O1e:_DirectoryNotFoundException__ctor_m2242202556
iW:__ZN11UnityEngine15CloudWebService14DataErrorEventD0Ev
rUg:__Z64RuntimeInvoker_RuntimeObject_PlayableOutputHandleU26_t2649796401PFvvEPK10MethodInfoPvPS4_
eSd:_String_CreateString_m2448464375
$dg:_X509SubjectKeyIdentifierExtension__ctor_m2959112706
ZAh:_Enumerator_Reset_m1147555085_AdjustorThunk
zfh:_FieldInfo_get_IsNotSerialized_m2322769148
luj:_Vector3_get_zero_m1527993324
Z4h:__ZL68Math_t2022911894_CustomAttributesCacheGenerator_Math_Max_m2671311541P21CustomAttributesCache
Mpd:__ZN6il2cpp8metadata15GenericMetadata7InflateEPK19Il2CppGenericMethodPK20Il2CppGenericContext
mVa:__ZN19ShaderPropertySheet16SetArrayPropertyEN9ShaderLab16FastPropertyNameENS_12PropertyTypeEPKvj
Dhh:_MonoGenericCMethod_get_ReflectedType_m2689239043
GWf:_CryptoConvert_ToHex_m3804747475
GKf:_Collection_1_IsFixedSize_m499196375_gshared
g0d:_ColorTween_set_startColor_m3546206870_AdjustorThunk
iqd:__ZN15dense_hashtableINSt3__24pairIK10KeyWrapperIP12Il2CppObjectEN6il2cpp2gc9CachedCCWEEES5_NS7_5utils11PointerHashIS3_EEN14dense_hash_mapIS5_S9_SD_NS5_14EqualsComparerINS0_8equal_toIS4_EEEENS0_9allocatorISA_EEE9SelectKeyESI_SK_E16reset_thresholdsEv
KPh:__ZL63String_t_CustomAttributesCacheGenerator_String_Split_m394273024P21CustomAttributesCache
AMc:__ZN2UI11CanvasGroup23VirtualRedirectTransferER19StreamedBinaryWriteILb0EE
N8i:_InternalEnumerator_1_get_Current_m4083613828_gshared
rlc:__ZN8GUIState8EndOnGUIEv
Gtg:_UnicodeEncoding_GetString_m542738941
_Ic:_UNITY_TT_Get_VMetrics
n1e:_Path_InsecureGetFullPath_m2635272425
Hoe:_Enumerator_Clone_m1124749523
Hue:_DateTime_System_IConvertible_ToUInt32_m1363211018
iog:_RuntimeMethodHandle__ctor_m1162528746
Kwj:_Predicate_1__ctor_m3243601712_gshared
VBf:_Enumerator_Dispose_m3300818037_AdjustorThunk
lzf:_List_1_AsReadOnly_m4108578222_gshared
Cqg:_DSA__ctor_m613430209
sGe:_SetPropertyUtility_SetStruct_TisSingle_t2076509932_m3849235084_gshared
sHa:__ZN7Texture21GetMasterTextureLimitEv
b9a:__Z12CanAddScriptR10GameObject17ScriptingClassPtrPS1_S2_
Zgd:__ZN6il2cpp2vm10Reflection12HasAttributeEP12Il2CppObjectP11Il2CppClass
yci:__ZL81Mesh_t1356156583_CustomAttributesCacheGenerator_Mesh_get_subMeshCount_m1945011773P21CustomAttributesCache
avc:__ZN8JSONRead21TransferSTLStyleArrayI13dynamic_arrayI4AABBLj4EEEEvRT_18MemLabelIdentifier17TransferMetaFlags
zxj:_InvokableCall_1__ctor_m121193486_gshared
I0:__ZN9ShaderLabL25StaticInitializeShaderLabEPv
MJh:_Dictionary_2_ContainsKeyValuePair_m3818021458_gshared
U:Math_max
PKf:_Collection_1_System_Collections_IList_Insert_m1511106741_gshared
LGj:__ZL24UnresolvedVirtualCall_92P12Il2CppObjectPK10MethodInfo
f7c:_il2cpp_class_get_methods
q1e:_Path_CanonicalizePath_m383914732
eAh:_Enumerator_System_Collections_IEnumerator_get_Current_m1631145297_gshared
Pie:_ArrayList_Synchronized_m2395071980
Osd:__ZN6il2cpp2os6Thread16GetCurrentThreadEv
wRh:__ZL81RuntimeArray_CustomAttributesCacheGenerator_Array_SetValue_m169741241____indices1P21CustomAttributesCache
T3b:__ZN10GameObject13ComponentPair15SetComponentPtrEPN5Unity9ComponentE
R6e:_UnexceptionalStreamWriter_Write_m3206913035
b_b:__Z13RegisterClassI10MeshFilterEvv
TE:__ZNK26AnimatorControllerPlayable24GetAnimatorClipInfoCountEib
_ib:__ZN10TagManager8TransferI19StreamedBinaryWriteILb0EEEEvRT_
RDb:__ZN11PreloadData23VirtualRedirectTransferER18StreamedBinaryReadILb0EE
Rtb:__ZN13sorted_vectorI4PPtrI11SpriteAtlasENSt3__24lessIS2_EE13stl_allocatorIS2_L18MemLabelIdentifier1ELi16EEE21sort_clear_duplicatesEv
Hz:__Z17dynamic_pptr_castIP10MonoScript6ObjectET_RK4PPtrIT0_E
VLi:_AnimatorControllerPlayable_GetAnimatorTransitionInfo_m2080024628_AdjustorThunk
Aqg:_DESTransform_ProcessBlock_m2826669227
hZe:_Int16_CompareTo_m3493496879
zmj:_GeneralNames_get_IPAddresses_m1712556836
wdi:__ZL56RenderTexture_t2666733923_CustomAttributesCacheGeneratorP21CustomAttributesCache
mni:__ZL56ColorWriteMask_t926634530_CustomAttributesCacheGeneratorP21CustomAttributesCache
wNi:_AnimatorControllerPlayable_Play_m3296663958_AdjustorThunk
Jsb:__ZN6Sprite17MainThreadCleanupEv
X6h:__ZL56OidCollection_t3790243618_CustomAttributesCacheGeneratorP21CustomAttributesCache
b0h:__ZL61SignatureDescription_t89145500_CustomAttributesCacheGeneratorP21CustomAttributesCache
n8i:_InternalEnumerator_1_MoveNext_m3389738333_AdjustorThunk
gN:__ZN10AudioMixer14UpdateMuteSoloEv
UVa:__Z17GetMonoManagerPtrv
kUi:_Component_GetComponents_m637589504
FCf:_Stack_1_System_Collections_ICollection_get_SyncRoot_m3151629354_gshared
Pyi:_MaskableGraphic_UnityEngine_UI_IClippable_get_gameObject_m954171032
Jla:__ZN9ShaderLab10SubProgram7CompileEv
sGa:__ZN7ApiGLES16SetPatchVerticesEi
n4e:_MonoIOStat_t1621921065_marshal_pinvoke
mTa:__ZN10MemoryFileC2E18MemLabelIdentifierP14MemoryFileData14FilePermission
Sjg:_TrackingServices_NotifyUnmarshaledObject_m1794048369
lYc:__ZN6il2cpp2vm5Class20FromGenericParameterEPK22Il2CppGenericParameter
j_h:__ZL59RemotingServices_t2399536837_CustomAttributesCacheGeneratorP21CustomAttributesCache
IY:__ZN19CloudServiceHandler11FlushEventsEv
cba:__ZN15GlobalCallbacksC2Ev
WNe:_Array_InternalArray__set_Item_TisLabelFixup_t4090909514_m565370771_gshared
LH:__Z82Register_UnityEngine_Animations_AnimatorControllerPlayable_INTERNAL_CALL_SetBoolIDv
$zc:_UNITY_FT_New_Memory_Face
L7h:__ZL74X509Crl_t1699034837_CustomAttributesCacheGenerator_U3CU3Ef__switchU24map13P21CustomAttributesCache
Ang:_SerializationEntry__ctor_m1619256036_AdjustorThunk
DG:__Z81AnimatorControllerPlayable_CUSTOM_INTERNAL_CALL_GetAnimatorTransitionInfoInternalR9HPlayablei
Uxc:__ZN20TextRenderingPrivate21TextMeshGeneratorImpl5FlushEv
Iza:__ZN26VertexDeclarationCacheGLES24DestroyVertexDeclarationEP17VertexDeclaration
zXc:__ZL7log2_32j
BZb:__ZN15ApplicationInfo14GetSandboxTypeEv
wIg:__Z41RuntimeInvoker_TypeAttributes_t2229518203PFvvEPK10MethodInfoPvPS4_
MHb:__Z18Transfer_BlittableI17RemapPPtrTransferLb1EhEvRK29SerializationCommandArgumentsR31RuntimeSerializationCommandInfo
avd:__ZNSt3__26vectorIjNS_9allocatorIjEEE26__swap_out_circular_bufferERNS_14__split_bufferIjRS2_EE
w7a:__ZN16ReflectionProbes40UpdateRealtimeReflectionProbesTimeslicedEv
KAj:_ListPool_1_Get_m529219189_gshared
Tod:__ZNSt3__26__treeINS_12__value_typeIP24Il2CppReflectionAssemblyPvEENS_19__map_value_compareIS3_S5_NS_4lessIS3_EELb1EEENS_9allocatorIS5_EEE16__insert_node_atEPNS_16__tree_node_baseIS4_EERSF_SF_
Jdh:_MethodBuilder_GetBaseDefinition_m774166361
Jlg:_FormatterConverter__ctor_m3958982477
PAb:__ZNK30RuntimeInitializeOnLoadManager22GetTypeVirtualInternalEv
T0c:__ZN15dense_hashtableINSt3__24pairIK10KeyWrapperIN6il2cpp5utils13dynamic_arrayIPK10Il2CppTypeLj4EEEEPFvvEEESA_NS3_8metadata19Il2CppSignatureHashEN14dense_hash_mapISA_SD_SG_NSA_14EqualsComparerINSF_22Il2CppSignatureCompareEEENS0_9allocatorISE_EEE9SelectKeyESK_SM_E12resize_deltaEjj
x1b:__ZN16ReflectionProbes15InitializeClassEv
xAc:_UNITY_FT_Destroy_Class_psnames_module_class
g2c:__ZNK15dense_hashtableINSt3__24pairIK10KeyWrapperIPK11Il2CppClassEPKcEES6_N6il2cpp5utils11PointerHashIS3_EEN14dense_hash_mapIS6_S9_SE_NS6_14EqualsComparerINS0_8equal_toIS5_EEEENS0_9allocatorISA_EEE9SelectKeyESJ_SL_E12test_deletedEj
Jgj:_MRUList_Evict_m2430323183
zPf:_ReadOnlyCollection_1_System_Collections_Generic_ICollectionU3CTU3E_Remove_m1060547576_gshared
nYg:__Z68RuntimeInvoker_Boolean_t3825574718_Rect_t3681755626_SByte_t454417549PFvvEPK10MethodInfoPvPS4_
Snd:__ZN6il2cpp2vm5Image9GetCorlibEv
E6e:_NullTextWriter_Write_m2306984725
Nz:__ZN8Animator13BatchedFKPassERK13dynamic_arrayIP14PlayableOutputLj4EE
Zzd:_GC_reclaim_uninit
aUi:_Component_GetComponent_m4225719715
Dgc:__Z75Register_UnityEngine_Playables_PlayableHandle_INTERNAL_CALL_SetTimeInternalv
C3d:_Graphic_set_raycastTarget_m1229173591
rQe:_Array_Sort_TisVector4_t2243707581_m474199742_gshared
Ntf:_List_1_CheckIndex_m2247532995_gshared
lmi:__ZL93GUIUtility_t3275770671_CustomAttributesCacheGenerator_GUIUtility_set_guiIsExiting_m2362636745P21CustomAttributesCache
z6e:_TextWriter_Write_m576684782
zvj:_Vector3_Max_m2105825185
Uj:_glIsVertexArray
cUj:b16
sBb:__ZNSt3__26vectorIN4core12basic_stringIcNS1_20StringStorageDefaultIcEEEE13stl_allocatorIS5_L18MemLabelIdentifier12ELi16EEEC2INS_11__wrap_iterIPS5_EEEET_SE_RKS8_PNS_9enable_ifIXaasr21__is_forward_iteratorISE_EE5valuesr16is_constructibleIS5_NS_15iterator_traitsISE_E9referenceEEE5valueEvE4typeE
vQa:__ZN25SingleBlockMemoryFileDataC2E18MemLabelIdentifierPvjb
Jgb:__ZN5Unity9Component8TransferI18StreamedBinaryReadILb0EEEEvRT_
ea:invoke_fff
HFi:_Text_get_fontSize_m3105730761
aUj:b14
S1f:_TlsServerHello_Update_m1740270635
LLc:__ZN2UI6Canvas17MainThreadCleanupEv
Cpa:__ZN6prcoreL12RemapGenericI17TexFormatARGB155517TexFormatRGBA8888EEvPKNS_9InnerInfoE
e_c:__ZN13Il2CppHashMapIPK19Il2CppGenericMethodPK26Il2CppGenericMethodIndicesN6il2cpp8metadata23Il2CppGenericMethodHashENS7_26Il2CppGenericMethodCompareENSt3__29allocatorINSA_4pairIK10KeyWrapperIS2_ES5_EEEEEC2EjRKS8_RKS9_
pzf:_List_1_Find_m3862454845_gshared
a6h:__ZL85Locale_t4255929015_CustomAttributesCacheGenerator_Locale_GetText_m1445803604____args1P21CustomAttributesCache
ygj:_MatchCollection_get_Item_m2609281578
mNa:__ZN7ApiGLES13CreateProgramEv
Tkb:__ZN11HaloManager7AddHaloEv
Aug:_UTF8Encoding__ctor_m100325490
EHa:__ZN4crnd12crn_unpackerD2Ev
kFi:_StencilMaterial_ClearAll_m1372779118
ek:_emscripten_glTexImage2D
sig:_ObjRefSurrogate_SetObjectData_m1873902916
LIc:_tt_driver_class_pic_init
N1:__ZN18ScriptingArguments9AddStringEPKc
rAd:_setup_header
aNf:_ReadOnlyCollection_1_System_Collections_IList_get_IsReadOnly_m1367736517_gshared
L9h:__ZL116Component_t3819376471_CustomAttributesCacheGenerator_Component_GetComponentsInParent_m1920178904____includeInactive1P21CustomAttributesCache
KQj:runPostSets
aqi:__ZL93AxisEventData_t1524870173_CustomAttributesCacheGenerator_AxisEventData_set_moveDir_m254243794P21CustomAttributesCache
yva:__ZL23stbir__resize_arbitraryPvPKviiiS_iiiffffPfiij14stbir_datatype12stbir_filterS4_10stbir_edgeS5_16stbir_colorspace
hvf:_List_1_System_Collections_IList_Insert_m848656350_gshared
RJb:__Z18Transfer_BlittableI24GenerateTypeTreeTransferLb1E8Vector4fEvRK29SerializationCommandArgumentsR31RuntimeSerializationCommandInfo
HZe:_Int16_ToString_m3971652088_AdjustorThunk
pk:_pthread_detach
S3c:__ZN6il2cpp2vm19SocketPollingThread7RunLoopEv
zmf:_KeyValuePair_2__ctor_m1640124561_AdjustorThunk
Ihg:_MethodDictionary_AllocInternalProperties_m3261295876
t4b:__ZN15DirectorManager20ScheduleGraphDestroyERK14HPlayableGraph
uya:__ZNSt3__213__stable_sortIRN10vector_mapI17ScriptingClassPtrPKN5Unity4TypeENS_4lessIS2_EENS_9allocatorINS_4pairIS2_S6_EEEEE13value_compareENS_11__wrap_iterIPSB_EEEEvT0_SJ_T_NS_15iterator_traitsISJ_E15difference_typeEPNSM_10value_typeEi
Y7h:__ZL77U3CPrivateImplementationDetailsU3E_t1486305139_CustomAttributesCacheGeneratorP21CustomAttributesCache
eVb:__ZN9ShaderLab25SerializedTextureProperty8TransferI24GenerateTypeTreeTransferEEvRT_
WTf:_Comparison_1_Invoke_m2645957248_gshared
J$j:_emscripten_glIsShader__wrapper
Red:__ZN6il2cpp2gc19AppendOnlyGCHashMapINSt3__24pairIPK14Il2CppAssemblyP11Il2CppClassEEP24Il2CppReflectionAssembly17ReflectionMapHashIS9_ENS2_8equal_toIS9_EEEC2Ev
$Dc:_tt_cmap14_char_next
IWh:__ZL69AssemblyTrademarkAttribute_t3740556705_CustomAttributesCacheGeneratorP21CustomAttributesCache
xDa:__ZN13GfxDeviceGLES28GetNativeVertexBufferPointerEP9GfxBuffer
Wja:__ZN11NamedObject8TransferI18StreamedBinaryReadILb0EEEEvRT_
iMa:__ZNK17GPUSkinPoseBuffer12GetBoneCountEv
nnc:__Z32GUIStyle_Get_Custom_PropFontSizeP12Il2CppObject
rng:_DelegatePInvokeWrapper_CallbackHandler_t362827733
u5h:__ZL59ResolveEventArgs_t1859808873_CustomAttributesCacheGeneratorP21CustomAttributesCache
hyj:_UnityAction_1_BeginInvoke_m3462722079_gshared
lnd:__ZNK15dense_hashtableINSt3__24pairIK10KeyWrapperIP14Il2CppIUnknownEjEES5_N6il2cpp5utils11PointerHashIS3_EEN14dense_hash_mapIS5_jSB_NS5_14EqualsComparerINS0_8equal_toIS4_EEEENS0_9allocatorIS7_EEE9SelectKeyESG_SI_E12test_deletedEj
rfh:_EventInfo_get_MemberType_m3337516651
Gtc:__Z18Transfer_BlittableI8JSONReadLb1EyEvRK29SerializationCommandArgumentsR31RuntimeSerializationCommandInfo
Mk:_emscripten_glMatrixMode
ts:__ZN8Animator23VirtualRedirectTransferER18StreamedBinaryReadILb0EE
lWh:__ZL93TypeBuilder_t3308873219_CustomAttributesCacheGenerator_TypeBuilder_GetConstructors_m774120094P21CustomAttributesCache
C2e:_NotSupportedException__ctor_m836173213
cig:_MethodReturnDictionary__ctor_m756139344
EV:__ZN11UnityEngine15CloudWebService14DataDispatcher16PrepareDataBlockERNS0_16SessionContainerE
DNa:__ZN18GfxFramebufferGLES5ClearE13GfxClearFlagsRK10ColorRGBAffib
B$g:__Z70RuntimeInvoker_Void_t1841601450_Playable_t1896841784_Int32_t2071877448PFvvEPK10MethodInfoPvPS4_
oAf:_List_1_GetIndex_m2513359832_gshared
h5i:_InternalEnumerator_1__ctor_m967618647_gshared
qQb:__ZL26Transfer_SimpleNativeClassI18StreamedBinaryReadILb0EE10RectOffsetLb0EEvRK29SerializationCommandArgumentsR31RuntimeSerializationCommandInfo
uAc:_UNITY_ft_destroy_default_module_classes
Orf:_List_1_CheckMatch_m1772343151_gshared
ZZa:__ZL12DepthPassJobPN21GfxDeviceAsyncCommand10ArgScratchEPKNS_3ArgE
HTb:__ZNSt3__26vectorIN9ShaderLab20SerializedSubProgram16TextureParameterENS_9allocatorIS3_EEE6assignINS_11__wrap_iterIPS3_EEEENS_9enable_ifIXaasr21__is_forward_iteratorIT_EE5valuesr16is_constructibleIS3_NS_15iterator_traitsISC_E9referenceEEE5valueEvE4typeESC_SC_
$$e:_IntPtr_Equals_m1214967011_AdjustorThunk
hyf:_List_1_Add_m3591975577_gshared
APc:__Z55Register_UnityEngine_CanvasGroup_get_ignoreParentGroupsv
C_b:__Z13RegisterClassI19LowerResBlitTextureEvv
gqi:__ZL100PointerEventData_t1599784723_CustomAttributesCacheGenerator_U3CpointerPressRaycastU3Ek__BackingFieldP21CustomAttributesCache
Pm:FUNCTION_TABLE_iiiiiiiiiiii
vkb:__ZN16GraphicsSettingsD0Ev
Scb:__Z29StdTemplateConversionFunctionIshEbPvR14SafeBinaryRead
RYj:_pthread_mutex_init__wrapper
Y5a:__ZN15LODGroupManager21CalculateLODDataArrayERK13LODParametersPK6Cameraf
n:cttz_i8
EGc:_UNITY_FT_GlyphLoader_Add
PVe:_DateTimeFormatInfo_get_FullDateTimePattern_m2607507656
q2f:_HttpsClientStream_RaiseServerCertificateValidation_m3356770426
yye:_DelegateSerializationHolder__ctor_m3915060553
vBb:__ZN15SerializeTraitsINSt3__26vectorIN30RuntimeInitializeOnLoadManager9ClassInfoE13stl_allocatorIS3_L18MemLabelIdentifier12ELi16EEEEE8TransferI24GenerateTypeTreeTransferEEvRS7_RT_
LQe:_Array_swap_TisUIVertex_t1204258818_TisUIVertex_t1204258818_m1163375424_gshared
Il:_emscripten_glViewport
Gwd:__ZN6il2cpp6icalls8mscorlib6System15MonoCustomAttrs17IsDefinedInternalEP12Il2CppObjectP20Il2CppReflectionType
bvb:__ZN4Mesh21UnswizzleVertexColorsEb
hca:__ZN30dense_hashtable_const_iteratorINSt3__24pairIKN4core12basic_stringIcNS2_20StringStorageDefaultIcEEEEP11AssetBundleEES6_20StringHash32FunctionIS6_EN14dense_hash_mapIS6_S9_SC_NS0_8equal_toIS6_EENS0_9allocatorISA_EEE9SelectKeyESF_SH_EppEv
H1f:_TlsServerSettings_set_CertificateTypes_m264196087
x6i:_InternalEnumerator_1__ctor_m4150855019_gshared
Ave:_DateTime_ToString_m2276663647_AdjustorThunk
IIc:_cff_parse_font_bbox
$ac:__Z35Application_Get_Custom_PropIsEditorv
_r:__GLOBAL__sub_I_runtime_animation2_lump_cpp
jzb:__ZN14PlayerSettings23VirtualRedirectTransferER18StreamedBinaryReadILb0EE
Nlf:_KeyValuePair_2__ctor_m3201181706_AdjustorThunk
vFd:__ZN6il2cpp2os5Event5ResetEv
t3a:__Z26CombineDepthNormalsTextureRK17RenderLoopContextR13dynamic_arrayI16RenderObjectDataLj4EE
VBj:_AesManaged__ctor_m2322442838
ypd:__ZN6il2cpp8metadata15GenericMetadata17InflateParametersEPK13ParameterInfohPK20Il2CppGenericContextb
k$e:_Int64_System_IConvertible_ToUInt32_m850395426_AdjustorThunk
Q2:__ZN18AwakeFromLoadQueue28InvokePersistentManagerAwakeEPNS_4ItemEj17AwakeFromLoadMode
Wbh:_TypeBuilder_GetMethodsByName_m229541072
NQi:_PCMReaderCallback_Invoke_m3610389815
gHd:_HMACSHA512__ctor_m2390736870
xy:__ZNK17AnimationPlayable27GetNextCompatibleDescendantEi
Cfc:__Z50Register_UnityEngine_Mesh_PrintErrorCantAccessMeshv
whb:__ZN4PPtrI6SpriteE8TransferI18StreamedBinaryReadILb0EEEEvRT_
Sbh:_TypeBuilder_GetInterfaces_m1818658502
V3f:_TlsException_get_Alert_m4022765752
HUf:_BigInteger_op_Equality_m2683055762
nga:__Z25SetNeedToPerformRenderingb
Yhh:_MonoMethod_GetPseudoCustomAttributes_m466965107
bjj:__ZN21InterfaceFuncInvoker0IP19LinkRef_t2090853131E6InvokeEjP11Il2CppClassP12Il2CppObject
qFh:_ValueCollection_System_Collections_Generic_IEnumerableU3CTValueU3E_GetEnumerator_m1604400448_gshared
G1a:__ZNSt3__227__insertion_sort_incompleteIR23CompareReflectionProbesP31RuntimeReflectionProbeBlendInfoEEbT0_S5_T_
m_a:__ZN14qsort_internal30FindAndMovePivotToLastPositionIP15RODataDepthPassi17ROSorterDepthPassEEvT_S4_T0_T1_
YVc:__ZN20UnityWebRequestProtoI19TransportJavaScript16AtomicRefCounter14RedirectHelper14ResponseHelper15DownloadHandler13UploadHandler12HeaderHelper14AsyncOperationE35Task_FinalizeAfterDHCompleteContentEPv
Mpj:_ResourceRequest_t2560315377_marshal_pinvoke
NBh:_Enumerator_System_Collections_IDictionaryEnumerator_get_Value_m3005608231_gshared
zFj:__ZL24UnresolvedVirtualCall_26P12Il2CppObjectS0_iiPK10MethodInfo
eyi:_MaskUtilities_NotifyStencilStateChanged_m1527407683
zKg:__Z94RuntimeInvoker_Void_t1841601450_RuntimeObject_Int32_t2071877448_RuntimeObject_SByte_t454417549PFvvEPK10MethodInfoPvPS4_
i6a:__ZN12CullingGroup10SendEventsEPK17CullingGroupEventj
Kff:_DSAManaged_GenerateKeyPair_m2711647034
Ubb:__ZN13sorted_vectorINSt3__24pairIN4core12basic_stringIcNS2_20StringStorageDefaultIcEEEES6_EEN10vector_mapIS6_S6_27compare_tstring_insensitiveIS6_E13stl_allocatorIS7_L18MemLabelIdentifier37ELi16EEE13value_compareESD_E9erase_oneIS6_EEjRKT_
jrb:__ZThn32_NK8Renderer8GetLayerEv
QKe:_Array_InternalArray__ICollection_Add_TisResourceCacheItem_t333236149_m1151081240_gshared
W4g:__Z39RuntimeInvoker_RaycastHit2D_t4063908774PFvvEPK10MethodInfoPvPS4_
fQf:_ReadOnlyCollection_1_System_Collections_Generic_ICollectionU3CTU3E_get_IsReadOnly_m2197226755_gshared
_P:__ZN17AudioClipPlayable12PrepareFrameERK19DirectorVisitorInfo
cse:_Convert_ToInt32_m2209788057
AKb:__ZN15SerializeTraitsI31ArrayOfManagedObjectsTransfererE8TransferI24GenerateTypeTreeTransferEEvRS0_RT_
dlg:_SoapServices_GetXmlTypeForInteropType_m3821579913
rDj:_EqualityComparer_1_System_Collections_IEqualityComparer_Equals_m3601790950_gshared
ami:__ZL117GUIStyle_t1799908754_CustomAttributesCacheGenerator_GUIStyle_INTERNAL_CALL_Internal_GetCursorPixelPosition_m562482816P21CustomAttributesCache
HZj:_emscripten_glTexParameterfv__wrapper
Y7c:_il2cpp_method_get_param_count
bZb:__ZN10systeminfo19ISOToSystemLanguageERN4core12basic_stringIcNS0_20StringStorageDefaultIcEEEE
Kdd:__ZNK15dense_hashtableINSt3__24pairIK10KeyWrapperINS1_IPK12PropertyInfoP11Il2CppClassEEEjEES9_17ReflectionMapHashIS8_EN14dense_hash_mapIS9_jSD_NS9_14EqualsComparerINS0_8equal_toIS8_EEEENS0_9allocatorISB_EEE9SelectKeyESI_SK_E3endEv
D5d:_HorizontalOrVerticalLayoutGroup_get_childForceExpandWidth_m227100883
MFd:__ZN6il2cpp8metadata26Il2CppGenericMethodCompare6EqualsEPK19Il2CppGenericMethodS4_
UHi:_AnimationClipPlayable_op_Explicit_m1819456049
btj:_TouchScreenKeyboard_get_active_m1442597648
f7h:__ZL68Uri_t19570940_CustomAttributesCacheGenerator_U3CU3Ef__switchU24map15P21CustomAttributesCache
_Ec:_ps_dimension_done
KZd:_LayoutRebuilder_MarkLayoutForRebuild_m640589351
BLc:__Z46Register_UnityEngine_TextGenerator_Dispose_cppv
qXd:_PointerEventData_get_pressEventCamera_m724559964
_Md:_String_IndexOfUnchecked_m3356721554
Zpb:__ZN16LightmapSettings8TransferI14SafeBinaryReadEEvRT_
NIa:__ZN17BufferManagerGLES13ReleaseBufferEP14DataBufferGLES
AJj:_Display__ctor_m3803500957
Dtc:__Z18Transfer_BlittableI8JSONReadLb1EjEvRK29SerializationCommandArgumentsR31RuntimeSerializationCommandInfo
Hui:__ZL63ScrollRect_t1199013257_CustomAttributesCacheGenerator_m_InertiaP21CustomAttributesCache
Xmj:_PKCS12_Decrypt_m1557069392
ZFi:_VertexHelper_AddUIVertexQuad_m280792808
w9f:_WebHeaderCollection_ToString_m1246460752
M6i:_InternalEnumerator_1_System_Collections_IEnumerator_get_Current_m2842514953_AdjustorThunk
jp:stackSave
uFc:_ps_dimension_end
zfc:__Z41Register_UnityEngine_Mesh_Internal_Createv
Jeb:__ZN16MemoryFileSystem5TouchER13FileEntryData
wpd:__ZNK15dense_hashtableI10KeyWrapperIP18Il2CppGenericClassES3_N6il2cpp8metadata22Il2CppGenericClassHashEN14dense_hash_setIS3_S6_NS3_14EqualsComparerINS5_25Il2CppGenericClassCompareEEENSt3__29allocatorIS3_EEE8IdentityESA_SD_E12test_deletedERK30dense_hashtable_const_iteratorIS3_S3_S6_SF_SA_SD_E
nZc:__ZN6il2cpp2vm5Class14GetNestedTypesEP11Il2CppClassPPv
xHd:_MACTripleDES_Initialize_m1318099802
uXf:_MD5SHA1_VerifySignature_m507888141
Ffe:_Byte_System_IConvertible_ToChar_m4188836679
xVe:_NumberFormatter_InitDecHexDigits_m2036076025
qCh:_Enumerator_get_CurrentKey_m3839846791_AdjustorThunk
quc:__ZN8JSONRead21TransferSTLStyleArrayI13dynamic_arrayIaLj1EEEEvRT_18MemLabelIdentifier17TransferMetaFlags
e8a:__ZN6Camera9SetAspectEf
lWc:__ZN19TransportJavaScript9DoRequestERKN4core12basic_stringIcNS0_20StringStorageDefaultIcEEEEm21UnityWebRequestMethodS6_bbP12HeaderHelperP13UploadHandlerP15DownloadHandlerP14ResponseHelperP15UnityWebRequest
p0d:_ColorTween_get_ignoreTimeScale_m641454126_AdjustorThunk
va:invoke_viiffiii
BMf:_ReadOnlyCollection_1_Contains_m1800950533_gshared
uri:__ZL79TouchInputModule_t2561058385_CustomAttributesCacheGenerator_m_ForceModuleActiveP21CustomAttributesCache
Z_j:_emscripten_glBindVertexArray__wrapper
x_g:__Z52RuntimeInvoker_Vector2_t2243707579_Int32_t2071877448PFvvEPK10MethodInfoPvPS4_
YWf:_MD4__ctor_m2366413460
yVi:_Display__ctor_m563295973
gmi:__ZL97GUIStyle_t1799908754_CustomAttributesCacheGenerator_GUIStyle_Internal_CalcMinMaxWidth_m3660306863P21CustomAttributesCache
vJh:_Dictionary_2_InitArrays_m435313205_gshared
$H:__ZN10ObjectPoolIN4FMOD3DSPENS0_4DSPIEE7GetFreeEi
W8a:__ZN9Transform37InitializeTransformHierarchyRecursiveER18TransformHierarchyRii
U$b:__Z34DefaultPrepareDispatchBoundsUpdateR13RendererScene18MemLabelIdentifier
D3d:_Graphic_get_useLegacyMeshGeneration_m1366444625
i9f:_ServicePointManager_get_CheckCertificateRevocationList_m4009410230
qti:__ZL65InputField_t1631627530_CustomAttributesCacheGenerator_m_InputTypeP21CustomAttributesCache
xGj:__ZL24UnresolvedVirtualCall_78P12Il2CppObjectPK10MethodInfo
Zdf:_ModulusRing_Pow_m1137250399
ddj:_InternalEnumerator_1_MoveNext_m2410670600_AdjustorThunk
sWa:__ZN17MeshRenderingData4InitEP4MeshS1_iP15SharedGfxBufferS3_
Sxj:_InvokableCall_2_Find_m1763382885_gshared
kPf:_ReadOnlyCollection_1_System_Collections_ICollection_get_SyncRoot_m2779904122_gshared
fOh:_EqualityComparer_1_System_Collections_IEqualityComparer_Equals_m1682986002_gshared
gla:__ZN19ShaderPropertySheet38CopyTextureWithAuxiliaryPropertiesFromERKN9ShaderLab16FastPropertyNameERKS_
Jdg:_X509ChainStatus__ctor_m3628359961_AdjustorThunk
Swi:__ZL77LayoutUtility_t4076838048_CustomAttributesCacheGenerator_U3CU3Ef__amU24cache4P21CustomAttributesCache
pNd:_Evidence_get_HostEvidenceList_m2095478124
Zic:__Z57Register_UnityEngine_Transform_INTERNAL_set_localPositionv
z_f:_Context_Clear_m4000337070
MDa:__ZN13GfxDeviceGLES26SetRandomWriteTargetBufferEi15ComputeBufferID
tgg:_IntervalCollection_Normalize_m538796191
TTa:__ZZ23InitPlayerLoopCallbacksvEN49EarlyUpdateResetFrameStatsAfterPresentRegistrator7ForwardEv
Moe:_Console_SetEncodings_m342145566
ltj:_TrackedReference_op_Equality_m3491334086
u3d:_FontUpdateTracker_UntrackText_m3827316510
OSe:_Array_InternalArray__get_Item_TisSingle_t2076509932_m1495809753_gshared
jOe:_Array_InternalArray__set_Item_TisAnimatorClipInfo_t3905751349_m978873279_gshared
_7b:__ZNK11ICallString6ToUTF8Ev
rYc:__ZN15dense_hashtableINSt3__24pairIK10KeyWrapperIPK22Il2CppGenericParameterEP11Il2CppClassEES6_N6il2cpp5utils11PointerHashIS4_EEN14dense_hash_mapIS6_S9_SE_NS6_14EqualsComparerINS0_8equal_toIS5_EEEENS0_9allocatorISA_EEE9SelectKeyESJ_SL_E15insert_noresizeERKSA_
wyd:_GC_number_stack_black_listed
ynd:__ZN24dense_hashtable_iteratorINSt3__24pairIK10KeyWrapperIP14Il2CppIUnknownEjEES5_N6il2cpp5utils11PointerHashIS3_EEN14dense_hash_mapIS5_jSB_NS5_14EqualsComparerINS0_8equal_toIS4_EEEENS0_9allocatorIS7_EEE9SelectKeyESG_SI_E30advance_past_empty_and_deletedEv
n_a:__ZNSt3__211__sift_downIR17ROSorterDepthPassP15RODataDepthPassEEvT0_S5_T_NS_15iterator_traitsIS5_E15difference_typeES5_
F8g:_Default_SelectMethod_m3081239996
gna:__ZN18UnityPropertySheet11UnityTexEnvC2Ev
iac:__ZNSt3__214__split_bufferIPN9BlobWrite11TypeContextENS_9allocatorIS3_EEE10push_frontERKS3_
eA:__ZN8Animator17ApplyOnAnimatorIKEiRNS_11AnimatorJobE
Y5:__ZN12FileAccessor4ReadEyyPvPy
Gla:__ZN13dynamic_arrayI16ShaderKeywordSetLj4EE6insertEPS0_PKS0_S4_
uRb:__Z29Transfer_Blittable_ArrayFieldI18StreamedBinaryReadILb0EE11QuaternionfEvRT_R9ArrayInfoRK23StaticTransferFieldInfo
Jhg:_MethodDictionary_IsOverridenKey_m3922224650
zne:_SyncHashtable_Contains_m3042906549
ZAf:_List_1_System_Collections_IList_set_Item_m4016273526_gshared
_dg:_X509KeyUsageExtension_CopyFrom_m931530012
xIi:_AnimationLayerMixerPlayable_IsLayerAdditiveInternal_m3902226808
G7a:__ZN13RenderTexture9SetHeightEi
Mt:__ZN7mecanim9animation17ClearMotionOutputEPNS0_18AnimationNodeStateE
imb:__ZN16LevelGameManager8TransferI24GenerateTypeTreeTransferEEvRT_
Uxi:_LayoutUtility_U3CGetMinHeightU3Em__4_m1769295917
VTi:_Color32__ctor_m1932627809_AdjustorThunk
e5f:_SslStreamBase_Read_m1036897444
hNi:_AnimatorControllerPlayable_INTERNAL_CALL_PlayInFixedTimeInternal_m44271350
Uzi:_RectMask2D_PerformClipping_m1232012832
kmd:__ZN6il2cpp6icalls8mscorlib6System2IO6MonoIO17GetFileAttributesEP12Il2CppStringPi
eDh:_Transform_1_Invoke_m4020530914_gshared
GDc:_tt_cmap8_char_index
sIf:_Collection_1_set_Item_m1223389833_gshared
j2:__Z24scripting_class_get_name17ScriptingClassPtr
g8:__ZN13RuntimeStaticI15GUIEventManagerLb0EE13StaticDestroyEPv
nmh:_GUILayoutGroup_ResetCursor_m3160916532
rGb:__Z29Transfer_Blittable_ArrayFieldI14SafeBinaryReadjEvRT_R9ArrayInfoRK23StaticTransferFieldInfo
eSi:_Camera_FireOnPostRender_m94860165
aDi:_ScrollRect_get_minWidth_m3151814267
le:_emscripten_set_keydown_callback
Wme:_Enumerator_get_Value_m3684748062
$ib:__ZN19StreamedBinaryWriteILb0EE21TransferSTLStyleArrayINSt3__26vectorI17SortingLayerEntryNS2_9allocatorIS4_EEEEEEvRT_17TransferMetaFlags
SAg:_UInt32_Parse_m3371984903
e6:__ZN12FileAccessorC2Ev
Aoj:_X509CertificateCollection_Compare_m1014334435
V9a:__ZN9Transform35SetLocalPositionWithoutNotificationERKN4math7_float3E
O4g:__Z33RuntimeInvoker_TypeTag_t141209596PFvvEPK10MethodInfoPvPS4_
Bhj:_PatternLinkStack_GetCurrent_m2994645935
tTf:_Comparison_1__ctor_m2929820459_gshared
VHg:__Z59RuntimeInvoker_RuntimeObject_RuntimeObject_SByte_t454417549PFvvEPK10MethodInfoPvPS4_
v1i:_AsyncResult__ctor_m1183194429
q6c:__ZN6il2cpp2vm7Runtime12GetConfigDirEv
tD:__ZN4PPtrI13MonoBehaviourE8TransferI18StreamedBinaryReadILb0EEEEvRT_
Lhg:_MethodDictionary_set_Item_m3475146889
H1g:__Z71RuntimeInvoker_Int32_t2071877448_CustomAttributeNamedArgument_t94157543PFvvEPK10MethodInfoPvPS4_
p_h:__ZL62WellKnownObjectMode_t2630225581_CustomAttributesCacheGeneratorP21CustomAttributesCache
nGi:_Toggle_PlayEffect_m3950629415
LIe:_Array_IndexOf_TisRuntimeObject_m214763038_gshared
b3g:__Z79RuntimeInvoker_Void_t1841601450_Int32_t2071877448_ParameterModifier_t1820634920PFvvEPK10MethodInfoPvPS4_
$Cb:__Z39WriteQueueForTransferSignatureIntoCacheRK31TransferFunctionScriptingTraitsRK24TransferRequestSignature17ScriptingClassPtrR23CachedSerializationDataRb
Mta:__ZN13RenderManager18UpdateAllRenderersEv
vRc:__ZN22BaseUnityConnectClient30OnEnteringStatePausedOrStoppedEv
uJf:_Collection_1_System_Collections_ICollection_get_SyncRoot_m2157752542_gshared
tdd:__ZN15dense_hashtableINSt3__24pairIK10KeyWrapperINS1_IPK12PropertyInfoP11Il2CppClassEEEjEES9_17ReflectionMapHashIS8_EN14dense_hash_mapIS9_jSD_NS9_14EqualsComparerINS0_8equal_toIS8_EEEENS0_9allocatorISB_EEE9SelectKeyESI_SK_E12resize_deltaEjj
Zt:__ZN7mecanim5human12HumanPoseAddERNS0_9HumanPoseERKS1_S4_
fyj:_UnityAction_1__ctor_m2836997866_gshared
ONi:_Animator_ResetTrigger_m865269317
E2h:__ZL64AssemblyLoadEventArgs_t4233815743_CustomAttributesCacheGeneratorP21CustomAttributesCache
yIf:_Collection_1_IsFixedSize_m218241296_gshared
R9a:__Z24MergeTransformComponentsR9TransformS0_b
qHj:__ZL25UnresolvedVirtualCall_125P12Il2CppObjectPK10MethodInfo
uMi:_AnimatorControllerPlayable_IsInTransition_m3708059860
_Qi:_DelegatePInvokeWrapper_AudioConfigurationChangeHandler_t3743753033
l4e:_MonoIO_get_PathSeparator_m2635828107
olg:_TypeInfo_get_TypeName_m1722081275
Rcj:_InternalEnumerator_1_get_Current_m889125315_gshared
u9e:_MonoType_get_Name_m865859211
PCe:_CultureInfo__cctor_m2290268677
W2i:_ArrayReadOnlyList_1_System_Collections_IEnumerable_GetEnumerator_m3039869667_gshared
ZT:__Z71Register_UnityEngine_Audio_AudioClipPlayable_INTERNAL_CALL_ValidateTypev
qkg:_RemotingConfiguration__cctor_m2129988840
PGf:_Collection_1_Insert_m44548038_gshared
Hdj:_InternalEnumerator_1_MoveNext_m4175772187_AdjustorThunk
kmi:__ZL87GUIUtility_t3275770671_CustomAttributesCacheGenerator_U3CguiIsExitingU3Ek__BackingFieldP21CustomAttributesCache
Iwd:__ZN6il2cpp2vm13ComObjectBase19GetRuntimeClassNameEPP15Il2CppHString__
AQb:__Z35Transfer_Blittable_FixedBufferFieldI18StreamedBinaryReadILb0EEyEvRK29SerializationCommandArgumentsR31RuntimeSerializationCommandInfo
Sj:_emscripten_glVertexAttribPointer
sQj:__ZNSt11logic_errorD0Ev
Jlb:__ZNK20IntermediateRenderer12GetSceneMaskEv
Rra:__ZN14PreloadManager26UpdatePreloadingSingleStepENS_21UpdatePreloadingFlagsEi
Zrh:_Material__ctor_m1440882780
VKd:_SHA512Managed_Initialize_m891287980
DNd:_SecurityException__ctor_m1484114982
$_i:_SinkProviderData_get_Children_m100594762
fpj:_X509Crl_GetHashName_m183504634
sce:_Array_GetValue_m1507415734
fhc:__Z57Register_UnityEngine_RectTransform_INTERNAL_set_anchorMinv
lUe:_Object_MemberwiseClone_m2655589444
FNf:_ReadOnlyCollection_1_System_Collections_IList_get_Item_m375043207_gshared
jpa:__ZN6prcoreL25inner_stretch_i8_bilinearEPKNS_9InnerInfoE
rsa:__ZL30RegisterFilteredObjectCallbackPP12Il2CppObjectiPv
N1e:_DirectoryInfo_ToString_m4208086799
fih:_MonoMethod_get_IsGenericMethod_m4276550811
DDh:_Transform_1_BeginInvoke_m3826027984_gshared
BHi:_AnimationEvent_set_time_m2162176572
_V:__ZN11UnityEngine15CloudWebService16SessionContainer24GetSessionHeaderJsonDataERKN4core12basic_stringIcNS2_20StringStorageDefaultIcEEEERNS2_13StringBuilderE
ere:_Decimal_op_Implicit_m2149927308
T7:__ZN13RuntimeStaticI21AssetReferenceStorageLb0EE13StaticDestroyEPv
ssd:__ZN6il2cpp6icalls8mscorlib6System9AppDomain22InternalGetProcessGuidEP12Il2CppString
rZb:__ZN15dense_hashtableINSt3__24pairIKN4core12basic_stringIcNS2_20StringStorageDefaultIcEEEE10vector_setI4PPtrI11SpriteAtlasENS0_4lessISB_EE13stl_allocatorISB_L18MemLabelIdentifier79ELi16EEEEES6_20StringHash32FunctionIS6_EN14dense_hash_mapIS6_SH_SK_NS0_8equal_toIS6_EESE_ISI_LSF_79ELi16EEE9SelectKeyESN_SO_E15insert_noresizeERKSI_
ggf:_KeyPairPersistence_get_UseMachineKeyStore_m560802076
gDf:_Collection_1_CopyTo_m1840908033_gshared
XQ:__ZN19AudioPlayableOutput19DeallocateResourcesEv
mAh:_Enumerator_System_Collections_IDictionaryEnumerator_get_Entry_m345330700_AdjustorThunk
i5c:__ZNSt3__214__split_bufferIP9FieldInfoRNS_9allocatorIS2_EEEC2EjjS5_
yTd:_AbstractEventData__ctor_m3586111519
kKb:__Z18Transfer_BlittableI24GenerateTypeTreeTransferLb1EjEvRK29SerializationCommandArgumentsR31RuntimeSerializationCommandInfo
kYa:__ZNK25CameraStackRenderingState25GetAfterFinalCameraTargetEv
TWf:_MD2Managed_Padding_m410163267
gdd:__ZNK15dense_hashtableINSt3__24pairIK10KeyWrapperINS1_IPK11Il2CppImageP11Il2CppClassEEEjEES9_17ReflectionMapHashIS8_EN14dense_hash_mapIS9_jSD_NS9_14EqualsComparerINS0_8equal_toIS8_EEEENS0_9allocatorISB_EEE9SelectKeyESI_SK_E10test_emptyERK30dense_hashtable_const_iteratorISB_S9_SD_SM_SI_SK_E
pYc:__ZN6il2cpp2os12FastAutoLockD2Ev
Clb:__ZN11ColorRGBA328TransferI14SafeBinaryReadEEvRT_
YBh:_Enumerator_Dispose_m401572848_AdjustorThunk
Mbi:__ZL85Input_t1785128008_CustomAttributesCacheGenerator_Input_get_touchSupported_m3352846145P21CustomAttributesCache
Qf:_emscripten_glClearDepth
V2b:__ZNK8GUILayer22GetTypeVirtualInternalEv
_mb:__ZN8Playable12SetPlayStateE9PlayState
lsb:__ZN14SafeBinaryRead21TransferSTLStyleArrayINSt3__26vectorIN15QualitySettings14QualitySettingENS1_9allocatorIS4_EEEEEEvRT_17TransferMetaFlags
OQe:_Array_swap_TisVector2_t2243707579_m3359959735_gshared
a2e:_File_OpenText_m4058508963
Wai:__ZL101QualitySettings_t3238033062_CustomAttributesCacheGenerator_QualitySettings_set_vSyncCount_m1045847619P21CustomAttributesCache
Wyb:__ZNSt3__26vectorINS_4pairIPKN5Unity4TypeE7Hash128EENS_9allocatorIS7_EEE8__appendEj
plg:_WellKnownClientTypeEntry__ctor_m670594074
Dsi:__ZL61FontData_t2614388407_CustomAttributesCacheGenerator_m_MinSizeP21CustomAttributesCache
Dfa:__ZL41FileEntryInfoListToFolderContentsAbsoluteRK13dynamic_arrayI13FileEntryInfoLj8EERNSt3__23setIN4core12basic_stringIcNS6_20StringStorageDefaultIcEEEENS4_4lessISA_EENS4_9allocatorISA_EEEE
wue:_DateTime_System_IConvertible_ToSingle_m3927769066_AdjustorThunk
UHc:_cff_font_load
_tj:_Enumerator_Reset_m950879083
gud:__GLOBAL__sub_I_LibraryLoader_cpp
Rac:__Z13IsPathCreatedRKN4core12basic_stringIcNS_20StringStorageDefaultIcEEEE
Eva:__ZL22stbir__encode_scanlineP11stbir__infoiPvPfiii
wMg:__Z136RuntimeInvoker_Void_t1841601450_Byte_t3683104436_RuntimeObject_Int64U26_t763825331_ObjectU26_t597476745_SerializationInfoU26_t4051840202PFvvEPK10MethodInfoPvPS4_
Mwc:__ZN20QuadTreeNodeRenderer13StaticDestroyEPv
WW:__ZN11UnityEngine15CloudWebService20WebRequestRestClient5AbortEv
H$b:__ZN9Transform12CleanupClassEv
TGg:__Z50RuntimeInvoker_Void_t1841601450_Double_t4078015681PFvvEPK10MethodInfoPvPS4_
JBd:__ZN6il2cpp6icalls8mscorlib6System9Threading16NativeEventCalls19CloseEvent_internalE12Il2CppIntPtr
Mz:__ZN11UnityEngine9Animation33SetGenericTransformPropertyValuesERKNS0_30AnimatorGenericBindingConstantERKN7mecanim10ValueArrayEP9Transformb
x_f:_ClientContext_set_ClientHelloProtocol_m2246603449
cAc:_UNITY_FT_Set_Pixel_Sizes
P9d:_U3CMouseDragOutsideRectU3Ec__Iterator1_MoveNext_m2845491958
uUb:__ZNSt3__26vectorIN9ShaderLab19SerializedSubShaderENS_9allocatorIS2_EEE26__swap_out_circular_bufferERNS_14__split_bufferIS2_RS4_EE
AQe:_Array_swap_TisAnimatorClipInfo_t3905751349_TisAnimatorClipInfo_t3905751349_m1375833338_gshared
FIg:__Z116RuntimeInvoker_RuntimeObject_RuntimeObject_Int32_t2071877448_RuntimeObject_RuntimeObject_RuntimeObject_RuntimeObjectPFvvEPK10MethodInfoPvPS4_
BYd:_StandaloneInputModule_IsModuleSupported_m623598506
Qid:__ZN6il2cpp2vmL24thread_cleanup_on_cancelEPv
VXi:_ResourceReader_Close_m3256966401
rpg:_SByte_ToString_m4105923225_AdjustorThunk
tng:_StreamingContext_t1417235061_marshal_pinvoke_cleanup
TCe:_CultureInfo_ConstructCurrentUICulture_m3363349599
ltb:__ZN13dynamic_arrayI7SubMeshLj4EE18resize_initializedEjRKS0_12ResizePolicy
Svi:__ZL75CanvasScaler_t2574720772_CustomAttributesCacheGenerator_m_FallbackScreenDPIP21CustomAttributesCache
T8e:_MonoType_GetEvent_m4160342003
Ezi:_RawImage_set_texture_m2400157626
DEj:_PrimeHelper_ToPrime_m1606935350_gshared
Rlb:__Z30ProcessDynamicBatchGeometryJobP25DynamicVBOGeometryJobDataj
cOh:_EqualityComparer_1__ctor_m81618677_gshared
L_a:__ZNSt3__27__sort4IRNS_6__lessI11CulledLightS2_EEPS2_EEjT0_S6_S6_S6_T_
FPi:_AudioClipPlayable_INTERNAL_CALL_GetLoopedInternal_m3082735156
tbf:_MSCompatUnicodeTable_Level3_m260824928
qae:_LayoutElement_OnEnable_m3478706401
w3:__Z26scripting_object_get_class18ScriptingObjectPtr
QKj:_Func_3__ctor_m3917225629_gshared
e$b:__ZNK28MonoBehaviourPropertyBinding15GenerateBindingERKN4core12basic_stringIcNS0_20StringStorageDefaultIcEEEEbRN11UnityEngine9Animation14GenericBindingE
Sph:_GUIStyle_CalcMinMaxWidth_m2027503105
BZe:_Int32_FindExponent_m3187554672
sgf:_KeyPairPersistence_Load_m1355205585
$Bi:_ScrollRect_get_horizontalScrollbarVisibility_m4152068235
D_e:_Int32_ToString_m2960866144_AdjustorThunk
IKg:__Z127RuntimeInvoker_Void_t1841601450_IntPtr_t_Int32_t2071877448_SByte_t454417549_Int32_t2071877448_SByte_t454417549_SByte_t454417549PFvvEPK10MethodInfoPvPS4_
WEj:_HashSet_1_Contains_m3626542335_gshared
a1g:__Z104RuntimeInvoker_Int32_t2071877448_AnimatorClipInfo_t3905751349_AnimatorClipInfo_t3905751349_RuntimeObjectPFvvEPK10MethodInfoPvPS4_
HPd:_Single_CompareTo_m2081476257_AdjustorThunk
Kud:__ZN6il2cpp6icalls8mscorlib6System11Environment15internalGetHomeEv
oTj:dynCall_iiiiiiffiiiiiiiiiffffiiii
Anj:_PKCS12_get_Keys_m288413492
wgb:__ZNK5Unity9Component7GetNameEv
dCb:__ZN13MonoBehaviour5DoGUIENS_13GUILayoutTypeEii
U3h:__ZL79Convert_t2607082565_CustomAttributesCacheGenerator_Convert_ToUInt16_m2130758075P21CustomAttributesCache
ang:__ZN21InterfaceFuncInvoker4IP12Il2CppObjectS1_P28SerializationInfo_t22898743028StreamingContext_t1417235061S1_E6InvokeEjP11Il2CppClassS1_S1_S3_S4_S1_
Q4h:__ZL58IFormatProvider_t2849799027_CustomAttributesCacheGeneratorP21CustomAttributesCache
O2g:__Z75RuntimeInvoker_Void_t1841601450_Int32_t2071877448_KeyValuePair_2_t888819835PFvvEPK10MethodInfoPvPS4_
lBj:_ObjectPool_1_Get_m3724675538_gshared
obb:__ZN13ScreenManagerD0Ev
I$f:_ClientSessionCache_SetContextFromCache_m3917528339
ZA:__ZN7mecanim8skeleton26SkeletonPoseComputeGlobalQEPKNS0_8SkeletonEPKNS0_13SkeletonPoseTIN4math4trsXEEEPS7_ii
pvc:__ZN8JSONRead21TransferSTLStyleArrayI13dynamic_arrayIfLj4EEEEvRT_18MemLabelIdentifier17TransferMetaFlags
pJj:__ZL25UnresolvedVirtualCall_232P12Il2CppObject20UIVertex_t1204258818PK10MethodInfo
Evf:_List_1_GetEnumerator_m2672519407_gshared
zA:__ZN9BlobWrite8TransferI22OffsetPtrArrayTransferIiEEEvRT_PKc17TransferMetaFlags
LMg:__Z82RuntimeInvoker_Boolean_t3825574718_SByte_t454417549_RuntimeObject_SByte_t454417549PFvvEPK10MethodInfoPvPS4_
dbf:_ContractionComparer_Compare_m314873025
h3a:__ZN14qsort_internal18QSortSingleJobDataIP16RenderObjectDatai26RenderDeferredObjectSorterE7SortJobEPS4_
GIb:__Z18Transfer_BlittableI17RemapPPtrTransferLb1EjEvRK29SerializationCommandArgumentsR31RuntimeSerializationCommandInfo
Hqh:_GUIUtility_EndGUIFromException_m2091524531
V_e:_Int64_System_IConvertible_ToDouble_m638786774
qM:__ZN4FMOD6System7releaseEv
_me:_HashKeys_get_IsSynchronized_m4207641174
WLb:__Z18Transfer_BlittableI19StreamedBinaryWriteILb0EELb1E8BitFieldEvRK29SerializationCommandArgumentsR31RuntimeSerializationCommandInfo
B5:__Z18PathToAbsolutePathRKN4core12basic_stringIcNS_20StringStorageDefaultIcEEEE
cSg:__Z44RuntimeInvoker_HashAlgorithmType_t1654661965PFvvEPK10MethodInfoPvPS4_
Smf:_Enumerator_MoveNext_m3078170540_AdjustorThunk
xLd:_SymmetricAlgorithm_get_Padding_m718051685
NBj:_Action_Invoke_m3801112262
dHg:__Z79RuntimeInvoker_Decimal_t724701077_RuntimeObject_Int32_t2071877448_RuntimeObjectPFvvEPK10MethodInfoPvPS4_
PTi:_Color_Lerp_m3323752807
jva:__ZL13BlitImageImplR14ImageReferenceiiRKS_NS_10ColorSpaceENS_8BlitModeEb
IGi:_Toggle_UnityEngine_UI_ICanvasElement_get_transform_m4177274032
Bqa:__ZN6prcoreL17RemapGenericFloatI18TexFormatRGBAFloat17TexFormatRGBFloatEEvPKNS_9InnerInfoE
R2h:__ZL76Convert_t2607082565_CustomAttributesCacheGenerator_Convert_ToChar_m541258017P21CustomAttributesCache
tGg:__Z64RuntimeInvoker_RuntimeObject_Int16_t4041245914_Int16_t4041245914PFvvEPK10MethodInfoPvPS4_
kii:__ZL157AnimatorControllerPlayable_t1744083903_CustomAttributesCacheGenerator_AnimatorControllerPlayable_INTERNAL_CALL_IsParameterControlledByCurveString_m3721812988P21CustomAttributesCache
awa:__ZN29SerializeTraitsForStringTypesIN4core12basic_stringIcNS0_20StringStorageDefaultIcEEEEE8TransferI24GenerateTypeTreeTransferEEvRS4_RT_
wph:_GUIUtility_Internal_GetHotControl_m2510727642
xK:__ZN12AudioManager29ShutdownReinitializeAndReloadEv
Hmj:_NetscapeCertTypeExtension_Decode_m2210025005
e$g:__Z56RuntimeInvoker_Void_t1841601450_KeyValuePair_2_t38854645PFvvEPK10MethodInfoPvPS4_
Azh:_RectTransform_GetLocalCorners_m1836626405
Svd:__GLOBAL__sub_I_String_cpp
oYc:__ZN15dense_hashtableINSt3__24pairIK10KeyWrapperIPK22Il2CppGenericParameterEP11Il2CppClassEES6_N6il2cpp5utils11PointerHashIS4_EEN14dense_hash_mapIS6_S9_SE_NS6_14EqualsComparerINS0_8equal_toIS5_EEEENS0_9allocatorISA_EEE9SelectKeyESJ_SL_E6insertERKSA_
e2e:_FileLoadException__ctor_m1356374414
CZf:_TlsStream_Reset_m1504601050
Npf:__ZN23InterfaceActionInvoker2IP23Int32U5BU5D_t3030399641iE6InvokeEjP11Il2CppClassP12Il2CppObjectS1_i
_Fa:__ZN14DataBufferGLES16RecreateWithDataEjPKv
nac:__Z29GetGlobalAllowNameConversionsv
Jab:__ZN8Material8SetColorEN9ShaderLab16FastPropertyNameERK10ColorRGBAf
pgh:_Module_GetCustomAttributes_m3581287913
wSh:__ZL67Type_t_CustomAttributesCacheGenerator_Type_IsSubclassOf_m2450899481P21CustomAttributesCache
jO:__ZN11AudioSource23VirtualRedirectTransferER18StreamedBinaryReadILb0EE
Y7:__ZN21AssetReferenceStorageC2Ev
BMb:__ZN10RectOffset8TransferI19StreamedBinaryWriteILb0EEEEvRT_
rxc:__ZNSt3__26vectorIN4core12basic_stringIcNS1_20StringStorageDefaultIcEEEE13stl_allocatorIS5_L18MemLabelIdentifier34ELi16EEEC2INS_11__wrap_iterIPS5_EEEET_SE_RKS8_PNS_9enable_ifIXaasr21__is_forward_iteratorISE_EE5valuesr16is_constructibleIS5_NS_15iterator_traitsISE_E9referenceEEE5valueEvE4typeE
n2:__ZL41AssemblyNameMatchesWithOrWithoutExtensionPKcS0_
O0g:__Z53RuntimeInvoker_Boolean_t3825574718_Color32_t874517518PFvvEPK10MethodInfoPvPS4_
MOi:_AssemblyIsEditorAssembly__ctor_m2639706522
qKa:__ZN14GfxContextGLES43AddRenderSurfaceToDeferredFBOInvalidateListEPK17RenderSurfaceGLES
Ojd:__ZN6il2cpp6icalls8mscorlib6System9Threading6Thread15Thread_internalEP12Il2CppThreadP14Il2CppDelegate
Qka:__ZN11NamedObject23VirtualRedirectTransferER14SafeBinaryRead
xRh:__ZL74RuntimeArray_CustomAttributesCacheGenerator_Array_BinarySearch_m3522310993P21CustomAttributesCache
Uzc:__ZNSt3__26vectorIN20TextRenderingPrivate8FontImpl13CharacterInfoE13stl_allocatorIS3_L18MemLabelIdentifier1ELi16EEE6insertENS_11__wrap_iterIPKS3_EERS9_
$ra:__ZN23PreloadManagerOperation6IsDoneEv
mdi:__ZL102DataUtility_t4181890362_CustomAttributesCacheGenerator_DataUtility_INTERNAL_CALL_GetOuterUV_m121019172P21CustomAttributesCache
z6c:__ZN6il2cpp2vm7Runtime15InvokeWithThrowEPK10MethodInfoPvPS5_
Zjf:_X509Certificate_get_RawData_m3000055075
C5b:__Z33GetHasChangedDeprecatedSystemMaskv
kwd:__ZN6il2cpp5utils11StringUtils11Utf16ToUtf8ERKNSt3__212basic_stringIDsNS2_11char_traitsIDsEENS2_9allocatorIDsEEEE
B4g:__Z30RuntimeInvoker_Link_t865133271PFvvEPK10MethodInfoPvPS4_
xBh:_Enumerator_VerifyState_m1165543189_AdjustorThunk
cve:_DateTime_AddSeconds_m722082155_AdjustorThunk
mke:_SynchronizedArrayListWrapper_CopyTo_m956887031
ili:__ZL80GUIStyle_t1799908754_CustomAttributesCacheGenerator_GUIStyle_Cleanup_m1915255373P21CustomAttributesCache
Nej:_Comparer_1__ctor_m1202126643_gshared
Rei:__ZL92Transform_t3275118058_CustomAttributesCacheGenerator_Transform_get_parentInternal_m927919099P21CustomAttributesCache
Bwa:__ZN21LightProbeProxyVolume18HasHardwareSupportEv
epa:__ZN6prcoreL31inner_stretch_argb8888_bilinearEPKNS_9InnerInfoE
MNb:__Z18Transfer_BlittableI18StreamedBinaryReadILb1EELb1E8BitFieldEvRK29SerializationCommandArgumentsR31RuntimeSerializationCommandInfo
WBc:_UNITY_FT_Outline_Decompose
J0f:_TlsClientCertificate_get_ClientCertificate_m3062440489
fNd:_StrongNamePublicKeyBlob_ToString_m3721281223
IAd:_GC_init_size_map
c6i:_InternalEnumerator_1_get_Current_m198513457_AdjustorThunk
Lfi:__ZL116AudioClipPlayable_t192218916_CustomAttributesCacheGenerator_AudioClipPlayable_INTERNAL_CALL_ValidateType_m1977251214P21CustomAttributesCache
_9i:_InternalEnumerator_1__ctor_m1240086835_AdjustorThunk
LYa:__Z20scripting_object_new17ScriptingClassPtr
yXe:_TextInfo__ctor_m2782608694
Xcc:__Z31Display_CUSTOM_GetSystemExtImpl13Il2Cpp_IntPtrPiS0_
$Bf:_Queue_1_System_Collections_ICollection_CopyTo_m772787461_gshared
Hjc:__Z58Register_UnityEngine_Object_Internal_CloneSingleWithParentv
tbd:__ZN24dense_hashtable_iteratorINSt3__24pairIK10KeyWrapperINS1_IPK9FieldInfoP11Il2CppClassEEEjEES9_17ReflectionMapHashIS8_EN14dense_hash_mapIS9_jSD_NS9_14EqualsComparerINS0_8equal_toIS8_EEEENS0_9allocatorISB_EEE9SelectKeyESI_SK_E30advance_past_empty_and_deletedEv
HXe:_TextInfo_ToUpper_m299550697
sJi:_AnimationOffsetPlayable_INTERNAL_CALL_SetRotationInternal_m2809009466
_Sf:_ReadOnlyCollection_1_System_Collections_IList_Contains_m4073811941_gshared
b3a:__ZN18ShadowMapJobHeaderD0Ev
J3d:_Graphic_OnRectTransformDimensionsChange_m1610753363
bte:_Convert_ToUInt16_m3265369225
P:Math_exp
y8e:_MonoEnumInfo_get_Cache_m3551569711
No:FUNCTION_TABLE_iiifi
gsd:__ZN6il2cpp2os5posix13PosixAutoLockD2Ev
IEe:_Array_InternalArray__ICollection_Contains_TisVector3_t2243707580_m3625701788_gshared
aza:__ZNSt3__26vectorINS_4pairIyP17VertexDeclarationEENS_9allocatorIS4_EEE6insertENS_11__wrap_iterIPKS4_EERS9_
Ajh:_TypeFilter_BeginInvoke_m2395188690
XRh:__ZL66RuntimeArray_CustomAttributesCacheGenerator_Array_Sort_m1999601238P21CustomAttributesCache
PBf:_Enumerator__ctor_m1424070651_AdjustorThunk
cGc:_cff_get_advances
G8a:__ZN13MonoBehaviour9SetScriptERK4PPtrI10MonoScriptE18ScriptingObjectPtr
yEe:_Array_InternalArray__ICollection_Contains_TisPlayableBinding_t2498078091_m4267109606_gshared
CBc:_UNITY_FT_Create_Class_sfnt_module_class
_Fi:_Text_CalculateLayoutInputHorizontal_m1578553982
Zdi:__ZL87Object_t1021602117_CustomAttributesCacheGenerator_Object_DestroyObject_m282495858____t1P21CustomAttributesCache
dnd:__ZNSt3__218uninitialized_copyIPNS_4pairIK10KeyWrapperIP14Il2CppIUnknownEjEES8_EET0_T_SA_S9_
wxe:_Decimal_IsZero_m3557909184_AdjustorThunk
The:_Char_ToString_m1401375624
FHd:_MD5CryptoServiceProvider__cctor_m3309191799
kfa:__ZNK10FileSystem16LastErrorMessageEv
gyd:__ZNK6il2cpp8metadata14Il2CppTypeLessclEPK10Il2CppTypeS4_
o_c:__ZN15dense_hashtableINSt3__24pairIK10KeyWrapperIPK11Il2CppClassEPKcEES6_N6il2cpp5utils11PointerHashIS3_EEN14dense_hash_mapIS6_S9_SE_NS6_14EqualsComparerINS0_8equal_toIS5_EEEENS0_9allocatorISA_EEE9SelectKeyESJ_SL_E14squash_deletedEv
rYg:__Z74RuntimeInvoker_Vector2_t2243707579_Vector2_t2243707579_Vector2_t2243707579PFvvEPK10MethodInfoPvPS4_
Pbi:__ZL87Input_t1785128008_CustomAttributesCacheGenerator_Input_get_compositionString_m636835668P21CustomAttributesCache
Dof:_Enumerator_System_Collections_IEnumerator_Reset_m3052395060_gshared
RFf:_Collection_1_System_Collections_ICollection_get_SyncRoot_m1997144145_gshared
aVf:_Kernel_DwordDivMod_m3728402123
KBb:__ZN13MonoBehaviour13AwakeFromLoadE17AwakeFromLoadMode
zIb:__ZL26Transfer_SimpleNativeClassI17RemapPPtrTransfer8GradientLb1EEvRK29SerializationCommandArgumentsR31RuntimeSerializationCommandInfo
Q5b:__ZN12CachedWriter9InitWriteER15CacheWriterBase
o4b:__Z21UnsignedInt64ToStringy
tug:_UTF7Decoder__ctor_m549434986
scj:_InternalEnumerator_1_get_Current_m1025321669_AdjustorThunk
quh:_Object_t1021602117_marshal_pinvoke
Rfc:__Z36MonoBehaviour_CUSTOM_InvokeRepeatingP12Il2CppObjectP12Il2CppStringff
ijc:__Z66Register_UnityEngine_Transform_INTERNAL_CALL_InverseTransformPointv
W7i:_InternalEnumerator_1_get_Current_m1089848479_AdjustorThunk
Aaa:__ZZN15DirectorManager15InitializeClassEvEN41FixedUpdateDirectorFixedUpdateRegistrator7ForwardEv
A7i:_InternalEnumerator_1_MoveNext_m2720582493_gshared
EG:__Z82AnimatorControllerPlayable_CUSTOM_INTERNAL_CALL_GetCurrentAnimatorClipInfoInternalR9HPlayablei
Leg:_Group__ctor_m4103922028
ZUa:__ZN6Camera26ClearIntermediateRenderersEj
I_j:_glLinkProgram__wrapper
Opa:__ZN6prcoreL12RemapGenericI17TexFormatARGB888815TexFormatBGR888EEvPKNS_9InnerInfoE
LHd:_MD5CryptoServiceProvider_ProcessFinalBlock_m1052610785
HG:__Z79AnimatorControllerPlayable_CUSTOM_INTERNAL_CALL_GetNextAnimatorClipInfoInternalR9HPlayablei
Cke:_BitArray_Set_m2878881714
OJf:_Collection_1_get_Item_m4215988522_gshared
qDi:_Selectable_get_colors_m3501193396
Mnd:__ZN6il2cpp6icalls8mscorlib6System13Globalization11CultureInfo35construct_internal_locale_from_nameEP17Il2CppCultureInfoP12Il2CppString
zKb:__ZL22Transfer_ManagedObjectI24GenerateTypeTreeTransferLb1EEvRK29SerializationCommandArgumentsR31RuntimeSerializationCommandInfo
Fei:__ZL72SceneManager_t90660965_CustomAttributesCacheGenerator_activeSceneChangedP21CustomAttributesCache
SXh:__ZL55COMException_t1790481504_CustomAttributesCacheGeneratorP21CustomAttributesCache
Pef:_ASN1_get_Count_m404940548
L0i:_ContextAttribute_Equals_m53324298
JSi:_Canvas_ForceUpdateCanvases_m2446828475
_j:_emscripten_set_main_loop_timing
Ycc:__Z34Display_CUSTOM_GetRenderingExtImpl13Il2Cpp_IntPtrPiS0_
jEg:_WeakReference_AllocateHandle_m1783929473
VFa:__ZN14DataBufferGLES12RecordRenderEv
HPe:_Array_Sort_TisRuntimeObject_m3674422195_gshared
gab:__ZN14ImageReference10FlipImageYEv
Sjb:__Z32TransferEnumWithNameForceIntSizeI14SafeBinaryRead13TargetEyeMaskEvRT_RT0_PKc17TransferMetaFlags
Jlc:__Z14GetDefaultSkini
WCe:_CultureInfo_get_Name_m3316229893
Uue:_DateTime_get_Ticks_m310281298_AdjustorThunk
YH:__ZN4FMOD3DSP9setBypassEb
VKf:_Collection_1_System_Collections_IList_get_Item_m287847793_gshared
Zeb:__Z19NormalizeWheelInputf
xeg:_CaptureCollection_CopyTo_m1982767892
Tcb:__Z29StdTemplateConversionFunctionIsaEbPvR14SafeBinaryRead
QEe:_Array_InternalArray__ICollection_Remove_TisLink_t865133271_m1984184141_gshared
svc:__Z29Transfer_Blittable_ArrayFieldI8JSONReadhEvRT_R9ArrayInfoRK23StaticTransferFieldInfo
Zae:_LayoutRebuilder_IsDestroyed_m3442208294
a8b:__ZN11MonoManager25GetImageFromAssemblyIndexEi
_Ah:_Enumerator_VerifyState_m1547102902_AdjustorThunk
dFd:__ZN6il2cpp2os20ThreadLocalValueImpl8SetValueEPv
oxd:__ZN6il2cpp2os11Environment17GetProcessorCountEv
$Mg:__Z165RuntimeInvoker_Void_t1841601450_UInt32U26_t2197289955_Int32_t2071877448_UInt32U26_t2197289955_Int32_t2071877448_Int32_t2071877448_Int32_t2071877448_Int32_t2071877448PFvvEPK10MethodInfoPvPS4_
w3g:__Z99RuntimeInvoker_Void_t1841601450_CustomAttributeTypedArgumentU5BU5DU26_t4216645529_Int32_t2071877448PFvvEPK10MethodInfoPvPS4_
Iqc:__Z18Transfer_BlittableI9JSONWriteLb1EtEvRK29SerializationCommandArgumentsR31RuntimeSerializationCommandInfo
f2e:_FileLoadException__ctor_m918124939
rk:___syscall85
JIj:__ZL25UnresolvedVirtualCall_198P12Il2CppObjectfPK10MethodInfo
Cwh:_PlayableHandle_GetHashCode_m1983839661_AdjustorThunk
_Xa:__ZNSt3__26__sortIRPFbP10GUIElementS2_EPS2_EEvT0_S7_T_
JVf:_SequentialSearchPrimeGeneratorBase_GenerateSearchBase_m2930465198
_2b:__ZN16GraphicsSettings12CleanupClassEv
yFj:__ZL24UnresolvedVirtualCall_25P12Il2CppObjectS0_aPK10MethodInfo
Zsd:__ZN6il2cpp2os6Thread19DetachCurrentThreadEv
JYc:__ZN6il2cpp2vmL21SetupInterfacesLockedEP11Il2CppClassRKNS_2os12FastAutoLockE
cEb:__ZN11MonoManager23VirtualRedirectTransferER24GenerateTypeTreeTransfer
AKg:__Z102RuntimeInvoker_Int32_t2071877448_RuntimeObject_Int32_t2071877448_Int32_t2071877448_Int32U26_t455636984PFvvEPK10MethodInfoPvPS4_
Jy:__ZN23AnimationPlayableOutput17SetSourcePlayableEP8Playable
zud:__ZN6il2cpp2gc16GarbageCollector22MakeDescriptorForArrayEv
Uoh:_GUIStyle_set_clipOffset_m3871613343
Q6d:_SubmitEvent__ctor_m222860306
WV:__ZN11UnityEngine15CloudWebService14DataDispatcher15SetupWebRequestEv
q6e:_TextWriter__cctor_m4047845042
V2f:_ReceiveRecordAsyncResult_get_Record_m1336421357
oSc:__ZN11UnityEngine15PlatformWrapper13GetShaderCapsEv
h4a:__ZNSt3__211__sift_downIR26RenderDeferredObjectSorterP16RenderObjectDataEEvT0_S5_T_NS_15iterator_traitsIS5_E15difference_typeES5_
dIi:_AnimationClipPlayable_SetApplyFootIK_m4007156901_AdjustorThunk
O2h:__ZL76Convert_t2607082565_CustomAttributesCacheGenerator_Convert_ToByte_m509311047P21CustomAttributesCache
IHh:_Dictionary_2_System_Collections_Generic_IEnumerableU3CSystem_Collections_Generic_KeyValuePairU3CTKeyU2CTValueU3EU3E_GetEnumerator_m1742521661_gshared
pYg:__Z87RuntimeInvoker_Void_t1841601450_RuntimeObject_StringU26_t638738783_StringU26_t638738783PFvvEPK10MethodInfoPvPS4_
i7d:_InputField_CaretBlink_m3960486606
Sgf:_SmallXmlParser_ReadCharacters_m1966365555
wtd:__ZN6il2cpp2os10ThreadImpl22SetNativeThreadCleanupEPFvPvE
J3b:__ZN21FixedBehaviourManager6UpdateEv
Cac:__ZN9Transform9SetParentEPS_NS_15SetParentOptionE
W4d:_GridLayoutGroup_set_startCorner_m1660251450
i0:__ZN19ShaderPropertySheet8SetFloatEN9ShaderLab16FastPropertyNameEfNS_8SetFlagsE
rti:__ZL68InputField_t1631627530_CustomAttributesCacheGenerator_m_AsteriskCharP21CustomAttributesCache
nta:__ZN19RuntimeSceneManager24BeginIntegrateMainThreadEP10UnityScene
Otj:_Transform_TransformPoint_m3272254198
Std:__ZNSt3__2plIcNS_11char_traitsIcEENS_9allocatorIcEEEENS_12basic_stringIT_T0_T1_EERKS9_S6_
h7e:_LocalDataStoreSlot__cctor_m1192669356
bhd:__GLOBAL__sub_I_ArrayMetadata_cpp
bRj:_roundf
gSd:_String_CreateString_m2556700934
Zib:__ZN18StreamedBinaryReadILb0EE21TransferSTLStyleArrayINSt3__26vectorI17SortingLayerEntryNS2_9allocatorIS4_EEEEEEvRT_17TransferMetaFlags
wDi:_Selectable_get_targetGraphic_m137842753
Bs:__ZN8Animator15SetPrepareStageEv
LEi:_Slider_get_axis_m162140813
ehh:_MonoEventInfo_t2190036573_marshal_pinvoke
KYc:__ZN6il2cpp2vmL24SetupTypeHierarchyLockedEP11Il2CppClassRKNS_2os12FastAutoLockE
efb:__ZL11TextHandleriPK23EmscriptenKeyboardEventPv
q1a:__Z20CalculateLightMatrixRK15SharedLightDataP10Matrix4x4f
hDi:_ScrollRect_SetLayoutHorizontal_m3486408020
szc:_destroy_face
lEj:_GenericEqualityComparer_1_GetHashCode_m116190842_gshared
HAh:_Enumerator_VerifyState_m1547102902_gshared
DVh:__ZL55StreamWriter_t3858580635_CustomAttributesCacheGeneratorP21CustomAttributesCache
iwc:__ZN5physx19PxAllocatorCallbackD2Ev
gfh:_TypeBuilder_IsAssignableTo_m3210661829
tTa:__ZN24dense_hashtable_iteratorINSt3__24pairIKN4core12basic_stringIcNS2_20StringStorageDefaultIcEEEEP20ArchiveStorageReaderEES6_20StringHash32FunctionIS6_EN14dense_hash_mapIS6_S9_SC_NS0_8equal_toIS6_EE13stl_allocatorISA_L18MemLabelIdentifier54ELi16EEE9SelectKeyESF_SI_EC2EPK15dense_hashtableISA_S6_SC_SK_SF_SI_EPSA_SQ_b
gCd:__ZN6il2cpp6icalls8mscorlib6System8Security12Cryptography24RNGCryptoServiceProvider13RngInitializeEP11Il2CppArray
_yf:_List_1_System_Collections_ICollection_get_IsSynchronized_m227393674_gshared
n8f:_IPAddress__cctor_m3624830012
sO:__ZN20SoundChannelInstance7setMuteEb
Kmb:__ZN4PPtrI5LightE8TransferI19StreamedBinaryWriteILb0EEEEvRT_
tii:__ZL115AnimatorStateInfo_t2577870592_CustomAttributesCacheGenerator_AnimatorStateInfo_t2577870592____nameHash_PropertyInfoP21CustomAttributesCache
fag:_AsnEncodedData_EnhancedKeyUsageExtension_m1452131166
LOb:__Z19TransferField_ArrayI18StreamedBinaryReadILb1EE27Converter_SimpleNativeClassI17AnimationCurveTplIfEEEvRK23StaticTransferFieldInfoR31RuntimeSerializationCommandInfoRT0_
Seg:_GroupCollection_get_IsSynchronized_m1100663675
zGa:__ZN18GfxFramebufferGLES22MakeCurrentFramebufferENS_7BuiltinE
UBd:__ZN6il2cpp2vm12MarshalAlloc4FreeEPv
rfg:_Interpreter_Close_m1500459069
vk:_JS_SystemInfo_GetWidth
Xva:__ZN12CachedReader4ReadEPvj
yGc:_cf2_blues_init
g6i:_InternalEnumerator_1_System_Collections_IEnumerator_get_Current_m3600601141_gshared
jKd:_SHA1Internal_HashFinal_m3188468925
Jvj:_Vector3_op_Inequality_m799191452
I0a:__Z24CalculateLightShadowFadeRK6CamerafffR8Vector4f
s2:__ZN19RuntimeSceneManagerD2Ev
R5h:__ZL55HeaderHandler_t324204131_CustomAttributesCacheGeneratorP21CustomAttributesCache
w_i:_ChannelData_get_CustomProperties_m1470957369
YQe:_Dictionary_2_Do_ICollectionCopyTo_TisRuntimeObject_m545661084_gshared
kX:__ZN11UnityEngine15CloudWebService25WebRequestDownloadHandler17OnCompleteContentEv
dpa:__ZN6prcore17GetIntegerBlitterE13TextureFormatS0_N14ImageReference8BlitModeE
ZRi:_Camera_INTERNAL_CALL_ScreenPointToRay_m2752248646
Icd:__ZN6il2cpp2gc19AppendOnlyGCHashMapINSt3__24pairIPK11Il2CppImageP11Il2CppClassEEP22Il2CppReflectionModule17ReflectionMapHashIS9_ENS2_8equal_toIS9_EEE11TryGetValueERKS9_PSB_
WBh:_Enumerator_VerifyState_m3173176371_AdjustorThunk
Gqi:__ZL109PointerEventData_t1599784723_CustomAttributesCacheGenerator_PointerEventData_get_eligibleForClick_m2497780621P21CustomAttributesCache
r7f:_TypeConverterAttribute__cctor_m506796812
Brg:_Encoding_get_IsReadOnly_m3729101432
mac:__ZN9BlobWrite14ReduceCopyImplERK14ReduceCopyDataj
FDg:_ValueType_t3507792607_marshal_pinvoke_back
Tej:_Comparer_1_System_Collections_IComparer_Compare_m1790257529_gshared
L1g:__Z55RuntimeInvoker_Int32_t2071877448_ILTokenInfo_t149559338PFvvEPK10MethodInfoPvPS4_
igh:_MethodInfo_get_ContainsGenericParameters_m572340060
LVj:_glShaderSource__wrapper
TQa:__ZN25MultiBlocksMemoryFileData17AdjustBlocksCountEj
skd:__ZNSt3__214__split_bufferIN6il2cpp2vm22EmbeddedResourceRecordERNS_9allocatorIS3_EEED2Ev
E_f:_TlsClientHello__ctor_m1699671541
q2b:__ZZN12MeshRenderer15InitializeClassEvEN29FunctorImpl_134kDidModifyMesh4CallEPviR11MessageData
Axc:__ZN13TextRendering4Font8TransferI24GenerateTypeTreeTransferEEvRT_
pJi:_AnimationOffsetPlayable_GetRotation_m3608800497_AdjustorThunk
BTa:__ZN23ManagedAttributeManager15InitializeClassEv
Ncc:__Z27CullingGroup_CUSTOM_DisposeP12Il2CppObject
$Xg:__Z69RuntimeInvoker_Color_t2020392075_Color_t2020392075_Single_t2076509932PFvvEPK10MethodInfoPvPS4_
CWa:__ZN13ComputeShader15SetTextureParamEjRKN9ShaderLab16FastPropertyNameE9TextureID16TextureDimension
aEi:_Shadow_set_effectDistance_m1951993364
Rlh:_GUILayoutEntry_ApplyStyleSettings_m371609721
DJh:_Dictionary_2_ContainsKey_m416495915_gshared
nIf:_Collection_1_Remove_m1798559666_gshared
Bm:_glStencilMask
nNg:__Z70RuntimeInvoker_Boolean_t3825574718_Int16_t4041245914_Int32_t2071877448PFvvEPK10MethodInfoPvPS4_
utd:__ZN6il2cpp2os10ThreadImpl16GetCurrentThreadEv
q$f:_TlsServerHelloDone__ctor_m2125611008
gme:_Hashtable__ctor_m2337481811
BBh:_Enumerator_System_Collections_IEnumerator_get_Current_m2010873149_gshared
E1d:_Resources_t2975512894_marshal_pinvoke_cleanup
CHi:_AnimationEvent_get_messageOptions_m3547411650
BSh:__ZL88Type_t_CustomAttributesCacheGenerator_Type_MakeGenericType_m2765875033____typeArguments0P21CustomAttributesCache
rvi:__ZL74SpriteState_t1353336012_CustomAttributesCacheGenerator_m_HighlightedSpriteP21CustomAttributesCache
Zjg:_RealProxy__ctor_m2505535530
Jzd:_GC_push_conditional_with_exclusions
CBg:_UInt32_System_IConvertible_ToUInt16_m2798641702_AdjustorThunk
Vlg:_BinaryFormatter_get_DefaultSurrogateSelector_m219714691
Wu:__ZN21AnimationPosePlayableD0Ev
yB:__ZN12_GLOBAL__N_121ProcessAnimationBeginER35AnimationPlayableEvaluationConstantR32AnimationPlayableEvaluationInputR33AnimationPlayableEvaluationOutput
OMi:_AnimatorControllerPlayable_CrossFadeInFixedTime_m3016214003
uJg:__Z136RuntimeInvoker_Void_t1841601450_Int32_t2071877448_RuntimeObject_RuntimeObject_RuntimeObject_RuntimeObject_RuntimeObject_SByte_t454417549PFvvEPK10MethodInfoPvPS4_
P8:__ZN15dense_hashtableINSt3__24pairIKiiEEi21InstanceIDHashFunctorN14dense_hash_mapIiiS4_NS0_8equal_toIiEE13stl_allocatorIS3_L18MemLabelIdentifier65ELi16EEE9SelectKeyES7_SA_E9copy_fromERKSD_j
TKf:_Collection_1_System_Collections_IList_get_IsFixedSize_m3252091801_gshared
L0d:_FloatTween_get_ignoreTimeScale_m4161298485_AdjustorThunk
Kih:_MonoProperty_GetOptionalCustomModifiers_m3827844355
gOj:_strrchr
v$i:__ZN21InterfaceFuncInvoker1IP8String_tS1_E6InvokeEjP11Il2CppClassP12Il2CppObjectS1_
pLi:_AnimatorControllerPlayable_IsParameterControlledByCurve_m3990583163_AdjustorThunk
$bf:_SimpleCollator_GetSortKey_m2188419329
jwi:__ZL56LayoutElement_t2808691390_CustomAttributesCacheGeneratorP21CustomAttributesCache
AAi:_Scrollbar_Set_m244028386
Bjc:__Z27Object_CUSTOM_DestroyObjectP12Il2CppObjectf
Pmb:__ZN14RenderSettings27UpdateIndirectSpecularColorEv
y6g:__Z102RuntimeInvoker_RuntimeObject_UILineInfo_t3621277874_UILineInfo_t3621277874_RuntimeObject_RuntimeObjectPFvvEPK10MethodInfoPvPS4_
Gzb:__ZN14PlayerSettings8TransferI18StreamedBinaryReadILb0EEEEvRT_
IYi:_FixedBufferAttribute__ctor_m2048050068
t5c:__ZN6il2cpp6icalls8mscorlib6System8MonoType16GetMethodsByNameEP20Il2CppReflectionTypeP12Il2CppStringibS5_
Sse:_Convert_ToSingle_m3186653037
gZi:_GCHandle__ctor_m2952050298
$Re:_LayoutGroup_SetProperty_TisAxis_t1431825778_m2174054513_gshared
zrb:__ZN4PPtrI10GameObjectE8TransferI14SafeBinaryReadEEvRT_
iyi:_Mask_IsRaycastLocationValid_m62488857
fza:__ZNSt3__27__sort3IRNS_4lessIN22BuiltinResourceManager8ResourceEEEPS3_EEjT0_S7_S7_T_
fej:_DefaultComparer_Compare_m3472472212_gshared
G4g:__Z31RuntimeInvoker_Slot_t2022531261PFvvEPK10MethodInfoPvPS4_
F2e:_MonoIO_GetLength_m2812344043
gFc:_ps_hints_t2mask
dpi:__ZL68UsedByNativeCodeAttribute_t3212052468_CustomAttributesCacheGeneratorP21CustomAttributesCache
auj:_RequestAtlasCallback_Invoke_m2414509569
pwb:__ZN10BlendShape8TransferI19StreamedBinaryWriteILb0EEEEvRT_
Utj:_Transform_IsChildOf_m10844547
CI:__Z32TransferEnumWithNameForceIntSizeI14SafeBinaryReadN10SampleClip8LoadTypeEEvRT_RT0_PKc17TransferMetaFlags
Y$e:__Z21il2cpp_codegen_sizeofP11Il2CppClass
Pga:__Z19GetTimeSinceStartupv
POd:_SecurityFrame_get_Assembly_m2816566490
OAd:_GC_notify_or_invoke_finalizers
xKc:_TT_Load_Composite_Glyph
uwj:_NetFxCoreExtensions_CreateDelegate_m2492743074
URh:__ZL66RuntimeArray_CustomAttributesCacheGenerator_Array_Sort_m2323017822P21CustomAttributesCache
Tce:_Array_Sort_m2994254654
JAf:_List_1__ctor_m593058937_gshared
yHe:_Array_InternalArray__IEnumerable_GetEnumerator_TisColor32_t874517518_m2198639025_gshared
a$a:__ZN29RenderNodeQueuePrepareContextC2Ev
Tsh:_Mesh_Clear_m231813403
FR:__ZN10SampleClipC2E18MemLabelIdentifier18ObjectCreationMode
$Ub:__ZN9ShaderLab20SerializedSubProgram16TextureParameter8TransferI24GenerateTypeTreeTransferEEvRT_
qwg:_Thread_set_Name_m1343706609
IDd:__ZN6il2cpp2os11MutexHandle4WaitEj
n9b:__ZL34GetComponentsImplementationRecurseILb1ELi1ELi1EEbR10GameObjectbRK17CompareParametersRK39GetComponentsImplementation_ReturnValue
oVg:__Z75RuntimeInvoker_Playable_t1896841784_AnimationLayerMixerPlayable_t3057952312PFvvEPK10MethodInfoPvPS4_
HDd:__ZN6il2cpp2os11MutexHandle4WaitEv
mie:_ArrayList_set_Capacity_m592558035
Yqa:__ZN6prcoreL17RemapGenericFloatI15TexFormatRGHalf18TexFormatARGBFloatEEvPKNS_9InnerInfoE
q8e:_MonoEnumInfo_t2335995564_marshal_pinvoke_cleanup
Nia:__ZNK13RenderTexture13GetDataHeightEv
Hga:__Z18SimulateMouseInputi
zVa:__ZN13RenderManager23AddRemoveCamerasDelayedEv
Mrc:__ZN9JSONWrite8TransferI13dynamic_arrayIdLj8EEEEvRT_PKc17TransferMetaFlags
bsa:__ZN23PreloadManagerOperation11GetPriorityEv
tBe:_Exception_get_InnerException_m3722561235
jFe:_Array_InternalArray__ICollection_Remove_TisILTokenInfo_t149559338_m1523907845_gshared
$4i:_InternalEnumerator_1_System_Collections_IEnumerator_Reset_m138745466_AdjustorThunk
RWg:__Z105RuntimeInvoker_Void_t1841601450_Vector2U26_t3911752445_RuntimeObject_RuntimeObject_Vector2U26_t3911752445PFvvEPK10MethodInfoPvPS4_
yxf:_List_1_GetEnumerator_m4053501645_gshared
$3c:__ZN6il2cpp2gc9AllocatorIP17Il2CppAsyncResultE10deallocateEPvj
zme:_Hashtable_Rehash_m2877670513
F7a:__ZN13RenderTexture8SetWidthEi
g9d:_InputField_Insert_m1593238693
u$b:__ZNK28RectTransformPropertyBinding12SetPPtrValueERKN11UnityEngine9Animation10BoundCurveEi
EPb:__Z18Transfer_BlittableI18StreamedBinaryReadILb0EELb0EfEvRK29SerializationCommandArgumentsR31RuntimeSerializationCommandInfo
Dwb:__ZN10MeshFilterD0Ev
zKc:_UNITY_FT_GlyphLoader_CheckSubGlyphs
oQe:_Array_Sort_TisVector3_t2243707580_m3220373153_gshared
LKe:_Array_InternalArray__ICollection_Add_TisCustomAttributeTypedArgument_t1498197914_m3260005285_gshared
k1a:__Z25SetupObjectBakedOcclusionbRK15SharedLightDataRK26SharedLightmapSettingsDataRK15LightmapIndicesR17ShaderPassContext
one:_SyncHashtable_GetObjectData_m3774367030
qgj:__ZN21InterfaceFuncInvoker4IP17Match_t3164245899P17Regex_t1803876613P8String_tiiE6InvokeEjP11Il2CppClassP12Il2CppObjectS3_S5_ii
mYe:_Guid_GetHashCode_m1401300871
ZAj:_ListPool_1_U3Cs_ListPoolU3Em__0_m1243609651_gshared
toc:__Z42Register_UnityEngine_GUIStyle_set_fontSizev
NH:__Z82Register_UnityEngine_Animations_AnimatorControllerPlayable_INTERNAL_CALL_GetBoolIDv
eFj:__ZL23UnresolvedVirtualCall_5P12Il2CppObjectsPK10MethodInfo
cD:__ZN4PPtrI6AvatarE8TransferI19StreamedBinaryWriteILb0EEEEvRT_
Qz:__ZN8Animator9BuildJobsERK13dynamic_arrayIP14PlayableOutputLj4EERS0_INS_11AnimatorJobELj4EEPS7_bb
y$:__ZN9ShaderLab16FastPropertyName4InitEPKc
y_b:__Z13RegisterClassIN2UI13RectTransformEEvv
xbf:_MSCompatUnicodeTable_ToWidthCompat_m2299599532
BUi:_Component_BroadcastMessage_m444672650
iaf:_NumberFormatter_get_IsFloatingSource_m2830957202
vtb:__ZN10VertexData8TransferI17RemapPPtrTransferEEvRT_
qia:__ZN13RenderTexture9SetMipMapEb
F_c:__ZN15dense_hashtableINSt3__24pairIK10KeyWrapperIPK11Il2CppClassEPKcEES6_N6il2cpp5utils11PointerHashIS3_EEN14dense_hash_mapIS6_S9_SE_NS6_14EqualsComparerINS0_8equal_toIS5_EEEENS0_9allocatorISA_EEE9SelectKeyESJ_SL_E13set_empty_keyERKSA_
hCi:_ScrollRect_set_verticalScrollbarSpacing_m2356851539
wga:__Z18GetDirectorManagerv
swh:_PlayableHandle_INTERNAL_CALL_SetTimeInternal_m3873000891
Raf:_OperatingSystem_GetObjectData_m2276196875
Npj:_ResourceRequest_t2560315377_marshal_pinvoke_back
j_c:__ZN14dense_hash_mapI10KeyWrapperIPK11Il2CppClassEPKcN6il2cpp5utils11PointerHashIS1_EENS4_14EqualsComparerINSt3__28equal_toIS3_EEEENSC_9allocatorINSC_4pairIKS4_S6_EEEEEC2EjRKSA_RKSF_
Iic:__Z38Transform_CUSTOM_INTERNAL_get_rotationP12Il2CppObjectP11Quaternionf
tMh:_DefaultComparer_GetHashCode_m2596628120_gshared
NXh:__ZL66CriticalFinalizerObject_t1920899984_CustomAttributesCacheGeneratorP21CustomAttributesCache
BIj:__ZL25UnresolvedVirtualCall_190P12Il2CppObject20TimeSpan_t3430258949S1_PK10MethodInfo
xcd:__ZNK15dense_hashtableINSt3__24pairIK10KeyWrapperINS1_IPK10MethodInfoP11Il2CppClassEEEjEES9_17ReflectionMapHashIS8_EN14dense_hash_mapIS9_jSD_NS9_14EqualsComparerINS0_8equal_toIS8_EEEENS0_9allocatorISB_EEE9SelectKeyESI_SK_E5beginEv
MIa:__ZN7ApiGLES19UploadBufferSubDataEjN2gl12BufferTargetEllPKv
Lca:__ZNSt3__216__rotate_forwardINS_11__wrap_iterIPN4core12basic_stringIcNS2_20StringStorageDefaultIcEEEEEEEET_S9_S9_S9_
mQd:_String_System_IConvertible_ToInt32_m1927223638
FFe:_Array_InternalArray__ICollection_Remove_TisContentType_t1028629049_m3085152315_gshared
sDh:_Transform_1_EndInvoke_m4121732147_gshared
ySi:_Canvas_set_sortingOrder_m2922819993
DXi:_FailedToLoadScriptObject_t3605283378_marshal_pinvoke_back
QTi:_Color_get_red_m2410286591
kQi:_AudioMixerPlayable_Create_m3525453973
vSd:_ASCIIEncoding__ctor_m4127831672
ZFb:__Z19TransferField_ArrayI14SafeBinaryRead27Converter_SimpleNativeClassI8GUIStyleEEvRK23StaticTransferFieldInfoR31RuntimeSerializationCommandInfoRT0_
QMg:__Z63RuntimeInvoker_Void_t1841601450_RuntimeObject_Int16_t4041245914PFvvEPK10MethodInfoPvPS4_
ssg:_UTF8Encoding__ctor_m3336862259
Kmd:__ZN15dense_hashtableINSt3__24pairIK10KeyWrapperIP14Il2CppIUnknownEjEES5_N6il2cpp5utils11PointerHashIS3_EEN14dense_hash_mapIS5_jSB_NS5_14EqualsComparerINS0_8equal_toIS4_EEEENS0_9allocatorIS7_EEE9SelectKeyESG_SI_ED2Ev
nCd:__ZN6il2cpp5utils10MemoryPoolC2Ej
Acg:_X509Chain_GetAuthorityKeyIdentifier_m2607407678
jCd:__ZN6il2cpp5utils10MemoryPoolC2Ev
smb:__ZN14RenderSettings5ResetEv
oZb:__ZN6Sprite9BindAtlasERK4PPtrI11SpriteAtlasE
Okd:__ZNSt3__212basic_stringIDsNS_11char_traitsIDsEENS_9allocatorIDsEEE6appendEPKDsj
UD:__ZZN8Animator15InitializeClassEvEN37FunctorImpl_421kDidModifyOverrideClip4CallEPviR11MessageData
cYd:_RaycastResult_set_gameObject_m1138581891_AdjustorThunk
yRi:_Bounds_get_extents_m4077324178_AdjustorThunk
mbj:_InternalEnumerator_1_get_Current_m3724267862_AdjustorThunk
pRe:_Dictionary_2_Do_ICollectionCopyTo_TisKeyValuePair_2_t3716250094_m1740410536_gshared
WKh:_DefaultComparer__ctor_m580747638_gshared
Mkh:_GUI_CallWindowDelegate_m2039577415
etd:__ZN6il2cpp2os10ThreadImplD2Ev
Yhf:_RSAManaged_Dispose_m3018788098
tpc:__ZN8Gradient8TransferI9JSONWriteEEvRT_
Evg:_Monitor_Monitor_pulse_m2135582245
_$f:_Context_get_ReceivedConnectionEnd_m3369356276
qnj:_X509CertificateEnumerator_MoveNext_m1422952050
P6f:_NameObjectCollectionBase_get_Count_m2353593692
Efb:__ZNK12TLSAllocatorI14StackAllocatorE22GetAllocatedMemorySizeEv
EWh:__ZL54AssemblyName_t894705941_CustomAttributesCacheGeneratorP21CustomAttributesCache
ote:_Convert_ToUInt32_m3394039268
I9a:__ZN17RemapPPtrTransfer12PushMetaFlagE17TransferMetaFlags
qP:__ZNK7WeakPtrI20SoundChannelInstanceE10SharedData9GetRawPtrEv
IRa:__ZN12HandlerChain4NameEv
gyb:__ZNSt3__26vectorI9InputAxisNS_9allocatorIS1_EEE10deallocateEv
kZe:_Int16_Equals_m3925135434_AdjustorThunk
lQc:__Z44Register_UnityEngine_CanvasRenderer_get_cullv
LXc:__ZN15dense_hashtableINSt3__24pairIK10KeyWrapperIPK22Il2CppGenericParameterEP11Il2CppClassEES6_N6il2cpp5utils11PointerHashIS4_EEN14dense_hash_mapIS6_S9_SE_NS6_14EqualsComparerINS0_8equal_toIS5_EEEENS0_9allocatorISA_EEE9SelectKeyESJ_SL_ED2Ev
nUh:__ZL60IHashCodeProvider_t1980576455_CustomAttributesCacheGeneratorP21CustomAttributesCache
V_b:__ZN13ProduceHelperI13MonoBehaviourLb0EE7ProduceE18MemLabelIdentifier18ObjectCreationMode
Tnf:_Enumerator_VerifyState_m1677639504_AdjustorThunk
tdb:__Z29StdTemplateConversionFunctionIbbEbPvR14SafeBinaryRead
Jvd:__ZNK15dense_hashtableINSt3__24pairIK10KeyWrapperIPK19Il2CppGenericMethodEP10MethodInfoEES6_N6il2cpp8metadata23Il2CppGenericMethodHashEN14dense_hash_mapIS6_S9_SD_NS6_14EqualsComparerINSC_26Il2CppGenericMethodCompareEEENS0_9allocatorISA_EEE9SelectKeyESH_SJ_E12test_deletedEj
OZf:_CipherSuiteCollection_get_Item_m280627160
vEb:__Z44InitializeTransferFunctionScriptingTraitsForI17RemapPPtrTransferEvR31TransferFunctionScriptingTraits
Qgg:_SerializationInfoEnumerator_MoveNext_m1876990879
Xxg:_TimeSpan_Duration_m4205681645
abb:__ZN14UnityWebStream24UpdateAllUnityWebStreamsEv
gFf:_Collection_1_System_Collections_IList_get_IsReadOnly_m2329986891_gshared
PSh:__ZL60ObsoleteAttribute_t3878847927_CustomAttributesCacheGeneratorP21CustomAttributesCache
lUg:__Z79RuntimeInvoker_Playable_t1896841784_PlayableGraph_t1041204988_Int32_t2071877448PFvvEPK10MethodInfoPvPS4_
l$f:_Context_get_HandshakeState_m3443153737
jMe:_Array_InternalArray__ICollection_CopyTo_TisRaycastHit2D_t4063908774_m3837098618_gshared
lta:__ZN18LoadSceneOperation21MustCompleteNextFrameEv
tO:__ZNK12AudioManager16GetAudioListenerEv
lhh:_MonoField_get_FieldType_m598011426
fFf:_Collection_1_System_Collections_IList_get_IsFixedSize_m1624702704_gshared
c9h:__ZL48Camera_t189460977_CustomAttributesCacheGeneratorP21CustomAttributesCache
d7a:__ZNSt3__26vectorI11CameraStackNS_9allocatorIS1_EEE8__appendEj
mkd:__ZNSt3__212basic_stringIcNS_11char_traitsIcEENS_9allocatorIcEEE6__initINS_11__wrap_iterIPcEEEENS_9enable_ifIXsr21__is_forward_iteratorIT_EE5valueEvE4typeESB_SB_
p8d:_InputField_OnDisable_m1865339380
zBg:_UInt32_System_IConvertible_ToType_m747769316
St:__ZN7mecanim9animation12GetHumanPoseERKNS0_18ClipMuscleConstantEPKNS0_10ValueDeltaERNS_5human9HumanPoseE
xv:__ZN22AnimationMixerPlayable17ProcessRootMotionEP35AnimationPlayableEvaluationConstantP32AnimationPlayableEvaluationInputP33AnimationPlayableEvaluationOutput
GMb:__Z29Transfer_Blittable_ArrayFieldI19StreamedBinaryWriteILb0EEjEvRT_R9ArrayInfoRK23StaticTransferFieldInfo
H5:__Z13GetFileSystemv
Y6:__ZNK5Unity4Type21FindAllDerivedClassesER13dynamic_arrayIPKS0_Lj4EENS0_17TypeFilterOptionsE
f8:__ZN13RuntimeStaticI15GUIEventManagerLb0EE16StaticInitializeEPv
mHh:_Dictionary_2_ToTKey_m2900575080_gshared
GQb:__ZL12InvokeMethodI18StreamedBinaryReadILb0EEEvRK29SerializationCommandArgumentsR31RuntimeSerializationCommandInfo
gWe:_DaylightTime_get_Delta_m2316831491
EEe:_Array_InternalArray__ICollection_Contains_TisUILineInfo_t3621277874_m1175659630_gshared
lxg:_WaitHandle_WaitOne_m370363697
Dqi:__ZL114PointerEventData_t1599784723_CustomAttributesCacheGenerator_PointerEventData_set_pointerCurrentRaycast_m2431897513P21CustomAttributesCache
Geg:_FactoryCache_Lookup_m1681894361
wve:_DateTime_Subtract_m698282245_AdjustorThunk
Bej:_DefaultComparer__ctor_m2470932885_gshared
bVh:__ZL55BinaryReader_t2491843768_CustomAttributesCacheGeneratorP21CustomAttributesCache
YOb:__Z29Transfer_Blittable_ArrayFieldI18StreamedBinaryReadILb1EE5RectTIfEEvRT_R9ArrayInfoRK23StaticTransferFieldInfo
w4h:__ZL79Convert_t2607082565_CustomAttributesCacheGenerator_Convert_ToUInt64_m1896191125P21CustomAttributesCache
QWa:__ZN19ShaderPropertySheet9SetMatrixEN9ShaderLab16FastPropertyNameERK10Matrix4x4fNS_8SetFlagsE
JId:_RIPEMD160Managed_Initialize_m3365407578
q6b:__Z29GetTextureSizeAllowedMultiple13TextureFormat
m8f:_IPAddress_HostToNetworkOrder_m1092199707
HGe:_SetPropertyUtility_SetStruct_TisSpriteState_t1353336012_m2898060836_gshared
iii:__ZL141AnimatorControllerPlayable_t1744083903_CustomAttributesCacheGenerator_AnimatorControllerPlayable_INTERNAL_CALL_ResetTriggerString_m2112584758P21CustomAttributesCache
MTa:__ZZ23InitPlayerLoopCallbacksvEN52InitializationAsyncUploadTimeSlicedUpdateRegistrator7ForwardEv
TMd:_SecurityAttribute__ctor_m3425755778
g4b:__ZN21IntermediateRenderers3AddEP20IntermediateRenderer
V6c:_il2cpp_array_element_size
GWi:_InvokableCall__ctor_m738302370
bg:_glCheckFramebufferStatus
Gii:__ZL55TextGenerator_t647235000_CustomAttributesCacheGeneratorP21CustomAttributesCache
XHe:_Array_compare_TisInt32_t2071877448_m840310202_gshared
Edj:_InternalEnumerator_1_System_Collections_IEnumerator_get_Current_m442726479_AdjustorThunk
uY:__ZN19CloudServiceHandler20StartEventDispatcherERKN11UnityEngine15CloudWebService18CloudServiceConfigERNS1_23WebRequestRestHeaderMapE
Mbj:_InternalEnumerator_1_System_Collections_IEnumerator_get_Current_m790514740_AdjustorThunk
zRh:__ZL74RuntimeArray_CustomAttributesCacheGenerator_Array_BinarySearch_m2287427837P21CustomAttributesCache
d0g:__Z78RuntimeInvoker_Boolean_t3825574718_TransitionU26_t3012618447_Int32_t2071877448PFvvEPK10MethodInfoPvPS4_
lbf:__Z37il2cpp_codegen_get_executing_assemblyPK10MethodInfo
yIh:_Dictionary_2_System_Collections_IEnumerable_GetEnumerator_m1615804423_gshared
xYb:__ZN9Transform23VirtualRedirectTransferER17RemapPPtrTransfer
FTg:__Z72RuntimeInvoker_Boolean_t3825574718_Bounds_t3033363703_Bounds_t3033363703PFvvEPK10MethodInfoPvPS4_
nqh:_GUIStyle_Internal_DrawPrefixLabel_m1693575069
bJe:_Array_InternalArray__IndexOf_TisByte_t3683104436_m3605266236_gshared
kqh:_GUIStyle_set_richText_m1853532836
ALf:_Collection_1_System_Collections_IList_Insert_m435904526_gshared
tgi:__ZL135AnimationMixerPlayable_t1343787797_CustomAttributesCacheGenerator_AnimationMixerPlayable_INTERNAL_CALL_CreateHandleInternal_m4073934737P21CustomAttributesCache
lAi:_RaycastAllCallback_Invoke_m981876639
esg:_UnicodeEncoding__ctor_m72484327
Nmd:__ZN14dense_hash_mapI10KeyWrapperIP14Il2CppIUnknownEjN6il2cpp5utils11PointerHashIS1_EENS3_14EqualsComparerINSt3__28equal_toIS2_EEEENS9_9allocatorINS9_4pairIKS3_jEEEEE15set_deleted_keyERSF_
P7:__ZN22BuiltinResourceManager16StaticInitializeEPv
jVe:_NumberFormatter_ScaleOrder_m1915154678
Vid:__ZN6il2cpp2gc9AllocatorIP12Il2CppThreadE10deallocateEPvj
_ed:__ZN13Il2CppHashMapIPK14Il2CppAssemblyPK22Il2CppMonoAssemblyNameN6il2cpp5utils11PointerHashIS1_EENSt3__28equal_toIS2_EENSA_9allocatorINSA_4pairIK10KeyWrapperIS2_ES5_EEEEEC2EjRKS9_RKSC_
xzj:_UnityEvent_1_GetDelegate_m2720691419_gshared
K9i:_InternalEnumerator_1_System_Collections_IEnumerator_get_Current_m3576641073_AdjustorThunk
J$f:_ClientSessionInfo_SetContext_m2649357891
b_e:_Int32_System_IConvertible_ToInt64_m3790029067_AdjustorThunk
cVd:_RaycasterManager_GetRaycasters_m1154876874
W4f:_SslStreamBase_InternalReadCallback_m2524917586
C6:__ZN8Remapper6RemoveEi
Ssf:_List_1_CheckCollection_m2608305187_gshared
ZQa:__ZN10MemoryFile4ReadEyPvPy
Lzg:_Type_get_ContainsGenericParameters_m505913180
_zc:__ZL36CleanupTextRenderingScriptingClassesv
rHg:__Z52RuntimeInvoker_UInt32_t2149682021_Decimal_t724701077PFvvEPK10MethodInfoPvPS4_
Xci:__ZL82Material_t193706927_CustomAttributesCacheGenerator_Material_SetIntImpl_m4157631275P21CustomAttributesCache
B7a:__ZN15ReflectionProbe17UseRendererResultEP13ProbeRenderer
zce:_Array_BinarySearch_m3270245097
rfc:__Z34Mesh_CUSTOM_SetArrayForChannelImplP12Il2CppObject30InternalScriptingShaderChannel34InternalScriptingVertexChannelTypeiP11Il2CppArrayi
T1e:_MonoIO_DeleteFile_m3273821223
Raj:_InternalEnumerator_1_Dispose_m3642485841_AdjustorThunk
hdf:_BigInteger_GenerateRandom_m2507308768
mue:_DateTime_System_IConvertible_ToDouble_m1431748426_AdjustorThunk
qEe:_Array_InternalArray__ICollection_Contains_TisUInt16_t986882611_m510319131_gshared
mNe:_Array_InternalArray__Insert_TisRaycastHit2D_t4063908774_m3174907903_gshared
Mxe:_Decimal_ToString_m541380585
tfg:_RepeatContext_get_Previous_m808449037
LZg:__Z46RuntimeInvoker_CharacterValidation_t3437478890PFvvEPK10MethodInfoPvPS4_
Hfh:_MemberFilter__ctor_m1775909550
tJi:_AnimationOffsetPlayable_SetRotation_m1448934280_AdjustorThunk
smf:_KeyValuePair_2_set_Key_m1307112735_AdjustorThunk
ED:__ZN11UnityEngine9Animation28GenericAnimationBindingCache25RegisterIAnimationBindingEPKN5Unity4TypeEiP17IAnimationBinding
pQc:__Z70RectTransformUtility_CUSTOM_INTERNAL_CALL_RectangleContainsScreenPointP12Il2CppObjectRK13Vector2fIcallS0_
QAe:_Enum_ToObject_m2601523252
v4f:_InternalAsyncResult_get_FromWrite_m2893408424
BYc:__ZN6il2cpp2vm5Class15GetElementClassEP11Il2CppClass
Qae:_U3CDelayedSetDirtyU3Ec__Iterator0_System_Collections_IEnumerator_get_Current_m851854792
VZa:__Z20RenderSceneDepthPassRK19SharedRendererSceneRK17ShaderReplaceDatabR17ShaderPassContext
vhi:__ZL124AnimatorControllerPlayable_t1744083903_CustomAttributesCacheGenerator_AnimatorControllerPlayable_PlayInFixedTime_m3726932292P21CustomAttributesCache
n$g:__Z37RuntimeInvoker_Enumerator_t1593300101PFvvEPK10MethodInfoPvPS4_
D5a:__Z40ProcessCameraIndexListIsNodeVisibleInOutRK22SceneCullingParametersPK9SceneNodePK4AABBR9IndexList
olb:__ZN16GraphicsSettings8TransferI17RemapPPtrTransferEEvRT_
CVf:_BigInteger_op_LessThanOrEqual_m3528380540
$4e:_StreamReader__ctor_m2654332332
PNc:__ZN2UI6Canvas13UpdateBatchesEb
Gy:__ZNK23AnimationPlayableOutput11DerivesFromE17ScriptingClassPtr
vob:__ZN7Texture19SupportsAsyncUploadI19StreamedBinaryWriteILb0EEEEbRT_
Yqf:_List_1_CheckCollection_m3968030679_gshared
vLj:_Predicate_1_BeginInvoke_m3556950370_gshared
$sg:_StringBuilder_ToString_m617673931
FAa:__ZNK13GfxDeviceGLES12GetWireframeEv
pQf:_ReadOnlyCollection_1_System_Collections_ICollection_get_IsSynchronized_m3127987432_gshared
NSc:__ZN11UnityEngine7Connect13ConfigHandler12GetListenersERKN4core12basic_stringIcNS2_20StringStorageDefaultIcEEEE
YBa:__ZN9GfxDevice18AllocRenderSurfaceEb
iZb:__ZN10TagManager32GetSortingLayerUniqueIDFromValueEi
mjj:_AnchorInfo_get_IsComplete_m1247624133
k2d:_Dropdown_Show_m324374589
IXd:_PointerInputModule_ShouldStartDrag_m4163638715
V9h:__ZL85Component_t3819376471_CustomAttributesCacheGenerator_Component_SendMessage_m913946877P21CustomAttributesCache
LJg:__Z68RuntimeInvoker_RuntimeObject_RuntimeObject_DSAParameters_t1872138834PFvvEPK10MethodInfoPvPS4_
mQi:_AudioMixerPlayable_INTERNAL_CALL_CreateAudioMixerPlayableInternal_m3355685531
_Mf:_ReadOnlyCollection_1_System_Collections_ICollection_get_SyncRoot_m769863805_gshared
M_g:__Z101RuntimeInvoker_Void_t1841601450_RuntimeObject_Int32_t2071877448_Single_t2076509932_Single_t2076509932PFvvEPK10MethodInfoPvPS4_
qNi:_AnimatorControllerPlayable_PlayInFixedTime_m1932606764_AdjustorThunk
vXd:_RaycastResult_get_isValid_m2482925612
gfc:__Z26AnimationCurve_CUSTOM_InitP12Il2CppObjectP11Il2CppArray
nZj:_glUniform1uiv__wrapper
Led:__ZN6il2cpp2vm10Reflection7IsEventEP12Il2CppObject
UEd:__ZNSt3__26__treeINS_12__value_typeIPFvvEPK10MethodInfoEENS_19__map_value_compareIS3_S7_NS_4lessIS3_EELb1EEENS_9allocatorIS7_EEE16__insert_node_atEPNS_16__tree_node_baseIPvEERSI_SI_
c3:__ZN17PersistentManager26GetStreamNameSpaceInternalEi
KI:__ZN4FMOD6System11createSoundEPKcjP22FMOD_CREATESOUNDEXINFOPPNS_5SoundE
i5g:__Z72RuntimeInvoker_Int32_t2071877448_Vector2_t2243707579_Vector2_t2243707579PFvvEPK10MethodInfoPvPS4_
qTi:_CanvasRenderer_get_cull_m3577089379
mIf:__ZN23InterfaceActionInvoker2Ii22UICharInfo_t3056636800E6InvokeEjP11Il2CppClassP12Il2CppObjectiS0_
eo:FUNCTION_TABLE_iiifiiii
PRi:_Camera_get_cullingMask_m73686965
Cuh:_Object_Destroy_m4145850038
_fi:__ZL86AudioSource_t1135106623_CustomAttributesCacheGenerator_AudioSource_set_clip_m738814682P21CustomAttributesCache
cad:__ZN6il2cpp2vm4Type14IsSystemDBNullEPK10Il2CppType
F0:__ZN9ShaderLab19CommonPropertyNames13StaticCleanupEPv
oJi:_AnimationOffsetPlayable_INTERNAL_CALL_GetRotationInternal_m3411582030
j4:__Z31scripting_method_get_returntype18ScriptingMethodPtr
pCi:_ScrollRect_UpdateBounds_m3266596336
vqb:__ZN15SerializeTraitsI12LightmapDataE8TransferI24GenerateTypeTreeTransferEEvRS0_RT_
P$d:_ColorBlock_GetHashCode_m649325222
NVj:_glStencilOpSeparate__wrapper
A6b:__ZN4Mesh5SetUvEiPKfjj
Pta:__ZN7Texture13SetAnisoLimitENS_20AnisotropicFilteringE
hua:__ZN28LightProbeProxyVolumeManager25UpdateSHCoeffsTextureDataER21LightProbeProxyVolume
KPa:__Z18CreateDecompressor15CompressionType18MemLabelIdentifier
BS:__ZN11AudioModule16SetListenerPauseEb
Uh:_emscripten_glCompressedTexSubImage2D
eKa:__ZN13GfxDeviceGLES22MemoryBarrierImmediateEyN2gl17MemoryBarrierTypeE
wca:__ZZN18SpriteAtlasManagerC1EvEN46EarlyUpdateSpriteAtlasManagerUpdateRegistrator7ForwardEv
kra:__ZN6prcoreL26RemapGenericFloatToIntegerI18TexFormatARGBFloat17TexFormatARGB8888EEvPKNS_9InnerInfoE
l6b:__Z46GetShaderModelNumericValueFromRequirementsMask18ShaderRequirements
HZb:__ZN6Object27GetOffsetOfInstanceIdMemberEv
GIc:_cff_ps_has_glyph_names
Kxj:_InvokableCall_1__ctor_m2837611051_gshared
AXg:__Z89RuntimeInvoker_Void_t1841601450_RuntimeObject_SingleU26_t4173844468_SingleU26_t4173844468PFvvEPK10MethodInfoPvPS4_
OMh:_EqualityComparer_1__ctor_m1389939323_gshared
UDh:_Transform_1_EndInvoke_m1025924012_gshared
lyd:_GC_write
_gj:_PatternCompiler_EmitPosition_m3013268572
ceg:_X509SubjectKeyIdentifierExtension__ctor_m1109455121
SFj:__ZL24UnresolvedVirtualCall_45P12Il2CppObject19DateTime_t693205669PK10MethodInfo
w4d:_Graphic_CreateColorFromAlpha_m2614574534
Ntg:_UnicodeEncoding_GetHashCode_m2443440683
Foc:__Z44Register_UnityEngine_GUIStyle_SetDefaultFontv
Jch:_GenericTypeParameterBuilder_GetPropertyImpl_m3566422383
aNb:__Z18Transfer_BlittableI18StreamedBinaryReadILb1EELb1EiEvRK29SerializationCommandArgumentsR31RuntimeSerializationCommandInfo
xA:__ZN9BlobWrite8TransferI22OffsetPtrArrayTransferIKN4math7_float3EEEEvRT_PKc17TransferMetaFlags
OLd:_TripleDES_IsWeakKey_m483013953
bFh:_Enumerator__ctor_m3819430617_AdjustorThunk
Add:__ZN15dense_hashtableINSt3__24pairIK10KeyWrapperINS1_IPK12PropertyInfoP11Il2CppClassEEEjEES9_17ReflectionMapHashIS8_EN14dense_hash_mapIS9_jSD_NS9_14EqualsComparerINS0_8equal_toIS8_EEEENS0_9allocatorISB_EEE9SelectKeyESI_SK_E12maybe_shrinkEv
bQg:__Z75RuntimeInvoker_RuntimeObject_RuntimeObject_Single_t2076509932_RuntimeObjectPFvvEPK10MethodInfoPvPS4_
vNb:__Z18Transfer_BlittableI18StreamedBinaryReadILb1EELb1EsEvRK29SerializationCommandArgumentsR31RuntimeSerializationCommandInfo
gx:__ZN26AnimatorControllerPlayable17IsMultithreadableEv
k_g:__Z54RuntimeInvoker_Void_t1841601450_ColorBlock_t2652774230PFvvEPK10MethodInfoPvPS4_
mGj:__ZL24UnresolvedVirtualCall_67P12Il2CppObject18OpCode_t2247480392PK10MethodInfo
rPd:_Single_System_IConvertible_ToSByte_m3757385387
T2e:_StreamAsyncResult_SetComplete_m2141125667
Vta:__ZL21SetAnisoLimitEnumImplN7Texture20AnisotropicFilteringEb
sRc:__ZN22BaseUnityConnectClient17OnEnterStateReadyEv
p0:__Z21GetManagerFromContexti
_tf:_List_1_get_Count_m634584594_gshared
Nwa:__ZN14GrowableBufferD2Ev
Grh:_Keyframe_get_tangentMode_m1869200796_AdjustorThunk
zec:__Z29Input_CUSTOM_GetMouseButtonUpi
T5c:__ZN6il2cpp6icalls8mscorlib6System8MonoType16InternalGetEventEP20Il2CppReflectionTypeP12Il2CppStringi
DBg:_UInt32_System_IConvertible_ToUInt32_m1257480358_AdjustorThunk
y4g:__Z55RuntimeInvoker_CustomAttributeTypedArgument_t1498197914PFvvEPK10MethodInfoPvPS4_
Bvg:_Interlocked_CompareExchange_m3339239614
xtd:__ZN6il2cpp2osL23CleanupThreadIfCanceledEPv
Lec:__Z46Input_CUSTOM_INTERNAL_set_compositionCursorPosRK13Vector2fIcall
Ys:__ZN7mecanim5human12FullBodyMaskEv
o2h:__ZL98Activator_t1850728717_CustomAttributesCacheGenerator_Activator_CreateInstance_m1465989661____args1P21CustomAttributesCache
hIj:__ZL25UnresolvedVirtualCall_170P12Il2CppObject19Vector3_t2243707580PK10MethodInfo
d0:__ZN19ShaderPropertySheet11ComputeHashEv
m0c:__ZN30dense_hashtable_const_iteratorI10KeyWrapperIPK19Il2CppGenericMethodES4_N6il2cpp8metadata23Il2CppGenericMethodHashEN14dense_hash_setIS4_S7_NS4_14EqualsComparerINS6_26Il2CppGenericMethodCompareEEENSt3__29allocatorIS4_EEE8IdentityESB_SE_EppEv
pOb:__ZN4PPtrI6ObjectE8TransferI18StreamedBinaryReadILb1EEEEvRT_
VW:__ZN11UnityEngine15CloudWebService20WebRequestRestClient6IsDoneEv
j0d:_ColorTween_get_tweenMode_m2919867230_AdjustorThunk
Pi:_llvm_fabs_f32
T_d:_CanvasScaler_HandleScaleWithScreenSize_m80056230
yW:__ZN11UnityEngine15CloudWebService16SessionContainer16GetJsonDataBlockEjRKN4core12basic_stringIcNS2_20StringStorageDefaultIcEEEERS6_PjSA_
cpg:_SByte_System_IConvertible_ToUInt64_m2174352876_AdjustorThunk
Phi:__ZL132AnimatorControllerPlayable_t1744083903_CustomAttributesCacheGenerator_AnimatorControllerPlayable_Play_m2828212586____normalizedTime2P21CustomAttributesCache
Wch:_GenericTypeParameterBuilder_get_AssemblyQualifiedName_m902593295
kug:_UTF7Encoding_InternalGetBytes_m2772055844
wOh:_EqualityComparer_1__ctor_m831468288_gshared
wHh:_Dictionary_2_System_Collections_IDictionary_set_Item_m2290664072_gshared
SLg:__Z76RuntimeInvoker_Void_t1841601450_Int64_t909078037_ResourceInfoU26_t3126209420PFvvEPK10MethodInfoPvPS4_
Jbf:_SimpleCollator__cctor_m2693747668
Fxe:_Decimal_CompareTo_m2454501434_AdjustorThunk
q3:__ZN14SafeBinaryReadD2Ev
kAg:_UInt16_System_IConvertible_ToChar_m4055364664
r_b:__Z13RegisterClassI7TextureEvv
qkj:_ExpressionCollection_OnValidate_m1703610065
lTe:_Component_GetComponentInChildren_TisRuntimeObject_m2461586036_gshared
JOb:__ZN8Gradient8TransferI18StreamedBinaryReadILb1EEEEvRT_
qEh:_Enumerator_Dispose_m2369319718_AdjustorThunk
S3h:__ZL79Convert_t2607082565_CustomAttributesCacheGenerator_Convert_ToUInt16_m3991499696P21CustomAttributesCache
poc:__Z45Register_UnityEngine_GUIStyle_SetFontInternalv
FYc:__ZN6il2cpp2vmL17SetupEventsLockedEP11Il2CppClassRKNS_2os12FastAutoLockE
Cld:__ZN6il2cpp6icalls8mscorlib6System4Type15MakeGenericTypeEP20Il2CppReflectionTypeP11Il2CppArray
oj:_SDL_PauseAudio
q7c:_il2cpp_class_from_type
fde:_Array_Sort_m2323017822
w8c:__ZN6il2cpp2os4File11GetStdErrorEv
Jmh:_GUILayoutUtility__cctor_m2957755459
bRi:_AudioConfigurationChangeHandler_EndInvoke_m2237100787
E0:__ZN9ShaderLab19CommonPropertyNames16StaticInitializeEPv
F7e:_MissingMemberException__ctor_m3710131950
vsa:__ZN13MemoryManager31DisallowAllocationsOnThisThreadEv
wC:__ZN7mecanim9animation18CreateAvatarOutputEPKNS0_14AvatarConstantEbbRNS_6memory9AllocatorE
Poc:__Z45GUIUtility_CUSTOM_Internal_GetKeyboardControlv
kSg:__Z91RuntimeInvoker_Void_t1841601450_RuntimeObject_Int32_t2071877448_RuntimeObject_RuntimeObjectPFvvEPK10MethodInfoPvPS4_
bqg:_CspParameters__ctor_m2546931874
lO:__ZN11AudioSource23VirtualRedirectTransferER24GenerateTypeTreeTransfer
b7b:__ZN7Texture11SetWrapModeE15TextureWrapMode
vub:__ZN14Texture2DArray23VirtualRedirectTransferER14SafeBinaryRead
D0a:__ZNK6Camera21CalculateCanDoShadowsEv
mKh:_Dictionary_2_make_pair_m2631942124_gshared
A4d:_Graphic__cctor_m1643894470
Ssd:__ZN6il2cpp2os6Thread12SetStackSizeEj
bGg:__Z99RuntimeInvoker_Void_t1841601450_Int32_t2071877448_RuntimeObject_Int32_t2071877448_Int32_t2071877448PFvvEPK10MethodInfoPvPS4_
Nbg:_X509ChainElementEnumerator_get_Current_m2232618221
KLg:__Z54RuntimeInvoker_CallingConventions_t1097349142_IntPtr_tPFvvEPK10MethodInfoPvPS4_
p_d:_U3COnFinishSubmitU3Ec__Iterator0_Reset_m2080388334
W6b:__ZNK8Renderer16IsVisibleInSceneEv
jRi:_Behaviour_get_isActiveAndEnabled_m3838334305
jCi:_ScrollRect_set_onValueChanged_m3957749575
r$:__Z13VFormatBufferPciPKcz
CPb:__Z18Transfer_BlittableI18StreamedBinaryReadILb0EELb1EhEvRK29SerializationCommandArgumentsR31RuntimeSerializationCommandInfo
_Kj:_U3CCreateWhereIteratorU3Ec__Iterator1D_1_Dispose_m1879652802_gshared
pYh:__ZL90SafeHandle_t2733794115_CustomAttributesCacheGenerator_SafeHandle_get_IsInvalid_m3910183075P21CustomAttributesCache
t6d:_Image_GenerateSimpleSprite_m4275440988
EVi:_Display_get_systemHeight_m3377672024
$Ag:_UInt16_ToString_m3280699191
qzj:_UnityEvent_1_GetDelegate_m2566156550_gshared
ora:__ZN6prcoreL27StretchGenericFloatBilinearI15TexFormatRFloatEEvPKNS_9InnerInfoE
MYh:__ZL56_PropertyInfo_t1567586598_CustomAttributesCacheGeneratorP21CustomAttributesCache
MGe:_Array_InternalArray__IEnumerable_GetEnumerator_TisBoolean_t3825574718_m798244337_gshared
ryf:_List_1_CopyTo_m158925060_gshared
Cv:__Z24ProcessAnimationMixBeginP35AnimationPlayableEvaluationConstantP32AnimationPlayableEvaluationInputP33AnimationPlayableEvaluationOutput
Myh:_Rect_Overlaps_m4145874649
NIe:_Array_IndexOf_TisCustomAttributeNamedArgument_t94157543_m745056346_gshared
oIa:__Z14PadImageBorderR14ImageReferenceii
N7h:__ZL92ExtendedKeyUsageExtension_t3816993686_CustomAttributesCacheGenerator_U3CU3Ef__switchU24map14P21CustomAttributesCache
dcd:__ZN15dense_hashtableINSt3__24pairIK10KeyWrapperINS1_IPK10MethodInfoP11Il2CppClassEEEjEES9_17ReflectionMapHashIS8_EN14dense_hash_mapIS9_jSD_NS9_14EqualsComparerINS0_8equal_toIS8_EEEENS0_9allocatorISB_EEE9SelectKeyESI_SK_E4findERSA_
q3c:__ZN6il2cpp2vm13MetadataCache28GetFieldDefaultValueForFieldEPK9FieldInfo
U2i:_ArrayReadOnlyList_1_ReadOnlyError_m2289309720_gshared
dw:__ZN27AnimationLayerMixerPlayableD2Ev
r1e:_Path_IsPathRooted_m1347207448
Z7:__ZN15dense_hashtableINSt3__24pairIKiiEEi21InstanceIDHashFunctorN14dense_hash_mapIiiS4_NS0_8equal_toIiEE13stl_allocatorIS3_L18MemLabelIdentifier137ELi16EEE9SelectKeyES7_SA_E14squash_deletedEv
bMh:_DefaultComparer_GetHashCode_m320514092_gshared
FXf:_PKCS1_Verify_v15_m478274703
CK:__ZN12AudioManager39HandlePendingAudioConfigurationCallbackEv
UOh:__ZL79RuntimeObject_CustomAttributesCacheGenerator_Object_ReferenceEquals_m3900584722P21CustomAttributesCache
kk:_emscripten_glIsFramebuffer
x3b:__ZN12_GLOBAL__N_16qAtan2Eff
zCi:_ScrollRect_OnEnable_m2748112742
yse:_Convert_ToInt64_m954367741
SHj:__ZL25UnresolvedVirtualCall_153P12Il2CppObject40CustomAttributeTypedArgument_t1498197914S1_PK10MethodInfo
ok:_JS_Sound_SetLoopPoints
eie:_ArrayList__ctor_m1467563650
yP:__ZN12AudioManager17ShouldSourcePauseEb
ECd:__ZN6il2cpp2vm26MetadataAllocGenericMethodEv
FMa:__ZN19ConstantBuffersGLES12RecordRenderEv
Frc:__ZN9JSONWrite8TransferI10RectOffsetEEvRT_PKc17TransferMetaFlags
WHa:__ZN4crnd12symbol_codec11decode_bitsEj
_Gc:_cf2_doFlex
XPe:_Array_Sort_TisRaycastResult_t21186376_TisRaycastResult_t21186376_m38820193_gshared
PNi:_Animator_ResetTriggerString_m1445965342
I3b:__ZN21FixedBehaviourManagerD0Ev
ufi:__ZL55RaycastHit2D_t4063908774_CustomAttributesCacheGeneratorP21CustomAttributesCache
b2e:_StreamReader__ctor_m3454466728
GK:__ZN4FMOD6System12createReverbEPPNS_6ReverbE
dli:__ZL103GUIStyleState_t3801000545_CustomAttributesCacheGenerator_GUIStyleState_GetBackgroundInternal_m439046630P21CustomAttributesCache
Duj:_Vector2_get_Item_m2792130561
Xv:__ZN7mecanim19ValueArrayBlendNodeILb1EEEvRKNS_10ValueArrayERKNS_14ValueArrayMaskERS1_RS4_RNS_16ValueArrayWeightEf
xsa:__Z16MarkDependenciesR27GarbageCollectorThreadStatej
Fdg:_X509ChainElementEnumerator_Reset_m3832280427
xKi:_AnimatorControllerPlayable_SetBoolString_m4011560969
ypi:__ZL75EventSystem_t3466835263_CustomAttributesCacheGenerator_U3CU3Ef__mgU24cache0P21CustomAttributesCache
N9e:_MulticastDelegate_RemoveImpl_m2024746777
b$d:_CanvasUpdateRegistry_ParentCount_m2367607495
H9e:_MulticastDelegate_Equals_m3064081489
aIj:__ZL25UnresolvedVirtualCall_163P12Il2CppObject22UILineInfo_t3621277874S1_PK10MethodInfo
Ukf:_Activator_CreateInstance_m1465989661
A0:__ZNK9Transform11GetPositionEv
Nkj:_PositionAssertion_GetWidth_m2294218483
pwh:_PlayableHandle_SetPlayStateInternal_m3829195293
Soi:__ZL111PlayerConnection_t3517219175_CustomAttributesCacheGenerator_PlayerConnection_MessageCallbackInternal_m267902474P21CustomAttributesCache
HXa:__ZN23SharedMeshRenderingData18UnloadVertexStreamEi
Qvj:_Vector4_set_Item_m3077071044
m8g:_AssemblyName_set_Version_m1012722441
f4b:__ZN31CanvasBatchIntermediateRenderer11AddSubBatchERK16DrawBuffersRangePK19ShaderPropertySheet
Zqi:__ZL104PointerEventData_t1599784723_CustomAttributesCacheGenerator_PointerEventData_set_scrollDelta_m4002219844P21CustomAttributesCache
H2b:__ZN19RenderEventsContextC2Ei
MU:__Z6simd4fRKf
eMe:_Array_InternalArray__ICollection_CopyTo_TisColor32_t874517518_m379086718_gshared
JEi:_Slider_ClampValue_m2851810895
Rk:_emscripten_glEnable
hnh:_GUISkin_set_font_m4009958323
pzj:_UnityEvent_1_FindMethod_Impl_m3813546_gshared
Aqd:__ZN6il2cpp2gc16GarbageCollector29RegisterFinalizerForNewObjectEP12Il2CppObject
Cib:__ZN10TagManager23VirtualRedirectTransferER14SafeBinaryRead
DZi:_MarshalAsAttribute__ctor_m1892084128
LBc:_UNITY_FT_Init_Class_ft_grays_raster
v3a:__Z15InitLightMeshesv
j2h:__ZL97WaitHandle_t677569169_CustomAttributesCacheGenerator_WaitHandle_t677569169____Handle_PropertyInfoP21CustomAttributesCache
Vlf:_KeyValuePair_2_ToString_m1391611625_AdjustorThunk
En:FUNCTION_TABLE_iifiii
Ar:__ZN7mecanim9animation14HasHumanCurvesERKNS0_18ClipMuscleConstantE
$ci:__ZL108Material_t193706927_CustomAttributesCacheGenerator_Material_Internal_CreateWithMaterial_m2907597451____mono0P21CustomAttributesCache
Cre:_Double_Parse_m1617409931
_Qg:__Z70RuntimeInvoker_Boolean_t3825574718_Int32_t2071877448_Int16_t4041245914PFvvEPK10MethodInfoPvPS4_
mWa:__ZN22RenderingCommandBuffer36AcquireAndRegisterSharedMaterialDataEP8Material
ksf:_List_1_System_Collections_Generic_IEnumerableU3CTU3E_GetEnumerator_m1503548298_gshared
xLb:__Z18Transfer_BlittableI19StreamedBinaryWriteILb0EELb1E8Vector2fEvRK29SerializationCommandArgumentsR31RuntimeSerializationCommandInfo
GGc:_cf2_arrstack_init
VXh:__ZL65ClassInterfaceAttribute_t910653559_CustomAttributesCacheGeneratorP21CustomAttributesCache
d$:__Z15CleanLogHandler7LogTypePKcz
CVb:__ZN9ShaderLab19SerializedSubShader8TransferI19StreamedBinaryWriteILb0EEEEvRT_
TP:__ZN14AudioBehaviour15ThreadedCleanupEv
Rtg:_UTF32Encoding_GetBytes_m2290150495
fCb:__ZN6Camera17RemoveImageFilterERK11ImageFilter
CJa:__ZNSt3__218__insertion_sort_3IR25ValueParameterArraySorterPN20GpuProgramParameters14ValueParameterEEEvT0_S6_T_
Vke:_CaseInsensitiveHashCodeProvider_AreEqual_m2456617355
gYg:__Z74RuntimeInvoker_Boolean_t3825574718_HitInfo_t1761367055_HitInfo_t1761367055PFvvEPK10MethodInfoPvPS4_
HOc:__ZZN2UI11CanvasGroup15InitializeClassEvEN38FunctorImpl_117kTransformParentChanged4CallEPviR11MessageData
Hxi:_LayoutUtility_GetLayoutProperty_m4052007472
Oxj:_InvokableCall_1_Invoke_m3239892614_gshared
oXa:__ZNSt3__214__split_bufferI20ComputeShaderVariantRNS_9allocatorIS1_EEED2Ev
oxc:__ZNSt3__26vectorIN4core12basic_stringIcNS1_20StringStorageDefaultIcEEEE13stl_allocatorIS5_L18MemLabelIdentifier34ELi16EEE7reserveEj
ded:__ZNK10KeyWrapperINSt3__24pairIPK9EventInfoP11Il2CppClassEEE14EqualsComparerINS0_8equal_toIS7_EEEclERKS8_SE_
f0f:_Context_set_WriteSequenceNumber_m3356252710
vOc:__ZN2UI26InitializeDeviceForOverlayEi
kYe:_Guid_Equals_m2389236871
V0:__Z27LogRepeatingStringWithFlagsRKN4core12basic_stringIcNS_20StringStorageDefaultIcEEEE15LogMessageFlagsi
Vof:_Enumerator_MoveNext_m3483405135_gshared
xt:__ZN17AnimationPlayable28ComputeNeedsBindingRebuildedEv
kej:_DefaultComparer__ctor_m2859550749_gshared
_pf:_List_1_CheckIndex_m3609163576_gshared
yei:__ZL62PlayableOutputHandle_t551742311_CustomAttributesCacheGeneratorP21CustomAttributesCache
Tzb:__ZN15ResourceManagerD0Ev
nbg:_X509ExtensionCollection__ctor_m1324282194
MTc:__ZN18UnityConnectClient33OnPlayerSessionStateChangedStaticEPS_jyy
TTh:__ZL74CaseInsensitiveHashCodeProvider_t2307530285_CustomAttributesCacheGeneratorP21CustomAttributesCache
VCg:_UIntPtr__ctor_m3900568171_AdjustorThunk
DX:__ZNK11UnityEngine15CloudWebService23WebRequestUploadHandler11GetProgressEv
nFa:__ZN7ApiGLES4LoadE16GfxDeviceLevelGL
Iqb:__ZN18StreamedBinaryReadILb0EE21TransferSTLStyleArrayI13dynamic_arrayI31EnlightenSystemAtlasInformationLj8EEEEvRT_17TransferMetaFlags
nGj:__ZL24UnresolvedVirtualCall_68P12Il2CppObject18OpCode_t2247480392S0_PK10MethodInfo
PHa:__ZN4crnd12crn_unpacker22decode_color_endpointsEv
Hpd:__ZN15dense_hashtableI10KeyWrapperIP18Il2CppGenericClassES3_N6il2cpp8metadata22Il2CppGenericClassHashEN14dense_hash_setIS3_S6_NS3_14EqualsComparerINS5_25Il2CppGenericClassCompareEEENSt3__29allocatorIS3_EEE8IdentityESA_SD_E15insert_noresizeERKS3_
ZNf:_ReadOnlyCollection_1_System_Collections_IList_Clear_m3006875897_gshared
O1b:__ZZL31RegisterOtherRendererPropertiesR22GenericPropertyBindingEN30Wrapper_RendererReceiveShadows13GetFloatValueEPv
ZJg:__Z130RuntimeInvoker_Void_t1841601450_RuntimeObject_Int32U26_t455636984_ByteU26_t1147306860_Int32U26_t455636984_ByteU5BU5DU26_t790777611PFvvEPK10MethodInfoPvPS4_
lpf:_Enumerator_System_Collections_IEnumerator_get_Current_m3866069145_gshared
Wcf:_PreviousInfo_t581002487_marshal_pinvoke_cleanup
jha:__ZN8Material11SetPassFastEPN9ShaderLab4PassER17ShaderPassContextP6Shaderib
tbb:__ZNK13ScreenManager13GetLockCursorEv
KTc:__ZN11UnityEngine7Connect20BasePersistentValues10SaveValuesER9JSONWrite
ryh:_Rect_get_max_m96665935_AdjustorThunk
Dli:__ZL87GUIStyle_t1799908754_CustomAttributesCacheGenerator_GUIStyle_set_fixedWidth_m2562018757P21CustomAttributesCache
cWd:_ExecuteEvents_get_pointerDownHandler_m1172742772
gGf:_Collection_1_RemoveAt_m560005219_gshared
F7b:__Z14ScaleCurveTimeR17AnimationCurveTplIfEf
adg:_X509CertificateEnumerator_System_Collections_IEnumerator_MoveNext_m3708362145
zZa:__Z12SetupLODFadeR9GfxDeviceR17ShaderPassContextf
rnb:__ZNK14PlayableOutput7GetTypeEv
qJg:__Z203RuntimeInvoker_Boolean_t3825574718_RuntimeObject_Int32U26_t455636984_Int32_t2071877448_Int32_t2071877448_RuntimeObject_SByte_t454417549_Int32_t2071877448_ContractionU26_t2019974048_ContextU26_t3131521781PFvvEPK10MethodInfoPvPS4_
i3a:__ZL24CollectForwardObjectsJobP27CollectForwardObjectsHeader
lAh:_Enumerator_System_Collections_IDictionaryEnumerator_get_Entry_m345330700_gshared
v$h:__ZL53HMACSHA256_t2622794722_CustomAttributesCacheGeneratorP21CustomAttributesCache
Y6a:__ZNK25CameraStackRenderingState24ResolveTempToEyeTexturesEv
$4a:__Z13IsNodeVisibleRK9SceneNodeRK4AABBRK22SceneCullingParameters
ofh:_EventInfo__ctor_m1190141300
M4i:_InternalEnumerator_1_MoveNext_m3585886944_gshared
rQc:__Z57RectTransformUtility_CUSTOM_INTERNAL_CALL_PixelAdjustRectP12Il2CppObjectS0_R5RectTIfE
Cgi:__ZL133AnimationPlayableOutput_t260357453_CustomAttributesCacheGenerator_AnimationPlayableOutput_INTERNAL_CALL_InternalSetTarget_m2733556181P21CustomAttributesCache
Clg:_DelayedFixupRecord_FixupImpl_m4249966635
k$j:_emscripten_glStencilMask__wrapper
C1c:__ZN15dense_hashtableINSt3__24pairIK10KeyWrapperIN6il2cpp5utils13dynamic_arrayIPK10Il2CppTypeLj4EEEEPFvvEEESA_NS3_8metadata19Il2CppSignatureHashEN14dense_hash_mapISA_SD_SG_NSA_14EqualsComparerINSF_22Il2CppSignatureCompareEEENS0_9allocatorISE_EEE9SelectKeyESK_SM_EC2EjRKSG_RKSK_RKSO_
tdf:_BigInteger_ToString_m3837784224
Dxe:_Decimal_decimalCompare_m26009298
pSa:__ZNK17ArchiveFileSystem8PositionERK13FileEntryData
kwc:__ZN16NovodexAllocator8allocateEjPKcS1_i
fze:_DllNotFoundException__ctor_m267198482
I2a:__Z17PrepareShadowMapsRK11CullResultsRK11ActiveLightRK10MinMaxAABB
C0g:__Z75RuntimeInvoker_Boolean_t3825574718_CustomAttributeTypedArgument_t1498197914PFvvEPK10MethodInfoPvPS4_
nvg:_NativeEventCalls_CreateEvent_internal_m1605829321
Sqf:_List_1_GetIndex_m3409004147_gshared
cni:__ZL73RuntimePlatform_t1869584967_CustomAttributesCacheGenerator_MetroPlayerX64P21CustomAttributesCache
mFj:__ZL24UnresolvedVirtualCall_13P12Il2CppObjectaPK10MethodInfo
E8i:_InternalEnumerator_1_System_Collections_IEnumerator_get_Current_m3239681450_AdjustorThunk
uTb:__ZNSt3__26vectorIN9ShaderLab20SerializedSubProgram15VectorParameterENS_9allocatorIS3_EEEC2ERKS6_
f3a:__ZN9ShaderLab10GrabPassesD2Ev
Xth:_MonoBehaviour_set_useGUILayout_m2666356651
Gub:__ZN14Texture2DArray13UploadTextureEv
FOd:_SecurityFrame_t1002202659_marshal_pinvoke
ZDc:_tt_cmap14_done
ota:__ZN18AwakeFromLoadQueue25RegisterObjectInstanceIDsEv
xfe:_Buffer_BlockCopy_m1586717258
V_h:__ZL93X509Certificate_t283079845_CustomAttributesCacheGenerator_X509Certificate_GetName_m2354987368P21CustomAttributesCache
iw:__ZNK27AnimationLayerMixerPlayable11DerivesFromE17ScriptingClassPtr
iyc:__ZN20TextRenderingPrivate19NativeTextGenerator15InsertCharacterEiPj
I6i:_InternalEnumerator_1__ctor_m3589241961_AdjustorThunk
ACe:_CompareInfo_GetSortKey_m3691382873
zwe:_DBNull_ToString_m3228904745
s9f:_WebHeaderCollection_AddWithoutValidate_m1479880592
pKd:_SHA1Managed_HashCore_m2658295635
Ow:__ZN17AnimationPlayableD0Ev
WXf:_RC4_get_IV_m506011366
apj:_X509Crl__ctor_m2469408229
jMb:__Z18Transfer_BlittableI19StreamedBinaryWriteILb0EELb0EyEvRK29SerializationCommandArgumentsR31RuntimeSerializationCommandInfo
hYh:__ZL82SafeHandle_t2733794115_CustomAttributesCacheGenerator_SafeHandle_Close_m1146946803P21CustomAttributesCache
yAh:_Enumerator_get_CurrentValue_m3562053380_AdjustorThunk
ieg:_X509SubjectKeyIdentifierExtension_CopyFrom_m136762226
kJi:_AnimationOffsetPlayable_INTERNAL_CALL_SetPositionInternal_m3711322547
inf:_Enumerator_System_Collections_IEnumerator_Reset_m610822832_AdjustorThunk
_Vf:_ASN1_get_Length_m778823697
$fc:__Z41MonoBehaviour_Set_Custom_PropUseGUILayoutP12Il2CppObjecth
Hsd:__ZN6il2cpp5utils13dynamic_arrayIPNS_2os6ThreadELj4EE9push_backEv
czc:_UNITY_FT_Open_Face
aXj:_glGenRenderbuffers__wrapper
KRi:_Bounds_ToString_m1966597703
oef:_BigInteger_op_Division_m1581119694
HRb:__ZN16ScriptingManagerD0Ev
nQh:__ZL81Decimal_t724701077_CustomAttributesCacheGenerator_Decimal_op_Implicit_m2135798419P21CustomAttributesCache
Pmg:_CallbackHandler_Invoke_m1498072969
Iqg:_DSACryptoServiceProvider__ctor_m701823690
d3g:__Z74RuntimeInvoker_Void_t1841601450_Int32_t2071877448_ResourceInfo_t3933049236PFvvEPK10MethodInfoPvPS4_
zmh:_Mathf_Clamp_m2354025655
a9g:_CustomAttributeData_GetCustomAttributes_m2421330738
r3f:_SecurityParameters_set_ClientWriteMAC_m1970377285
vod:__ZN30dense_hashtable_const_iteratorINSt3__24pairIK10KeyWrapperINS1_IPKcS4_EEEiEES6_24NamespaceAndNamePairHashN14dense_hash_mapIS6_iS9_NS6_14EqualsComparerI26NamespaceAndNamePairEqualsEENS0_9allocatorIS8_EEE9SelectKeyESD_SF_EppEv
Tyg:_Type_get_IsEnum_m313908919
Fcc:__Z44Register_UnityEngine_Component_get_transformv
Eyf:_List_1_Reverse_m3395936565_gshared
tGf:_Collection_1_System_Collections_ICollection_CopyTo_m1335644572_gshared
BB:__ZN12_GLOBAL__N_120ProcessPlayableGraphERN8Animator11AnimatorJobER35AnimationPlayableEvaluationConstantR32AnimationPlayableEvaluationInputR33AnimationPlayableEvaluationOutputPFvS4_R17AnimationPlayableEPFvS4_S6_S8_EPFvS8_S4_S6_S8_fESE_MS9_FvPS3_PS5_PS7_E
zwf:_List_1_CheckMatch_m2830747427_gshared
DPa:__ZN17ArchiveFileSystem12MountArchiveEPKcS1_
CIg:__Z58RuntimeInvoker_RuntimeTypeHandle_t2330101084_RuntimeObjectPFvvEPK10MethodInfoPvPS4_
Qye:_StackFrame_GetMethod_m72881026
Lqc:__Z18Transfer_BlittableI9JSONWriteLb1E8Vector4fEvRK29SerializationCommandArgumentsR31RuntimeSerializationCommandInfo
zn:FUNCTION_TABLE_viififiii
MMc:__ZN2UI13CanvasManagerD0Ev
gBh:_Enumerator_System_Collections_IEnumerator_Reset_m70453843_gshared
mrb:__ZThn32_NK8Renderer14GetSubsetIndexEi
XLg:__Z58RuntimeInvoker_Byte_t3683104436_IntPtr_t_Int32_t2071877448PFvvEPK10MethodInfoPvPS4_
hRe:_Dictionary_2_Do_CopyTo_TisKeyValuePair_2_t1174980068_TisRuntimeObject_m3279061992_gshared
gvj:_Vector3_get_Item_m3616014016
mvi:__ZL59Slider_t297367283_CustomAttributesCacheGenerator_m_MinValueP21CustomAttributesCache
y0b:__ZN13ProduceHelperI15ResourceManagerLb0EE7ProduceE18MemLabelIdentifier18ObjectCreationMode
RCa:__ZN9GfxDevice15ImmediateVertexEfff
$Zb:__Z13RegisterClassI8MaterialEvv
n0h:__ZL51Evidence_t1407710183_CustomAttributesCacheGeneratorP21CustomAttributesCache
Tpb:__ZNK16LightmapSettings22GetTypeVirtualInternalEv
wkb:__ZN16GraphicsSettings13AwakeFromLoadE17AwakeFromLoadMode
GBe:_FieldAccessException__ctor_m3893881490
Np:__ZN6Object13AwakeFromLoadE17AwakeFromLoadMode
yAa:__ZN13GfxDeviceGLES15SetStencilStateEPK18DeviceStencilStatei
vTg:__Z107RuntimeInvoker_Void_t1841601450_Single_t2076509932_Single_t2076509932_Single_t2076509932_Single_t2076509932PFvvEPK10MethodInfoPvPS4_
jNj:_cycle
osj:_TextGenerator_Populate_m4139823822
A7h:__ZL72PKCS12_t1362584795_CustomAttributesCacheGenerator_U3CU3Ef__switchU24map5P21CustomAttributesCache
Ld:_emscripten_glUniform1iv
eGi:_Text_get_preferredHeight_m452532789
kQd:_String_System_IConvertible_ToDouble_m3860911722
Zdb:__ZN16MemoryFileSystemD2Ev
Mcj:_InternalEnumerator_1_get_Current_m3732458101_AdjustorThunk
uIh:_Dictionary_2_System_Collections_Generic_ICollectionU3CSystem_Collections_Generic_KeyValuePairU3CTKeyU2CTValueU3EU3E_Contains_m842343255_gshared
oWf:_ARC4Managed__ctor_m2922048522
tyc:__Z17dynamic_pptr_castIP9Texture2D7TextureET_RK4PPtrIT0_E
oPf:_ReadOnlyCollection_1_System_Collections_IList_set_Item_m1272038804_gshared
Y3i:_InternalEnumerator_1_System_Collections_IEnumerator_get_Current_m1931522460_AdjustorThunk
PMd:_SecurityPermission_IsEmpty_m1869313067
jcc:__Z37Register_UnityEngine_Camera_get_depthv
Bhf:_EncryptedPrivateKeyInfo_get_Salt_m2734354394
kRf:_ReadOnlyCollection_1_System_Collections_Generic_IListU3CTU3E_set_Item_m1918537449_gshared
vpd:__ZNK15dense_hashtableI10KeyWrapperIP18Il2CppGenericClassES3_N6il2cpp8metadata22Il2CppGenericClassHashEN14dense_hash_setIS3_S6_NS3_14EqualsComparerINS5_25Il2CppGenericClassCompareEEENSt3__29allocatorIS3_EEE8IdentityESA_SD_E10test_emptyERK30dense_hashtable_const_iteratorIS3_S3_S6_SF_SA_SD_E
fsd:__ZN6il2cpp2os5posix15PosixWaitObject4WaitEjb
Oba:__ZN15dense_hashtableINSt3__24pairIKPKcPK4RTTIEES3_N11TypeManager23ConstCharPtrHashFunctorEN14dense_hash_mapIS3_S7_SA_NS9_19ConstCharPtrEqualToE13stl_allocatorIS8_L18MemLabelIdentifier6ELi16EEE9SelectKeyESC_SF_E12resize_deltaEjj
zZb:__ZN15ApplicationInfo16GetInstallerNameEv
vdb:__Z23ConvertIntegerToTypePtrItEbPvR14SafeBinaryRead
cC:__ZN7mecanim5human29HumanGetGoalOrientationOffsetENS0_4GoalE
_Db:__ZNK11MonoManager22GetTypeVirtualInternalEv
fFj:__ZL23UnresolvedVirtualCall_6P12Il2CppObjectiPK10MethodInfo
_Kh:_DefaultComparer_GetHashCode_m3315096533_gshared
cih:_MonoMethod_MakeGenericMethod_impl_m2063853616
GOd:__Z46il2cpp_codegen_get_marshal_directive_exceptionPKc
GWb:__ZN9ShaderLab20SerializedSubProgram14AddMatrixParamEPKcii15ShaderParamTypei
ge:_glGetActiveUniformBlockName
n3d:_FontData_set_verticalOverflow_m4211463083
AF:__ZN26AnimatorControllerPlayable23ValidateParameterStringE17GetSetValueResultRKN4core12basic_stringIcNS1_20StringStorageDefaultIcEEEE
sYe:_Guid_AppendByte_m2890893073
Jge:_Char_System_IConvertible_ToType_m3106771703_AdjustorThunk
lgg:_Interval_Intersects_m3480157390_AdjustorThunk
g3c:__ZN6il2cpp2vm13MetadataCache28GetGenericContainerFromIndexEi
nZi:_GCHandle_Alloc_m1063472408
yL:__ZN4FMOD7Channel20set3DConeOrientationEP11FMOD_VECTOR
mri:__ZL86StandaloneInputModule_t70867863_CustomAttributesCacheGenerator_m_InputActionsPerSecondP21CustomAttributesCache
qn:FUNCTION_TABLE_iiifii
Xfj:_Comparer_1__ctor_m4052560291_gshared
Bii:__ZL54SkeletonBone_t345082847_CustomAttributesCacheGeneratorP21CustomAttributesCache
Qpg:_CryptoConfig_CreateFromName_m391442950
Lrd:__ZN6il2cpp2vm12GenericClass11SetupEventsEP11Il2CppClass
fKc:_tt_delta_interpolate
SDc:_tt_cmap12_get_info
Hne:_SortedList__ctor_m3698381356
gNi:_AnimatorControllerPlayable_PlayInFixedTimeInternal_m3876843019
ond:__ZN6il2cpp2vm15ReboxIReferenceEP14Il2CppIUnknownP11Il2CppClass
E5e:_StreamWriter_LowLevelWrite_m4205372900
sXc:__ZN6il2cpp6icalls8mscorlib6System7Decimal14decimalCompareEP19il2cpp_decimal_reprS5_
Rxd:__ZThn4_N6il2cpp2vm13CachedCCWBaseINS0_13ManagedObjectEE7ReleaseEv
mgh:_Module__ctor_m3853650010
mle:_CollectionBase_System_Collections_IList_get_Item_m2370387510
i_h:__ZL59RemotingException_t109604560_CustomAttributesCacheGeneratorP21CustomAttributesCache
MPe:_Array_Sort_TisCustomAttributeNamedArgument_t94157543_m3436077809_gshared
oYj:_glCopyTexImage2D__wrapper
Ppj:_ResourceRequest__ctor_m3340010930
Y9d:_LayoutElement__ctor_m789941073
Opi:__ZL77ExecuteEvents_t1693084770_CustomAttributesCacheGenerator_U3CU3Ef__mgU24cache9P21CustomAttributesCache
bSi:_Camera_FireOnPreCull_m1679634170
yXh:__ZL68TargetInvocationException_t4098620458_CustomAttributesCacheGeneratorP21CustomAttributesCache
t5h:__ZL56RankException_t1539875949_CustomAttributesCacheGeneratorP21CustomAttributesCache
fVe:_NumberFormatter_CountTrailingZeros_m2398864634
Ooa:__Z18ClearByDrawingQuad13GfxClearFlagsRK10ColorRGBAffjR17ShaderPassContext
_$i:_DynamicPropertyCollection_FindProperty_m1233265924
Nqa:__ZN6prcoreL17RemapGenericFloatI14TexFormatRHalf15TexFormatRFloatEEvPKNS_9InnerInfoE
nZa:__Z16ShouldUseShadowsb
jaa:__ZN15DirectorManager21RebuildStageCallbacksEv
Ora:__ZN19RuntimeSceneManager9LoadSceneERKN4core12basic_stringIcNS0_20StringStorageDefaultIcEEEES6_S6_RK9UnityGUIDiNS_11LoadingModeE
EFj:__ZL24UnresolvedVirtualCall_31P12Il2CppObjectiS0_S0_PK10MethodInfo
FIa:__ZN7ApiGLES10DrawArraysE16GfxPrimitiveTypejjj
qWi:_Event_PopEvent_m1952528237
NKi:_AnimatorControllerPlayable_SetIntegerString_m3665225671
lJ:__ZN10SampleClip13LoadBaseSoundEv
jMg:__Z49RuntimeInvoker_TimeSpan_t3430258949_RuntimeObjectPFvvEPK10MethodInfoPvPS4_
Oqd:__ZN15dense_hashtableINSt3__24pairIK10KeyWrapperIP12Il2CppObjectEN6il2cpp2gc9CachedCCWEEES5_NS7_5utils11PointerHashIS3_EEN14dense_hash_mapIS5_S9_SD_NS5_14EqualsComparerINS0_8equal_toIS4_EEEENS0_9allocatorISA_EEE9SelectKeyESI_SK_E15insert_noresizeERKSA_
DJf:_Collection_1_Contains_m643401393_gshared
Noa:__ZN22DeviceMVPMatricesStateC2ER9GfxDevice
cQd:_String__ctor_m372528291
$m:FUNCTION_TABLE_iifii
$F:__Z64AnimationOffsetPlayable_CUSTOM_INTERNAL_CALL_SetRotationInternalR9HPlayableRK11Quaternionf
Ysb:__ZNSt3__26vectorI13dynamic_arrayI8Vector2fLj4EENS_9allocatorIS3_EEE6assignINS_11__wrap_iterIPS3_EEEENS_9enable_ifIXaasr21__is_forward_iteratorIT_EE5valuesr16is_constructibleIS3_NS_15iterator_traitsISC_E9referenceEEE5valueEvE4typeESC_SC_
_gd:__ZN6il2cpp2vm10Reflection12HasAttributeEP9FieldInfoP11Il2CppClass
bKi:_AnimatorControllerPlayable_GetFloat_m1229536053_AdjustorThunk
Zsa:__ZNSt3__26__treeIiNS_4lessIiEE13stl_allocatorIiL18MemLabelIdentifier1ELi16EEE7destroyEPNS_11__tree_nodeIiPvEE
pc:invoke_viiifi
C8e:_LongComparer_Compare_m3981323622
iji:__ZL82Canvas_t209405766_CustomAttributesCacheGenerator_Canvas_set_scaleFactor_m298557412P21CustomAttributesCache
b6c:__ZNSt3__214__split_bufferIP11Il2CppClassRNS_9allocatorIS2_EEEC2EjjS5_
S$d:_ContentSizeFitter_get_horizontalFit_m892469688
bxi:__ZL109LayoutUtility_t4076838048_CustomAttributesCacheGenerator_LayoutUtility_U3CGetFlexibleHeightU3Em__7_m947156537P21CustomAttributesCache
Rgf:__ZN23InterfaceActionInvoker2IP8String_tP12Il2CppObjectE6InvokeEjP11Il2CppClassS3_S1_S3_
hNh:_EqualityComparer_1__cctor_m3033994022_gshared
gya:__ZNK11AssetBundle14GetPreloadDataEiR13dynamic_arrayIiLj4EE
Jif:_EncryptedData_get_EncryptedContent_m2732115576
qf:_JS_Sound_SetPosition
oij:_Assertion_set_FalseExpression_m1781616372
eeg:_X509SubjectKeyIdentifierExtension_FromHexChars_m2515150420
Nha:__ZN19RenderBufferManager13GetTempBufferEii17DepthBufferFormat19RenderTextureFormatj22RenderTextureReadWrite14VRTextureUsagei23RenderTextureMemoryless
S2c:__ZL13GetSharedInstPK17Il2CppGenericInst
FSh:__ZL51IReflect_t3412036974_CustomAttributesCacheGeneratorP21CustomAttributesCache
IYd:_StandaloneInputModule_SendSubmitEventToSelectedObject_m3421155293
xXi:_RenderPipelineManager_CleanupRenderPipeline_m2242901458
gUi:_Component_GetComponentsInChildren_m908027537
ARc:__ZN22BaseUnityConnectClient17SaveSessionValuesEv
N1i:_CallContextRemotingData_Clone_m2226242476
S2:__Z63ThreadAndSerializationSafeCheckSetMonoBehaviourBeingTransferredP13MonoBehaviour
l3a:__Z24SetupActiveLightsContextR21ActiveLightingContextRK12ActiveLightsRK11CullResultsP14ShadowMapCacheRK10MinMaxAABB
kJh:_Dictionary_2_System_Collections_Generic_ICollectionU3CSystem_Collections_Generic_KeyValuePairU3CTKeyU2CTValueU3EU3E_Contains_m3400497673_gshared
Phc:__Z38Sprite_CUSTOM_INTERNAL_get_textureRectP12Il2CppObjectP5RectTIfE
vwe:_DBNull_System_IConvertible_ToUInt32_m2681284284
Mfd:__ZNK15dense_hashtableINSt3__24pairIK10KeyWrapperIPK22Il2CppGenericParameterEPK24MonoGenericParameterInfoEES6_N6il2cpp5utils11PointerHashIS4_EEN14dense_hash_mapIS6_SA_SF_NS6_14EqualsComparerINS0_8equal_toIS5_EEEENS0_9allocatorISB_EEE9SelectKeyESK_SM_E3endEv
b5b:__ZN9TextAsset7SetTextERKN4core12basic_stringIcNS0_20StringStorageDefaultIcEEEE
Tjb:__ZN6Camera8TransferI24GenerateTypeTreeTransferEEvRT_
_Nh:_EqualityComparer_1__cctor_m416314417_gshared
Ia:invoke_iiiiiiif
Ea:invoke_iiiiiiii
jth:_Mesh_GetUVChannel_m364477864
xcg:_X509ChainElementCollection_Contains_m3599995067
I6a:__ZN8Renderer17PendingAddToSceneEv
c0j:b123
b0j:b122
xLi:_AnimatorControllerPlayable_GetLayerName_m1429074517_AdjustorThunk
d0j:b124
g0j:b127
f0j:b126
i0j:b129
dhc:__Z52Register_UnityEngine_RectTransform_INTERNAL_get_rectv
M1:__Z21PostprocessStacktracePKcRN4core12basic_stringIcNS1_20StringStorageDefaultIcEEEE
Kxf:_List_1_ToArray_m2390522926_gshared
qYh:__ZL70TypeLibImportClassAttribute_t2390314680_CustomAttributesCacheGeneratorP21CustomAttributesCache
Kzb:__ZN18StreamedBinaryReadILb0EE21TransferSTLStyleArrayI13dynamic_arrayI16SplashScreenLogoLj4EEEEvRT_17TransferMetaFlags
PUa:__ZNSt3__26vectorIPN9ShaderLab9SubShaderENS_9allocatorIS3_EEE21__push_back_slow_pathIKS3_EEvRT_
pFe:_Array_InternalArray__ICollection_Remove_TisX509ChainStatus_t4278378721_m4127982424_gshared
tcc:__Z47Register_UnityEngine_Camera_get_allCamerasCountv
iYc:___clang_call_terminate
Lx:__ZThn148_NK26AnimatorControllerPlayable24HasStateMachineBehaviourEv
DRc:__ZN22BaseUnityConnectClient20StartEventDispatcherEv
J6b:__ZNSt3__26vectorIj13stl_allocatorIjL18MemLabelIdentifier1ELi16EEE6assignIPKtEENS_9enable_ifIXaasr21__is_forward_iteratorIT_EE5valuesr16is_constructibleIjNS_15iterator_traitsIS9_E9referenceEEE5valueEvE4typeES9_S9_
TA:__ZN7mecanim9animation16EvaluateAvatarIKEPKNS0_14AvatarConstantEPKNS0_11AvatarInputEPNS0_12AvatarOutputEPNS0_12AvatarMemoryEPNS0_15AvatarWorkspaceEb
gJa:__ZL25ProgramUniformMatrix4x3fvPK7ApiGLESjiihPKv
Ocb:__Z29StdTemplateConversionFunctionIsiEbPvR14SafeBinaryRead
Uvh:_PlayableGraph_INTERNAL_CALL_CreateScriptOutputInternal_m348659249
VUa:__ZN12InputManager13InputEndFrameEv
mne:_SyncHashtable__ctor_m2029869827
o5c:__ZNSt3__26__treeIP11Il2CppClassNS_4lessIS2_EENS_9allocatorIS2_EEE25__emplace_unique_key_argsIS2_JRKS2_EEENS_4pairINS_15__tree_iteratorIS2_PNS_11__tree_nodeIS2_PvEEiEEbEERKT_DpOT0_
Yid:__ZN6il2cpp2vm6Thread5SetupEP12Il2CppThread
zSf:_ReadOnlyCollection_1_System_Collections_IList_Remove_m2200089035_gshared
SEf:_Collection_1_CheckWritable_m2756357359_gshared
oOj:___munmap
r7d:_InputField_get_characterLimit_m2386380888
Zri:__ZL68ColorBlock_t2652774230_CustomAttributesCacheGenerator_m_PressedColorP21CustomAttributesCache
kse:_Convert_ToInt64_m1722087499
hg:_localtime_r
r2h:__ZL81AppDomain_t2719102437_CustomAttributesCacheGenerator_assembly_resolve_in_progressP21CustomAttributesCache
bwh:_PlayableHandle_GetInputCount_m3249715311
wQ:__ZN4FMOD5Sound11getDefaultsEPfS1_S1_Pi
cYh:__ZL65InterfaceTypeAttribute_t4113096249_CustomAttributesCacheGeneratorP21CustomAttributesCache
jg:_strftime
Xha:__ZN7Texture33SetStoredColorSpaceNoDirtyNoApplyE17TextureColorSpace
f6:__ZN12FileAccessorD2Ev
Jna:__ZN10ColorRGBAf8TransferI18StreamedBinaryReadILb0EEEEvRT_
jvb:__ZN14VertexDataInfoC2Ev
BBe:_Exception_GetObjectData_m2653827630
qci:__ZL75Mesh_t1356156583_CustomAttributesCacheGenerator_Mesh_HasChannel_m3616583481P21CustomAttributesCache
nvj:_Vector3_Equals_m2692262876_AdjustorThunk
n7i:_InternalEnumerator_1_get_Current_m2415979394_gshared
gOb:__ZL17Transfer_GUIStyleI18StreamedBinaryReadILb1EELb1EEvRK29SerializationCommandArgumentsR31RuntimeSerializationCommandInfo
VBi:_ScrollRect_SetDirtyCaching_m1491302821
fwh:_PlayableHandle_SetInputCount_m2001045454
J5c:__ZN6il2cpp6icalls8mscorlib6SystemL9IsPrivateEPK12PropertyInfo
gPg:__Z72RuntimeInvoker_DateTime_t693205669_DateTime_t693205669_Int32_t2071877448PFvvEPK10MethodInfoPvPS4_
c9g:_CustomAttributeData_GetCustomAttributes_m3258419955
Q0:__ZN9shadertag10InitializeEv
BZa:__ZN13BatchRenderer20RenderSingleWithPassER17ShaderPassContextPK18SharedMaterialDataP6ShaderPN9ShaderLab4PassEiPKNS7_10GrabPassesEjib15BatchBreakCause
a4g:__Z71RuntimeInvoker_CustomAttributeNamedArgument_t94157543_Int32_t2071877448PFvvEPK10MethodInfoPvPS4_
f$c:__ZN15dense_hashtableINSt3__24pairIK10KeyWrapperIPK19Il2CppGenericMethodEPK26Il2CppGenericMethodIndicesEES6_N6il2cpp8metadata23Il2CppGenericMethodHashEN14dense_hash_mapIS6_SA_SE_NS6_14EqualsComparerINSD_26Il2CppGenericMethodCompareEEENS0_9allocatorISB_EEE9SelectKeyESI_SK_ED2Ev
_dj:_InternalEnumerator_1_MoveNext_m1441038493_gshared
wsb:__ZN15QualitySettings14QualitySetting8TransferI24GenerateTypeTreeTransferEEvRT_
zDd:__ZN6il2cpp5utils6Memory11AlignedFreeEPv
NSd:_DecoderReplacementFallback__ctor_m2344783488
b7g:_OutOfMemoryException__ctor_m239206850
M3d:_GraphicRegistry_UnregisterGraphicForCanvas_m820096873
jLc:__Z28Font_Get_Custom_PropMaterialP12Il2CppObject
BBd:__ZN6il2cpp6icalls8mscorlib6System9Threading16NativeEventCalls19ResetEvent_internalE12Il2CppIntPtr
iSg:__Z88RuntimeInvoker_RuntimeObject_RuntimeObject_RuntimeObject_RuntimeObject_Int32_t2071877448PFvvEPK10MethodInfoPvPS4_
SGf:_Collection_1_Remove_m4136193368_gshared
wVd:_EventTrigger_OnPointerUp_m2791622548
S3g:__Z60RuntimeInvoker_DictionaryEntry_t3048875398_Int32_t2071877448PFvvEPK10MethodInfoPvPS4_
cEi:_Shadow_set_useGraphicAlpha_m141905402
Y5b:__ZN22BlockMemoryCacheWriter14LockCacheBlockEjPPhS1_
Coi:__ZL106PlayableExtensions_t2358977238_CustomAttributesCacheGenerator_PlayableExtensions_SetInputCount_m3394969154P21CustomAttributesCache
clc:__ZNSt3__218__insertion_sort_3IRPFbPKN5IMGUI9GUIWindowES4_EPPS2_EEvT0_SA_T_
gEj:_GenericEqualityComparer_1_Equals_m1109000020_gshared
Lki:__ZL61GUISkin_t1436893342_CustomAttributesCacheGenerator_m_textAreaP21CustomAttributesCache
guc:__Z22TransferField_NonArrayI8JSONRead27Converter_SimpleNativeClassI8GUIStyleEEvRK23StaticTransferFieldInfoR31RuntimeSerializationCommandInfoRT0_
e0c:__ZN15dense_hashtableI10KeyWrapperIPK19Il2CppGenericMethodES4_N6il2cpp8metadata23Il2CppGenericMethodHashEN14dense_hash_setIS4_S7_NS4_14EqualsComparerINS6_26Il2CppGenericMethodCompareEEENSt3__29allocatorIS4_EEE8IdentityESB_SE_E16reset_thresholdsEv
Jqf:__ZN23InterfaceActionInvoker2IP24ObjectU5BU5D_t3614634134iE6InvokeEjP11Il2CppClassP12Il2CppObjectS1_i
Pg:_llvm_eh_typeid_for
O3b:__Z13RegisterClassI10GameObjectEvv
hUh:__ZL53HashValues_t2390200547_CustomAttributesCacheGeneratorP21CustomAttributesCache
hbg:_X509BasicConstraintsExtension_get_PathLengthConstraint_m3004531343
cLi:_AnimatorControllerPlayable_INTERNAL_CALL_ResetTriggerString_m2112584758
Fy:__ZNK23AnimationPlayableOutput7GetTypeEv
RVh:__ZL125GenericTypeParameterBuilder_t1370236603_CustomAttributesCacheGenerator_GenericTypeParameterBuilder_GetConstructors_m103067670P21CustomAttributesCache
qyh:_Rect_get_max_m96665935
Vhi:__ZL139AnimatorControllerPlayable_t1744083903_CustomAttributesCacheGenerator_AnimatorControllerPlayable_INTERNAL_CALL_HasStateInternal_m2282151484P21CustomAttributesCache
L7e:_MissingMemberException__ctor_m4277447068
Qqf:_List_1_Find_m1881447651_gshared
tjh:_StrongNameKeyPair_System_Runtime_Serialization_ISerializable_GetObjectData_m1693082120
e7f:_NameValueCollection__ctor_m1767369537
bQb:__Z18Transfer_BlittableI18StreamedBinaryReadILb0EELb1E8Vector4fEvRK29SerializationCommandArgumentsR31RuntimeSerializationCommandInfo
oDj:_EqualityComparer_1__ctor_m3155445483_gshared
Gtd:__ZN6il2cpp2vm6Method8GetParamEPK10MethodInfoj
n$e:_Int64_CompareTo_m1953686218
DDj:_GenericComparer_1__ctor_m221205314_gshared
$Zg:__Z31RuntimeInvoker_Axis_t2427050347PFvvEPK10MethodInfoPvPS4_
rmd:__ZN6il2cpp6icalls8mscorlib6System2IO6MonoIO4ReadE12Il2CppIntPtrP11Il2CppArrayiiPi
M_j:_glBindVertexArray__wrapper
Eqg:_DSA_Create_m3450041777
Gma:__ZN8Material8TransferI14SafeBinaryReadEEvRT_
pVi:_Debug_LogWarningFormat_m79553173
hob:__ZN12CubemapArray17UploadToGfxDeviceEv
vCi:_ScrollRect_AdjustBounds_m1033723448
_qa:__ZN6prcoreL17RemapGenericFloatI15TexFormatRGHalf17TexFormatRGBAHalfEEvPKNS_9InnerInfoE
hof:_Enumerator_System_Collections_IEnumerator_Reset_m2200349770_gshared
zKf:_Collection_1_get_Item_m3791221403_gshared
F$h:__ZL54PaddingMode_t3032142640_CustomAttributesCacheGeneratorP21CustomAttributesCache
Iid:__ZN24dense_hashtable_iteratorINSt3__24pairIK10KeyWrapperIP11Il2CppClassES4_EES5_N6il2cpp8metadata16SZArrayClassHashEN14dense_hash_mapIS5_S4_SA_NS5_14EqualsComparerINS9_19SZArrayClassCompareEEENS0_9allocatorIS7_EEE9SelectKeyESE_SG_E30advance_past_empty_and_deletedEv
Y6g:_OrdinalComparer__ctor_m2952942058
Vbg:_X509Chain_CheckRevocationOnChain_m2441901351
y4c:__ZN6il2cpp2vm19SocketPollingThread9WritePipeEic
wzg:_Type_GetMethod_m3650909507
HJ:__ZN11AudioSource4StopEb
RMj:_frexp
aHb:__ZN14SafeBinaryRead21TransferSTLStyleArrayI13dynamic_arrayI10Matrix4x4fLj4EEEEvRT_17TransferMetaFlags
EKf:_Collection_1_CheckWritable_m732350052_gshared
Kfe:_Byte_System_IConvertible_ToDecimal_m1036493607
h2h:__ZL47Timer_t791717973_CustomAttributesCacheGeneratorP21CustomAttributesCache
Rga:__Z25GetSplashScreenBackgroundRK5RectTIfE
Nba:__ZN14dense_hash_mapIPKcPK4RTTIN11TypeManager23ConstCharPtrHashFunctorENS5_19ConstCharPtrEqualToE13stl_allocatorINSt3__24pairIKS1_S4_EEL18MemLabelIdentifier6ELi16EEEixERSB_
eti:__ZL65Image_t2042527209_CustomAttributesCacheGenerator_m_PreserveAspectP21CustomAttributesCache
IUc:__ZN13RuntimeStaticI19UnityConnectServiceLb0EE16StaticInitializeEPv
yej:_DefaultComparer_Compare_m1247109616_gshared
GXi:_ResourceManager__ctor_m498829021
nNa:__ZN18GlslGpuProgramGLESD2Ev
Pab:__ZN13RenderTexture14SetVolumeDepthEi
f1g:__Z88RuntimeInvoker_Int32_t2071877448_UIVertex_t1204258818_UIVertex_t1204258818_RuntimeObjectPFvvEPK10MethodInfoPvPS4_
Qmg:_SerializationCallbacks__ctor_m722356782
Muc:__ZN10Matrix4x4f8TransferI8JSONReadEEvRT_
dYh:__ZL49Marshal_t785896760_CustomAttributesCacheGeneratorP21CustomAttributesCache
G2:__ZN17PersistentManager18ReadObjectThreadedEi
CEa:__ZN25TransformFeedbackSkinning31CleanupTransformFeedbackShadersEv
dyd:__ZN6il2cpp6icalls8mscorlib6System7Runtime16CompilerServices14RuntimeHelpers15InitializeArrayEP11Il2CppArray12Il2CppIntPtr
EYa:__Z22scripting_object_unbox18ScriptingObjectPtr
kyc:__ZNK20TextRenderingPrivate8FontImpl19GetCharacterAdvanceEjijfPj
xPi:_AudioClipPlayable_Equals_m2497502457
vQf:_ReadOnlyCollection_1_Contains_m3936562733_gshared
v7f:_DefaultUriParser__ctor_m4218024811
Cah:_DerivedType_GetField_m3960169619
Ywe:_Decimal_System_IConvertible_ToInt16_m3159038792_AdjustorThunk
kFg:__Z59RuntimeInvoker_Int64_t909078037_RuntimeObject_RuntimeObjectPFvvEPK10MethodInfoPvPS4_
E4g:__Z41RuntimeInvoker_KeyValuePair_2_t3716250094PFvvEPK10MethodInfoPvPS4_
Btb:__ZN10VertexData8TransferI18StreamedBinaryReadILb0EEEEvRT_
wYg:__Z73RuntimeInvoker_Single_t2076509932_Vector4_t2243707581_Vector4_t2243707581PFvvEPK10MethodInfoPvPS4_
LJj:_OnCommandSentHandler__ctor_m3467892046
mjf:_PKCS12_GetExistingParameters_m2413397265
eLj:_Nullable_1_get_Value_m1743067844_gshared
RIf:_Collection_1_ClearItems_m4268731177_gshared
$ab:__ZN14PreloadManager16UpdatePreloadingEv
djb:__ZN12BaseRendererD2Ev
QXj:_emscripten_glGenVertexArrays__wrapper
Qmj:_X509CertificateCollection__ctor_m858704242
hpf:_Enumerator__ctor_m425576865_AdjustorThunk
wSf:_ReadOnlyCollection_1_System_Collections_IList_Contains_m1545447998_gshared
egb:__ZNK21UnityDefaultAllocatorI17LowLevelAllocatorE8ContainsEPKv
_3c:__ZNSt3__213__vector_baseI6pollfdNS_9allocatorIS1_EEED2Ev
C$f:_ClientSessionInfo_get_Id_m3046630969
Yh:_emscripten_get_main_loop_timing
J1e:_DirectoryInfo__ctor_m3750996792
$Zd:_BaseMeshEffect_ModifyMesh_m2134816219
VOe:_Array_qsort_TisVector2_t2243707579_m3527759534_gshared
vsb:__ZN24GenerateTypeTreeTransfer21TransferSTLStyleArrayINSt3__26vectorIN15QualitySettings14QualitySettingENS1_9allocatorIS4_EEEEEEvRT_17TransferMetaFlags
Opj:_ResourceRequest_t2560315377_marshal_pinvoke_cleanup
VSe:_Array_InternalArray__get_Item_TisAnimatorClipInfo_t3905751349_m2163447872_gshared
Uxf:_List_1_System_Collections_Generic_IEnumerableU3CTU3E_GetEnumerator_m166627113_gshared
cyb:__ZNSt3__26vectorI9InputAxisNS_9allocatorIS1_EEE6resizeEj
Nxd:__ZN6il2cpp2vm13ManagedObject7GetIidsEPjPP10Il2CppGuid
IZa:__ZN13BatchRendererC2ER15RenderLoopStatsRK15RenderNodeQueuebbb
WMd:_SecurityElement_IsValidAttributeValue_m483287146
MXb:__ZNK2UI13RectTransform22GetTypeVirtualInternalEv
v2h:__ZL56AppDomainSetup_t611332832_CustomAttributesCacheGeneratorP21CustomAttributesCache
op:getTempRet0
W$g:__Z79RuntimeInvoker_Boolean_t3825574718_ContentTypeU26_t1802785839_Int32_t2071877448PFvvEPK10MethodInfoPvPS4_
u8g:_AssemblyTitleAttribute__ctor_m1696431446
B6d:_Image_AddQuad_m1603575622
Lvd:__ZN24dense_hashtable_iteratorINSt3__24pairIK10KeyWrapperIPK19Il2CppGenericMethodEP10MethodInfoEES6_N6il2cpp8metadata23Il2CppGenericMethodHashEN14dense_hash_mapIS6_S9_SD_NS6_14EqualsComparerINSC_26Il2CppGenericMethodCompareEEENS0_9allocatorISA_EEE9SelectKeyESH_SJ_E30advance_past_empty_and_deletedEv
RXf:_PrivateKeyInfo_RemoveLeadingZero_m3396807048
lMf:_ReadOnlyCollection_1_System_Collections_Generic_ICollectionU3CTU3E_get_IsReadOnly_m1251192075_gshared
Hqf:_List_1_GrowIfNeeded_m185971996_gshared
Tjd:__ZN6il2cpp6icalls8mscorlib6System9ThreadingL21lookup_cached_cultureEP12Il2CppThreadi
i4a:__ZN18DeferredRenderLoopD2Ev
Hch:_GenericTypeParameterBuilder_GetMethods_m1243855818
qja:__ZNK16TypeTreeIterator4NameEv
toi:__ZL90PlayableBinding_t2498078091_CustomAttributesCacheGenerator_U3CstreamTypeU3Ek__BackingFieldP21CustomAttributesCache
F5:__ZN15FileSystemEntry3SetEPKc
zdj:_InternalEnumerator_1__ctor_m2808001655_gshared
rHd:_MACTripleDES__ctor_m884945242
fbc:__Z52Register_UnityEngine_Application_set_targetFrameRatev
hL:__ZN20SoundChannelInstance15ParameterBuffer5ApplyEPN4FMOD7ChannelE
PIi:_AnimationMixerPlayable_GetHandle_m277863172_AdjustorThunk
hyc:__ZN20TextRenderingPrivate19NativeTextGenerator9InsertTabEv
TQh:__ZL73Enum_t2459695545_CustomAttributesCacheGenerator_Enum_ToObject_m1688724857P21CustomAttributesCache
Plh:_Rect_set_y_m4294916608
QRc:__ZN11UnityEngine15PlatformWrapper24GetRuntimePlatformStringEv
Hi:_glIsEnabled
RRb:__ZN15CacheWriterBaseD2Ev
pvi:__ZL56Slider_t297367283_CustomAttributesCacheGenerator_m_ValueP21CustomAttributesCache
MCb:__Z25scripting_class_get_image17ScriptingClassPtr
Yci:__ZL85Material_t193706927_CustomAttributesCacheGenerator_Material_GetTextureImpl_m623159197P21CustomAttributesCache
Li:_emscripten_glDrawElementsInstanced
wx:__ZN26AnimatorControllerPlayable27SetupStateMachineBehavioursEv
rWf:_ARC4Managed_Dispose_m4102232694
LWf:_HMAC_Initialize_m3052649104
cxa:__ZN18JobBatchDispatcherD2Ev
HXb:__ZN9Transform17MainThreadCleanupEv
nAd:_GC_clear_hdr_marks
KVj:_glScissor__wrapper
I$j:_emscripten_glCreateShader__wrapper
d7d:_InputField_get_caretSelectPositionInternal_m3523572533
iGc:_cff_fd_select_get
JXh:__ZL73CompilationRelaxationsAttribute_t238494011_CustomAttributesCacheGeneratorP21CustomAttributesCache
Nji:__ZL95CanvasRenderer_t261436805_CustomAttributesCacheGenerator_CanvasRenderer_SetMaterial_m1462355522P21CustomAttributesCache
dGi:_Text_get_minHeight_m1562513104
nbf:_MSCompatUnicodeTable_GetTailoringInfo_m2792223347
K6f:_NameObjectCollectionBase_get_Keys_m446053925
Vi:_emscripten_glGetShaderiv
NDh:_Transform_1__ctor_m353209818_gshared
s_g:__Z30RuntimeInvoker_Axis_t375128448PFvvEPK10MethodInfoPvPS4_
jM:__ZN4FMOD6System10getVersionEPj
i2e:_FileLoadException_GetObjectData_m2047020314
Gmi:__ZL96RemoteSettings_t392466225_CustomAttributesCacheGenerator_RemoteSettings_CallOnUpdate_m1624968574P21CustomAttributesCache
EJe:_Array_InternalArray__IndexOf_TisSByte_t454417549_m1427585061_gshared
SLc:__ZN2UI6Canvas23VirtualRedirectTransferER24GenerateTypeTreeTransfer
spe:_Decimal_u64_m3991988111
pwj:_YieldInstruction_t3462875981_marshal_pinvoke
LLj:_Predicate_1_BeginInvoke_m2959352225_gshared
lKh:_Dictionary_2_CopyToCheck_m2147716750_gshared
inj:_X509Certificate_Parse_m1764345628
Rwc:__ZN13TextRendering4Font13AwakeFromLoadE17AwakeFromLoadMode
MYg:__Z70RuntimeInvoker_Void_t1841601450_Guid_t_RuntimeObject_Int32_t2071877448PFvvEPK10MethodInfoPvPS4_
yBa:__ZN9GfxDevice21ReleaseSharedMeshDataEP14SharedMeshData
Bkf:_SmallXmlParser_Peek_m2814840810
Tyb:__ZNSt3__27__sort5IRNS_6__lessINS_4pairIPKN5Unity4TypeE7Hash128EES8_EEPS8_EEjT0_SC_SC_SC_SC_T_
Mne:_Enumerator_Reset_m466659019
iyj:_UnityAction_1_EndInvoke_m2822290096_gshared
$_c:__ZNK15dense_hashtableINSt3__24pairIK10KeyWrapperIPKcEP11Il2CppClassEES5_N6il2cpp5utils11StringUtils12StringHasherIS4_EEN14dense_hash_mapIS5_S8_SE_NS5_14EqualsComparerINSB_13VmStringUtils21CaseSensitiveComparerEEENS0_9allocatorIS9_EEE9SelectKeyESJ_SL_E10test_emptyERK30dense_hashtable_const_iteratorIS9_S5_SE_SN_SJ_SL_E
FQi:_AudioPlayableOutput_op_Implicit_m530962771
K_g:__Z70RuntimeInvoker_Single_t2076509932_Int32_t2071877448_Single_t2076509932PFvvEPK10MethodInfoPvPS4_
SAd:_maybe_finalize
bk:_emscripten_glGetProgramiv
X1i:_ConstructionCall_GetObjectData_m3974358557
Xgc:__Z43RectTransform_CUSTOM_INTERNAL_get_anchorMaxP12Il2CppObjectP13Vector2fIcall
SGg:__Z50RuntimeInvoker_Void_t1841601450_Single_t2076509932PFvvEPK10MethodInfoPvPS4_
cwe:_DateTimeOffset_get_DateTime_m229084964_AdjustorThunk
tma:__ZN8Material28UpdateHashesOnPropertyChangeEN9ShaderLab16FastPropertyNameE
Hhc:__Z53Register_UnityEngine_SortingLayer_GetLayerValueFromIDv
d1e:_DirectoryInfo_get_Parent_m1198766078
qCj:_EqualityComparer_1_System_Collections_IEqualityComparer_Equals_m349194518_gshared
Ske:_CaseInsensitiveComparer_Compare_m1192858479
aFb:__Z18Transfer_BlittableI14SafeBinaryReadLb1E8Vector4fEvRK29SerializationCommandArgumentsR31RuntimeSerializationCommandInfo
T4e:_StreamAsyncResult_set_Done_m4272090534
Wae:_LayoutRebuilder_Clear_m2390054824
XHf:_Collection_1_System_Collections_IList_Insert_m2968289909_gshared
HDa:__ZN13GfxDeviceGLES20SetComputeBufferDataE15ComputeBufferIDPKvjj
O8g:_Default_SelectMethod_m622251293
pO:__ZN11AudioSource12AddToManagerEv
ss:__ZN8Animator23VirtualRedirectTransferER19StreamedBinaryWriteILb0EE
D1i:_AsyncResult_get_NextSink_m1172723924
az:__ZN11UnityEngine9Animation32CreateAnimatorGenericBindingsOptERKNS0_20AnimationSetBindingsER9TransformPKN7mecanim9animation14AvatarConstantEPKNS0_21AvatarBindingConstantEbRNS6_6memory9AllocatorER8Animator
Und:__ZN6il2cpp2vm5Image13ClassFromNameEPK11Il2CppImagePKcS6_
IRj:dynCall_vdddddd
PUb:__ZN24GenerateTypeTreeTransfer21TransferSTLStyleArrayINSt3__26vectorIN9ShaderLab14SerializedPassENS1_9allocatorIS4_EEEEEEvRT_17TransferMetaFlags
A1:__ZL32MarkLevelGameManagerDependenciesR27GarbageCollectorThreadState
ODa:__ZNK13GfxDeviceGLES26HasActiveRandomWriteTargetEv
wWc:__ZN20UnityWebRequestProtoI19TransportJavaScript16AtomicRefCounter14RedirectHelper14ResponseHelper15DownloadHandler13UploadHandler12HeaderHelper14AsyncOperationE5BeginEv
BWj:_glGetActiveUniformsiv__wrapper
Ehc:__Z43Register_UnityEngine_Material_EnableKeywordv
K3:__ZN13MonoBehaviour19SetupScriptingCacheE17ScriptingClassPtrP10MonoScript
r4c:__ZNSt3__214__split_bufferIP12Il2CppThreadRNS_9allocatorIS2_EEED2Ev
vr:__Z20AnimationEventToMonoRK14AnimationEventR18MonoAnimationEvent
rci:__ZL85Mesh_t1356156583_CustomAttributesCacheGenerator_Mesh_ExtractArrayFromList_m1349408169P21CustomAttributesCache
r2:__ZNK15dense_hashtableINSt3__24pairIKiiEEi21InstanceIDHashFunctorN14dense_hash_mapIiiS4_NS0_8equal_toIiEE13stl_allocatorIS3_L18MemLabelIdentifier1ELi16EEE9SelectKeyES7_SA_E13find_positionERS2_
ezi:_Navigation_get_selectOnLeft_m3980387574_AdjustorThunk
ICh:_ShimEnumerator_get_Current_m3610131784_gshared
wBf:_List_1_Sort_m2158253314_gshared
_ni:__ZL74UnityEventBase_t828812576_CustomAttributesCacheGenerator_m_PersistentCallsP21CustomAttributesCache
Gaa:__ZZN15DirectorManager15InitializeClassEvEN52PreLateUpdateDirectorUpdateAnimationBeginRegistrator7ForwardEv
TKh:_DefaultComparer__ctor_m2265472997_gshared
Vld:__ZN6il2cpp2vm13LivenessState18ShouldProcessValueEP12Il2CppObjectP11Il2CppClass
phb:__ZN4PPtrI6SpriteE8TransferI14SafeBinaryReadEEvRT_
Jbh:_EnumBuilder_GetElementType_m1228393631
dMg:__Z52RuntimeInvoker_Void_t1841601450_TimeSpan_t3430258949PFvvEPK10MethodInfoPvPS4_
Ohd:__ZN15dense_hashtableINSt3__24pairIK10KeyWrapperIP11Il2CppClassES4_EES5_N6il2cpp8metadata16SZArrayClassHashEN14dense_hash_mapIS5_S4_SA_NS5_14EqualsComparerINS9_19SZArrayClassCompareEEENS0_9allocatorIS7_EEE9SelectKeyESE_SG_E16reset_thresholdsEv
dwh:_PlayableHandle_GetInputCountInternal_m2692879798
lUb:__ZNSt3__26vectorIN9ShaderLab14SerializedPassENS_9allocatorIS2_EEE8__appendEj
DTb:__ZNSt3__26vectorIN9ShaderLab20SerializedSubProgram13BufferBindingENS_9allocatorIS3_EEEC2INS_11__wrap_iterIPS3_EEEET_SB_RKS5_PNS_9enable_ifIXaasr21__is_forward_iteratorISB_EE5valuesr16is_constructibleIS3_NS_15iterator_traitsISB_E9referenceEEE5valueEvE4typeE
c0f:_Context_get_SupportedCiphers_m2172827298
aea:__ZNK13ScreenManager21IsMultiDisplayEnabledEv
T_g:__Z133RuntimeInvoker_RuntimeObject_Vector2_t2243707579_Vector2_t2243707579_Single_t2076509932_Int32_t2071877448_RuntimeObject_RuntimeObjectPFvvEPK10MethodInfoPvPS4_
Bpb:__ZN9Texture2D23VirtualRedirectTransferER18StreamedBinaryReadILb0EE
Fze:_Double_System_IConvertible_ToUInt16_m286326038_AdjustorThunk
_kg:_TypeInfo__ctor_m1475908211
__c:__ZN30dense_hashtable_const_iteratorINSt3__24pairIK10KeyWrapperIPKcEP11Il2CppClassEES5_N6il2cpp5utils11StringUtils12StringHasherIS4_EEN14dense_hash_mapIS5_S8_SE_NS5_14EqualsComparerINSB_13VmStringUtils21CaseSensitiveComparerEEENS0_9allocatorIS9_EEE9SelectKeyESJ_SL_E30advance_past_empty_and_deletedEv
Rib:__ZNSt3__26__treeINS_12__value_typeIN4core12basic_stringIcNS2_20StringStorageDefaultIcEEEEjEENS_19__map_value_compareIS6_S7_NS_4lessIS6_EELb1EEE13stl_allocatorIS7_L18MemLabelIdentifier6ELi16EEE7destroyEPNS_11__tree_nodeIS7_PvEE
q4:__ZN16ScriptingManager27NativeTypeForScriptingClassE17ScriptingClassPtr
Wbg:_X509Chain_WrapUp_m1072032285
Eoj:_X509CertificateEnumerator_System_Collections_IEnumerator_MoveNext_m1448966539
kDc:_get_sfnt_table
EFf:_Collection_1_IsSynchronized_m3261594010_gshared
Fph:_GUIStyle_GetNumCharactersThatFitWithinWidth_m3760066083
KWd:_PointerEventData_set_pressPosition_m2094137883
arb:__ZN8Renderer20RendererAddedToSceneEv
mqg:_DES_get_Key_m2584608215
w5a:__ZL22ScheduleSceneNodesJobsP25ScheduleSceneNodesJobDataj
Jk:_emscripten_set_canvas_size
jme:_Hashtable__ctor_m741952536
VTb:__ZNSt3__26vectorIN9ShaderLab20SerializedSubProgramENS_9allocatorIS2_EEE8__appendEj
o_:__ZN20DynamicHeapAllocatorI17LowLevelAllocatorE8AllocateEji
i_a:__ZN20DynamicPropertySheet15SetVectorQueuedERKN9ShaderLab16FastPropertyNameERK8Vector4fN19ShaderPropertySheet8SetFlagsE
Chi:__ZL138AnimatorControllerPlayable_t1744083903_CustomAttributesCacheGenerator_AnimatorControllerPlayable_PlayInFixedTime_m1932606764____fixedTime2P21CustomAttributesCache
zjf:_PKCS12_get_IterationCount_m3572300030
MRh:__ZL69RuntimeArray_CustomAttributesCacheGenerator_Array_Reverse_m3883292526P21CustomAttributesCache
hQf:_ReadOnlyCollection_1_System_Collections_IEnumerable_GetEnumerator_m4248982967_gshared
bA:__ZN7mecanim9animation22EvaluateAvatarRetargetEPKNS0_14AvatarConstantEPKNS0_11AvatarInputEPNS0_12AvatarOutputEPNS0_12AvatarMemoryEPNS0_15AvatarWorkspaceEb
ebe:_LayoutRebuilder_GetHashCode_m2745108660
umb:__ZN14RenderSettings23VirtualRedirectTransferER19StreamedBinaryWriteILb0EE
_qc:__ZL26Transfer_SimpleNativeClassI9JSONWrite10RectOffsetLb0EEvRK29SerializationCommandArgumentsR31RuntimeSerializationCommandInfo
Ozd:_GC_push_conditional
$Ga:__ZN17GenericDynamicVBO10AllocateVBEjR21DynamicVBOChunkHandle
fsf:_List_1_get_Item_m1547593893_gshared
u1e:_Path_GetPathRoot_m1269357080
tpd:__ZN30dense_hashtable_const_iteratorI10KeyWrapperIP18Il2CppGenericClassES3_N6il2cpp8metadata22Il2CppGenericClassHashEN14dense_hash_setIS3_S6_NS3_14EqualsComparerINS5_25Il2CppGenericClassCompareEEENSt3__29allocatorIS3_EEE8IdentityESA_SD_EppEv
Rle:_KeyNotFoundException__ctor_m264393096
$Ud:_EventSystem_SetSelectedGameObject_m2211816110
ZDh:_Transform_1__ctor_m4161450529_gshared
gl:_glMapBufferRange
tpb:__ZN9Texture2D8TransferI18StreamedBinaryReadILb0EEEEvRT_
yec:__Z31Input_CUSTOM_GetMouseButtonDowni
oSg:__Z41RuntimeInvoker_HandshakeState_t1820731088PFvvEPK10MethodInfoPvPS4_
zgc:__Z75Register_UnityEngine_Playables_PlayableHandle_INTERNAL_CALL_IsValidInternalv
D4b:__ZN13PlayableGraph4PlayEv
cYa:__ZNK9Transform16GetLocalPositionEv
Nbi:__ZL89Input_t1785128008_CustomAttributesCacheGenerator_Input_get_imeCompositionMode_m4250689464P21CustomAttributesCache
Hbe:_Array_System_Collections_ICollection_get_Count_m2897196527
lya:__ZN13LoadOperation19IntegrateTimeSlicedEi
H2i:_ArrayReadOnlyList_1_get_Item_m176001975_gshared
Kfg:_InterpreterFactory__ctor_m3331468903
Tjf:_X501__cctor_m3795360380
ZDa:__ZN13GfxDeviceGLES22DispatchComputeProgramE12ObjectHandleI18ComputeProgram_TagPvE15ComputeBufferIDj
bqh:_GUIStyle_set_contentOffset_m2138084868
IFf:_Collection_1_System_Collections_ICollection_CopyTo_m4193844941_gshared
OMg:__Z60RuntimeInvoker_Void_t1841601450_StreamingContext_t1417235061PFvvEPK10MethodInfoPvPS4_
dse:_Convert_ToInt32_m2297793940
twa:__Z17TransformAABBSlowRK4AABBRK10Matrix4x4fRS_
oqb:__ZN15SerializeTraitsI13dynamic_arrayI7Hash128Lj8EEE19ResizeSTLStyleArrayERS2_i18MemLabelIdentifier
Rsd:__ZN6il2cpp2os6Thread11SetPriorityENS0_14ThreadPriorityE
FSb:__ZN9ShaderLab21SerializedShaderState8TransferI14SafeBinaryReadEEvRT_
vKj:_Terminal_NotifyCommandHandlers_m2901839470
YJd:_RSAPKCS1SignatureFormatter_SetKey_m2365816458
lZe:_Int16_GetHashCode_m304503362_AdjustorThunk
Wcd:__ZN15dense_hashtableINSt3__24pairIK10KeyWrapperINS1_IPK11Il2CppImageP11Il2CppClassEEEjEES9_17ReflectionMapHashIS8_EN14dense_hash_mapIS9_jSD_NS9_14EqualsComparerINS0_8equal_toIS8_EEEENS0_9allocatorISB_EEE9SelectKeyESI_SK_E8min_sizeEjj
lD:__ZN7mecanim9animation20DestroyLayerConstantEPNS0_13LayerConstantERNS_6memory9AllocatorE
bvg:_CompressedStack__ctor_m276924800
oWd:_ExecuteEvents_get_cancelHandler_m1964324668
Bna:__ZN15SerializeTraitsINSt3__24pairIN4core12basic_stringIcNS2_20StringStorageDefaultIcEEEES6_EEE8TransferI24GenerateTypeTreeTransferEEvRS7_RT_
Ewh:_PlayableOutput__ctor_m3826671654_AdjustorThunk
Esh:_Matrix4x4__ctor_m2771358574_AdjustorThunk
Cki:__ZL70GUISettings_t622856320_CustomAttributesCacheGenerator_m_SelectionColorP21CustomAttributesCache
kYj:b81
jYj:b80
eLa:__ZN7ApiGLES19CreateSparseTextureEjj14GraphicsFormatiiiiRiS1_S1_
W4:__ZN18ResourceImageGroup7CleanupEv
uYj:b85
tYj:b84
CYj:b87
BYj:b86
lq:__ZN11Quaternionf8TransferI24GenerateTypeTreeTransferEEvRT_
cdh:_GenericTypeParameterBuilder_get_DeclaringType_m1652924692
y2b:__ZN13ProduceHelperI4MeshLb0EE7ProduceE18MemLabelIdentifier18ObjectCreationMode
PXf:_PrivateKeyInfo_Decode_m1053025782
Adg:_X509ChainElementCollection_System_Collections_ICollection_CopyTo_m1467895312
Wif:_PKCS12_Decrypt_m2457743414
yii:__ZL87Animator_t69676727_CustomAttributesCacheGenerator_Animator_SetTriggerString_m2002790359P21CustomAttributesCache
gnb:__ZN8Playable19SetOutputConnectionEPS_i
p_c:__ZN15dense_hashtableINSt3__24pairIK10KeyWrapperIPK11Il2CppClassEPKcEES6_N6il2cpp5utils11PointerHashIS3_EEN14dense_hash_mapIS6_S9_SE_NS6_14EqualsComparerINS0_8equal_toIS5_EEEENS0_9allocatorISA_EEE9SelectKeyESJ_SL_EC2ERKSO_j
Vl:_glDeleteShader
wBe:_Exception_GetType_m3898489832
Vqa:__ZN6prcoreL17RemapGenericFloatI15TexFormatRGHalf16TexFormatRGFloatEEvPKNS_9InnerInfoE
JCf:_Stack_1_Peek_m1548778538_gshared
GLf:_Collection_1_System_Collections_IList_get_Item_m1995028750_gshared
Wvj:_Vector4_Dot_m2285943745
$Di:_Shadow_set_effectColor_m3110056844
bac:__Z27scripting_add_internal_callPKcPKv
fNe:_Array_InternalArray__Insert_TisUriScheme_t1876590943_m2728325409_gshared
Qki:__ZL72GUISkin_t1436893342_CustomAttributesCacheGenerator_m_verticalSliderThumbP21CustomAttributesCache
sgd:__ZN13Il2CppHashMapINSt3__24pairIPK9EventInfoP11Il2CppClassEEj17ReflectionMapHashIS7_ENS0_8equal_toIS7_EENS0_9allocatorINS1_IK10KeyWrapperIS7_EjEEEEEC2EjRKS9_RKSB_
Zpd:__GLOBAL__sub_I_GarbageCollector_cpp
n0:__Z17GetPlayerSettingsv
CA:__ZN34BlobWriteTransferSTLStyleArrayImplI22OffsetPtrArrayTransferIiEEclERS1_17TransferMetaFlagsR9BlobWrite
Roj:_X509Store_CheckStore_m1027496478
dXh:__ZL82MethodBase_t904190842_CustomAttributesCacheGenerator_MethodBase_Invoke_m1075809207P21CustomAttributesCache
Js:__ZN26AnimatorControllerPlayable18SetLayerAutoWeightEv
Nb:invoke_vffff
vPj:__ZNSt3__212basic_stringIcNS_11char_traitsIcEENS_9allocatorIcEEEC2ERKS5_jjRKS4_
tRd:_String_Contains_m4017059963
wQe:_Array_swap_TisCustomAttributeNamedArgument_t94157543_TisCustomAttributeNamedArgument_t94157543_m3600072996_gshared
cej:_DefaultComparer_Compare_m1606207039_gshared
dOc:__ZN2UI14CanvasRenderer12SyncMaterialENS0_8SyncFlagE
lhi:__ZL137AnimatorControllerPlayable_t1744083903_CustomAttributesCacheGenerator_AnimatorControllerPlayable_CrossFade_m3794224188____normalizedTime3P21CustomAttributesCache
DDd:__ZN6il2cpp2vm9Parameter30GetDefaultParameterValueObjectEPK10MethodInfoPK13ParameterInfoPb
PBj:_Action_EndInvoke_m4281032350
sZb:__ZN15dense_hashtableINSt3__24pairIKN4core12basic_stringIcNS2_20StringStorageDefaultIcEEEE10vector_setI4PPtrI11SpriteAtlasENS0_4lessISB_EE13stl_allocatorISB_L18MemLabelIdentifier79ELi16EEEEES6_20StringHash32FunctionIS6_EN14dense_hash_mapIS6_SH_SK_NS0_8equal_toIS6_EESE_ISI_LSF_79ELi16EEE9SelectKeyESN_SO_E12maybe_shrinkEv
VNe:_Array_InternalArray__set_Item_TisLabelData_t3712112744_m2253365137_gshared
Ggh:_MonoCMethod_get_Attributes_m3914742834
ebj:_InternalEnumerator_1__ctor_m142220063_AdjustorThunk
Eth:_MonoBehaviour_Invoke_m666563676
fah:_ConstructorBuilder_get_DeclaringType_m4264602248
L5e:_StringReader__ctor_m643998729
q8f:_IPv6Address_TryParse_m2220524278
Pae:_U3CDelayedSetDirtyU3Ec__Iterator0_System_Collections_Generic_IEnumeratorU3CobjectU3E_get_Current_m2210283424
Ddi:__ZL86Time_t31991979_CustomAttributesCacheGenerator_Time_get_realtimeSinceStartup_m357614587P21CustomAttributesCache
bDc:_UNITY_tt_face_done_kern
R$i:_Context_get_DefaultContext_m2211922324
_8g:_CustomAttributeData_get_NamedArguments_m708818174
Dnc:__Z59GUIStyle_CUSTOM_Internal_GetNumCharactersThatFitWithinWidth13Il2Cpp_IntPtrP12Il2CppStringf
Mvb:__ZN12BoneWeights48TransferI24GenerateTypeTreeTransferEEvRT_
eYf:_RSAManaged_GetPaddedValue_m2972141669
iG:__Z62AnimationPlayableOutput_CUSTOM_INTERNAL_CALL_InternalSetTargetR15HPlayableOutputP12Il2CppObject
w1f:_TlsServerCertificate_ProcessAsSsl3_m277089231
tHe:_Array_InternalArray__IEnumerable_GetEnumerator_TisUInt16_t986882611_m3665860884_gshared
cga:__Z19scripting_gc_enablev
cWc:__ZN20UnityWebRequestProtoI19TransportJavaScript16AtomicRefCounter14RedirectHelper14ResponseHelper15DownloadHandler13UploadHandler12HeaderHelper14AsyncOperationE9DoRequestEv
NTa:__ZZ23InitPlayerLoopCallbacksvEN41InitializationPlayerUpdateTimeRegistrator7ForwardEv
hjj:_AnchorInfo__ctor_m617409099
rcb:__Z29StdTemplateConversionFunctionIihEbPvR14SafeBinaryRead
Ich:_GenericTypeParameterBuilder_GetMethodImpl_m528545634
ZPc:__Z55Register_UnityEngine_CanvasRenderer_DisableRectClippingv
pgg:_Interval_CompareTo_m2909556284_AdjustorThunk
fvb:__ZN14SafeBinaryRead21TransferSTLStyleArrayI13dynamic_arrayI11ColorRGBA32Lj4EEEEvRT_17TransferMetaFlags
Aoi:__ZL61PlayableExtensions_t2358977238_CustomAttributesCacheGeneratorP21CustomAttributesCache
lOa:__ZN9GfxDevice22UploadTextureCubeArrayE9TextureIDPKhjii14GraphicsFormati18TextureUploadFlags
sRh:__ZL87RuntimeArray_CustomAttributesCacheGenerator_Array_CreateInstance_m679102425____lengths1P21CustomAttributesCache
Joi:__ZL83Logger_t3328995178_CustomAttributesCacheGenerator_Logger_get_logHandler_m4190583509P21CustomAttributesCache
qPi:_AudioClip_get_length_m3881628918
Uyi:_Navigation_t1571958496_marshal_pinvoke
gfg:_Interpreter_GetLastDefined_m2450713313
yij:_Parser_ParseAssertionType_m3316669790
pWb:__ZN9ShaderLab7Program27CreateFromSerializedProgramERKNS_17SerializedProgramE10ShaderTypeiP16PropertyNamesSetPK6Shader
CDi:_Selectable_get_isPointerDown_m774209881
XQh:__ZL73Enum_t2459695545_CustomAttributesCacheGenerator_Enum_ToObject_m2460371738P21CustomAttributesCache
BXb:__ZNSt3__27__sort4IRNS_6__lessIN4core12basic_stringIcNS2_20StringStorageDefaultIcEEEES6_EEPS6_EEjT0_SA_SA_SA_T_
qSj:dynCall_viiiifii
Wed:__ZN6il2cpp2gc19AppendOnlyGCHashMapINSt3__24pairIPK11Il2CppImageP11Il2CppClassEEP22Il2CppReflectionModule17ReflectionMapHashIS9_ENS2_8equal_toIS9_EEEC2Ev
D2:__Z20GetPersistentManagerv
sKc:_UNITY_TT_Set_Var_Design
Q$i:_Context_Finalize_m1386439645
uda:__ZN21SystemInfoStringCache16StaticInitializeEPv
BZf:_TlsStream__ctor_m4117943603
rFi:_Text_FontTextureChanged_m4236993972
xud:__ZN6il2cpp2gc16GarbageCollector23MakeDescriptorForObjectEPji
eqd:__ZNK10KeyWrapperIP12Il2CppObjectE14EqualsComparerINSt3__28equal_toIS1_EEEclERKS2_S9_
hjh:_ParameterModifier_t1820634920_marshal_pinvoke
OBb:__ZNK13MonoBehaviour7GetNameEv
fkd:__ZN6il2cpp6icalls8mscorlib6System10Reflection8Assembly13get_code_baseEP24Il2CppReflectionAssemblyb
Fpd:__ZN15dense_hashtableI10KeyWrapperIP18Il2CppGenericClassES3_N6il2cpp8metadata22Il2CppGenericClassHashEN14dense_hash_setIS3_S6_NS3_14EqualsComparerINS5_25Il2CppGenericClassCompareEEENSt3__29allocatorIS3_EEE8IdentityESA_SD_E6insertERKS3_
oQ:__Z15_CheckFMODError11FMOD_RESULTPKciS1_
ATd:_AbstractEventData_Use_m1797212290
Klb:__Z20RenderMultipleMeshesRK15RenderNodeQueueRK18RenderMultipleData17ShaderChannelMask
ysi:__ZL150U3CDelayedDestroyDropdownListU3Ec__Iterator0_t3461999471_CustomAttributesCacheGenerator_U3CDelayedDestroyDropdownListU3Ec__Iterator0_Reset_m3485957852P21CustomAttributesCache
TFg:__Z199RuntimeInvoker_Void_t1841601450_ByteU2AU26_t3544685828_ByteU2AU26_t3544685828_DoubleU2AU26_t3349029_UInt16U2AU26_t1636670495_UInt16U2AU26_t1636670495_UInt16U2AU26_t1636670495_UInt16U2AU26_t1636670495PFvvEPK10MethodInfoPvPS4_
hii:__ZL135AnimatorControllerPlayable_t1744083903_CustomAttributesCacheGenerator_AnimatorControllerPlayable_INTERNAL_CALL_SetTriggerID_m1169129620P21CustomAttributesCache
R9c:__ZN6il2cpp2vm4Type19GetGenericParameterEPK10Il2CppType
zPc:__Z51Register_UnityEngine_CanvasGroup_get_blocksRaycastsv
xcj:_InternalEnumerator_1_get_Current_m2826780083_gshared
_$j:b119
c0i:_Context_UnregisterDynamicProperty_m4064851633
Juc:__ZN8JSONRead21TransferSTLStyleArrayI13dynamic_arrayI11ColorRGBA32Lj4EEEEvRT_18MemLabelIdentifier17TransferMetaFlags
_wi:__ZL105LayoutUtility_t4076838048_CustomAttributesCacheGenerator_LayoutUtility_U3CGetMinHeightU3Em__4_m1769295917P21CustomAttributesCache
hBf:_List_1_Contains_m2184078187_gshared
Kdj:_InternalEnumerator_1__ctor_m2782443954_AdjustorThunk
Ad:_glBeginQuery
C7g:_Assembly_GetCustomAttributes_m95309865
_kh:_GUILayoutUtility_INTERNAL_CALL_Internal_GetWindowRect_m3236664463
GVa:__ZN6Camera12RenderStereoENS_10RenderFlagE8CullFlagPNS_24PerformEyeRenderFunctionE
tea:__ZN20LocalFileSystemPosix10ToAbsoluteEPKc
T4d:_GridLayoutGroup__ctor_m1099847132
Qwd:__ZN6il2cpp2vm13ComObjectBase16DisconnectObjectEj
OAe:_Enum_ToObject_m275924358
Dm:f0
pp:__ZN6Object17MainThreadCleanupEv
Yie:_ArrayListWrapper_set_Capacity_m2792463350
$kb:__Z32TransferEnumWithNameForceIntSizeI14SafeBinaryRead7HDRModeEvRT_RT0_PKc17TransferMetaFlags
MNj:_getcwd
ftg:_StringBuilder_Append_m1128243247
ijj:_AnchorInfo_get_Offset_m142119297
oKi:_AnimatorControllerPlayable_GetBool_m3606320557
Pfb:__ZN25ThreadsafeLinearAllocatorD2Ev
yOe:_Array_InternalArray__set_Item_TisVector4_t2243707581_m3878172417_gshared
Bga:__Z21SendMessageToEveryoneRK17MessageIdentifier11MessageData
Znh:_GUISkin_get_settings_m626844463
D8:__ZN21BillboardBatchManager16StaticInitializeEPv
boh:_Object_get_name_m2079638459
x$:__ZN12_GLOBAL__N_138ArchiveRedirectFileSystemStaticDestroyEPv
ixj:_InvokableCall_1_add_Delegate_m3048312905_gshared
nBe:_EventHandler_Invoke_m1137722757
eob:__ZN12CubemapArray34UpdateFileTextureUploadInstructionEP26FileAssetUploadInstructionj
g9e:_MonoType_IsSubclassOf_m2211166238
Bjh:_TypeFilter_EndInvoke_m997625354
eHf:_Collection_1_System_Collections_ICollection_CopyTo_m2859266050_gshared
dLa:__Z23CreateSparseTextureGLES9TextureIDii14GraphicsFormati
Vej:_Comparer_1__ctor_m2876014041_gshared
q0e:_InvalidCastException__ctor_m2730571470
Bdg:_X509ChainElementCollection_System_Collections_IEnumerable_GetEnumerator_m2559704689
u7h:__ZL86BigInteger_t925946153_CustomAttributesCacheGenerator_BigInteger_op_Implicit_m622924526P21CustomAttributesCache
hsi:__ZL59Dropdown_t1985816271_CustomAttributesCacheGenerator_m_ValueP21CustomAttributesCache
Ofg:_InterpreterFactory_set_Gap_m2761943153
Rag:_PublicKey_get_Key_m126090744
azc:__ZNSt3__23mapIN20TextRenderingPrivate7FontRefEP11FT_FaceRec_NS_4lessIS2_EENS_9allocatorINS_4pairIKS2_S4_EEEEEixERS9_
IPa:__ZN17ArchiveFileSystem10AddStorageEP20ArchiveStorageReader
LTi:_Color_Equals_m661618137
mTi:_CanvasRenderer_SplitIndicesStreamsInternal_m817541557
s3c:__ZN6il2cpp2vm13MetadataCache37GetParameterDefaultValueDataFromIndexEi
VMh:_EqualityComparer_1_System_Collections_IEqualityComparer_GetHashCode_m1203798961_gshared
pli:__ZL89GUIStyle_t1799908754_CustomAttributesCacheGenerator_GUIStyle_AssignRectOffset_m2998103580P21CustomAttributesCache
CYc:__ZN6il2cpp2vm5Class15GetEnumBaseTypeEP11Il2CppClass
G1e:_DirectoryNotFoundException__ctor_m3713860966
Nob:__ZNK9Texture2D16GetNpotTexelSizeEv
n6i:_InternalEnumerator_1__ctor_m245588437_gshared
reg:_Capture_get_Text_m3472127896
Zxi:_Mask_get_rectTransform_m3304369086
Osj:_TooltipAttribute__ctor_m2640804852
NYg:__Z78RuntimeInvoker_Void_t1841601450_ScriptableRenderContext_t4271526_RuntimeObjectPFvvEPK10MethodInfoPvPS4_
eHa:__ZN9GfxDevice22GetDefaultVertexBufferE26GfxDefaultVertexBufferTypej
GFf:_Collection_1__ctor_m3903788797_gshared
EPf:_ReadOnlyCollection_1_System_Collections_ICollection_CopyTo_m1129689124_gshared
cOj:___fseeko_unlocked
wYj:_glGetActiveUniform__wrapper
WNj:_sscanf
oKf:_Collection_1_Contains_m1999290510_gshared
zvb:__ZN14SafeBinaryRead21TransferSTLStyleArrayINSt3__26vectorI17BlendShapeChannelNS1_9allocatorIS3_EEEEEEvRT_17TransferMetaFlags
Roa:__Z17BeginSplashScreenv
AVb:__ZN9ShaderLab16SerializedShader8TransferI19StreamedBinaryWriteILb0EEEEvRT_
TAg:_UInt32_Parse_m2400360707
tC:__ZN7mecanim9animation18CreateAvatarMemoryEPKNS0_14AvatarConstantERNS_6memory9AllocatorE
Foe:_Stack_Pop_m3788808882
BAh:_Enumerator_VerifyCurrent_m4246196125_AdjustorThunk
yJh:_Dictionary_2_pick_value_m3484897877_gshared
Dve:_DateTime_op_Equality_m1867073872
lB:__ZN7mecanim8skeleton16SkeletonPoseCopyIN4math4trsXENS2_7affineXEEEvPKNS0_13SkeletonPoseTIT_EEPNS5_IT0_EE
Gtf:_List_1_CopyTo_m1916701891_gshared
dMb:__Z18Transfer_BlittableI19StreamedBinaryWriteILb0EELb0EaEvRK29SerializationCommandArgumentsR31RuntimeSerializationCommandInfo
LGa:__ZN18GfxFramebufferGLES18GetFramebufferNameERK20GfxRenderTargetSetup
nmd:__ZN6il2cpp6icalls8mscorlib6System2IO6MonoIO11GetFileTypeE12Il2CppIntPtrPi
dmc:__Z30Event_Get_Custom_PropCharacterP12Il2CppObject
faa:__ZN13PlayableGraph27SchedulePlayableDestructionERK9HPlayable
EVj:_glGetFramebufferAttachmentParameteriv__wrapper
Tgi:__ZL145AnimatorControllerPlayable_t1744083903_CustomAttributesCacheGenerator_AnimatorControllerPlayable_INTERNAL_CALL_IsInTransitionInternal_m3428375524P21CustomAttributesCache
nVc:__Z13RegisterClassI20UnityConnectSettingsEvv
YFb:__Z22scripting_array_length17ScriptingArrayPtr
SMd:_SecurityElement_GetAttribute_m4288291176
amj:_UriParser_get_DefaultPort_m1377931533
bAj:_IndexedSet_1_get_Count_m2839545138_gshared
Uva:__ZN14SafeBinaryRead20TransferTypelessDataEjPvi
vXi:_RenderPipelineManager_get_currentPipeline_m679160301
MXh:__ZL66StringFreezingAttribute_t2691375565_CustomAttributesCacheGeneratorP21CustomAttributesCache
Spc:__ZN9rapidjson13GenericReaderINS_4UTF8IcEES2_13JSONAllocatorE10ParseFalseILj1ENS_25GenericInsituStringStreamIS2_EENS_15GenericDocumentIS2_S3_S3_EEEEvRT0_RT1_
bIi:_AnimationClipPlayable_INTERNAL_CALL_SetApplyFootIKInternal_m4116451205
mxf:_List_1_AddCollection_m3284813601_gshared
KEc:_Horizontal_Sweep_Init
Gvi:__ZL102ToggleGroup_t1030026315_CustomAttributesCacheGenerator_ToggleGroup_U3CActiveTogglesU3Em__1_m4052653494P21CustomAttributesCache
HP:__ZN13dynamic_arrayI12SoundChannelLj4EE9push_backERKS0_
l0:__Z19GetActiveColorSpacev
mNh:_EqualityComparer_1__cctor_m1672307556_gshared
tjg:_SoapTypeAttribute_get_IsInteropXmlElement_m2941294827
Gxb:__ZN14SpriteRenderer18UpdateCachedSpriteEv
Rof:_Enumerator_System_Collections_IEnumerator_get_Current_m3542273247_gshared
nhe:_Char_System_IConvertible_ToUInt32_m1557991717_AdjustorThunk
jsg:_Encoding_get_UTF8Unmarked_m628720656
bVe:_NumberFormatter_RoundBits_m1545255255
U0:__Z6StrCmpPKcS0_
yMg:__Z119RuntimeInvoker_Void_t1841601450_RuntimeObject_Int64U26_t763825331_ObjectU26_t597476745_SerializationInfoU26_t4051840202PFvvEPK10MethodInfoPvPS4_
ZWb:__Z21CheckGpuProgramUsable20ShaderGpuProgramType
x8g:_Binder__cctor_m3736115807
Ptd:__ZN6il2cpp2os9Directory20GetFileSystemEntriesERKNSt3__212basic_stringIcNS2_11char_traitsIcEENS2_9allocatorIcEEEESA_iiPi
b1g:__Z84RuntimeInvoker_Int32_t2071877448_Color32_t874517518_Color32_t874517518_RuntimeObjectPFvvEPK10MethodInfoPvPS4_
aYc:__ZN30dense_hashtable_const_iteratorINSt3__24pairIK10KeyWrapperIPK22Il2CppGenericParameterEP11Il2CppClassEES6_N6il2cpp5utils11PointerHashIS4_EEN14dense_hash_mapIS6_S9_SE_NS6_14EqualsComparerINS0_8equal_toIS5_EEEENS0_9allocatorISA_EEE9SelectKeyESJ_SL_EppEv
vKh:_Dictionary_2_OnDeserialization_m2160537783_gshared
Ide:_Attribute_GetHashCode_m2653962112
$xc:__ZN20TextRenderingPrivate19NativeTextGenerator5SetupEv
F1i:_AsyncResult_GetReplyMessage_m262842621
fnf:_Enumerator__ctor_m3021143890_AdjustorThunk
Izb:__ZN12AspectRatios8TransferI18StreamedBinaryReadILb0EEEEvRT_
ATh:__ZL66X509ExtensionCollection_t1640144839_CustomAttributesCacheGeneratorP21CustomAttributesCache
Y3b:__ZN10GameObject14CopyPropertiesERS_
goc:__Z44Register_UnityEngine_GUIStyle_get_fixedWidthv
wJd:_RSACryptoServiceProvider_Common_m2581564813
ntd:__ZNSt3__214__split_bufferIN6il2cpp2os10ThreadImpl10APCRequestERNS_9allocatorIS4_EEEC2EjjS7_
XLi:_AnimatorControllerPlayable_INTERNAL_CALL_GetCurrentAnimatorClipInfoInternal_m3360626147
L3e:_MemoryStream_CheckIfClosedThrowDisposed_m2253054610
d3i:_ArrayReadOnlyList_1_GetEnumerator_m634288642_gshared
wbb:__ZNK13ScreenManager12IsFullScreenEv
xOj:_rand
fWj:_emscripten_glFramebufferRenderbuffer__wrapper
hYg:__Z72RuntimeInvoker_Boolean_t3825574718_Ray_t2469606224_SingleU26_t4173844468PFvvEPK10MethodInfoPvPS4_
JSf:_ReadOnlyCollection_1_GetEnumerator_m2481390116_gshared
SJg:__Z77RuntimeInvoker_Void_t1841601450_RuntimeObject_Int32_t2071877448_RuntimeObjectPFvvEPK10MethodInfoPvPS4_
MGb:__ZN14SafeBinaryRead21TransferSTLStyleArrayINSt3__26vectorI17AnimationCurveTplIfE13stl_allocatorIS4_L18MemLabelIdentifier1ELi16EEEEEEvRT_17TransferMetaFlags
Bbc:__Z60Register_UnityEngine_AsyncOperation_set_allowSceneActivationv
bdd:__ZN15dense_hashtableINSt3__24pairIK10KeyWrapperINS1_IPK11Il2CppImageP11Il2CppClassEEEjEES9_17ReflectionMapHashIS8_EN14dense_hash_mapIS9_jSD_NS9_14EqualsComparerINS0_8equal_toIS8_EEEENS0_9allocatorISB_EEE9SelectKeyESI_SK_E12expand_arrayEjN21dense_hash_map_traits17integral_constantIbLb0EEE
kmg:_ObjectManager_RegisterObject_m872610295
c5a:__Z22PrepareOptimizedPlanesPK5PlaneiPKN4math7_float4E
Wyh:_RectOffset_t3387826427_marshal_pinvoke
H3d:_Graphic_SetVerticesDirty_m1607014370
RY:__ZN11UnityEngine15CloudWebService17WebFileDownloaderINS0_20WebRequestRestClientENS0_23WebRequestRestHeaderMapEE10InitializeERKN4core12basic_stringIcNS5_20StringStorageDefaultIcEEEE
B8:__ZN17UniqueIDGenerator15CreatePureIndexEv
CXg:__Z58RuntimeInvoker_Void_t1841601450_Int32_t2071877448_IntPtr_tPFvvEPK10MethodInfoPvPS4_
Coc:__Z59Register_UnityEngine_GUIStyle_Internal_GetCursorFlashOffsetv
ds:__ZN11UnityEngine9Animation28GenericAnimationBindingCache15DidReloadDomainEv
flf:_AppDomain_InternalGetProcessGuid_m1278588156
W8d:_InputField_MoveRight_m386206014
cne:_HashValues_get_Count_m234926373
_Hg:__Z116RuntimeInvoker_Boolean_t3825574718_RuntimeObject_Int32_t2071877448_RuntimeObject_Int32_t2071877448_Int32_t2071877448PFvvEPK10MethodInfoPvPS4_
M0e:_BinaryReader_ReadBoolean_m2892291883
RXc:__ZN15dense_hashtableINSt3__24pairIK10KeyWrapperIPK22Il2CppGenericParameterEP11Il2CppClassEES6_N6il2cpp5utils11PointerHashIS4_EEN14dense_hash_mapIS6_S9_SE_NS6_14EqualsComparerINS0_8equal_toIS5_EEEENS0_9allocatorISA_EEE9SelectKeyESJ_SL_E14squash_deletedEv
uAb:__ZNSt3__26__treeINS_12__value_typeIN4core12basic_stringIcNS2_20StringStorageDefaultIcEEEE4PPtrI6ObjectEEENS_19__map_value_compareIS6_SA_NS_4lessIS6_EELb1EEE13stl_allocatorISA_L18MemLabelIdentifier51ELi16EEE7destroyEPNS_11__tree_nodeISA_PvEE
mXg:__Z139RuntimeInvoker_Void_t1841601450_IntPtr_t_Rect_t3681755626_RuntimeObject_SByte_t454417549_SByte_t454417549_SByte_t454417549_SByte_t454417549PFvvEPK10MethodInfoPvPS4_
Jjd:__ZN6il2cpp6icalls8mscorlib6System9Threading6Thread22CurrentThread_internalEv
jkc:__Z14GUIClipTextureP9Texture2DPhiiii
L4i:_InternalEnumerator_1_Dispose_m1064404287_AdjustorThunk
mJa:__ZNSt3__26vectorI27ComputeShaderBuiltinSamplerNS_9allocatorIS1_EEE21__push_back_slow_pathIKS1_EEvRT_
z1f:_TlsServerCertificate_validateCertificates_m1988583701
tWg:__Z78RuntimeInvoker_Boolean_t3825574718_PlayableHandleU26_t4210769902_RuntimeObjectPFvvEPK10MethodInfoPvPS4_
QSh:__ZL61DllImportAttribute_t3000813225_CustomAttributesCacheGeneratorP21CustomAttributesCache
AGg:__Z66RuntimeInvoker_Int32_t2071877448_RuntimeObject_Int32U26_t455636984PFvvEPK10MethodInfoPvPS4_
IHj:__ZL25UnresolvedVirtualCall_143P12Il2CppObjectaaPK10MethodInfo
B0:__ZNK9Transform18TransformDirectionERK8Vector3f
PSa:__ZNK17ArchiveFileSystem12GetAssetGUIDERK13FileEntryData
QWb:__ZNSt3__26vectorIN9ShaderLab20SerializedSubProgram15MatrixParameterENS_9allocatorIS3_EEE21__push_back_slow_pathIKS3_EEvRT_
Llh:_GUILayoutEntry_SetHorizontal_m1828181654
i$j:_emscripten_glClearStencil__wrapper
JNh:_EqualityComparer_1_get_Default_m1852501307_gshared
d2c:__ZN15dense_hashtableINSt3__24pairIK10KeyWrapperIPK11Il2CppClassEPKcEES6_N6il2cpp5utils11PointerHashIS3_EEN14dense_hash_mapIS6_S9_SE_NS6_14EqualsComparerINS0_8equal_toIS5_EEEENS0_9allocatorISA_EEE9SelectKeyESJ_SL_E12resize_deltaEjj
gQj:__ZNK10__cxxabiv120__si_class_type_info27has_unambiguous_public_baseEPNS_19__dynamic_cast_infoEPvi
NWe:_NumberFormatInfo_get_PercentNegativePattern_m1162448153
iUh:__ZL56SyncHashtable_t1343674558_CustomAttributesCacheGeneratorP21CustomAttributesCache
QTj:_glTexSubImage3D__wrapper
Deg:_FactoryCache_Add_m2602974721
dHa:__Z30AddDefaultStreamsToMeshBuffersR9GfxDeviceR11MeshBuffersj17ShaderChannelMaskS3_
z7:__ZL16GetInterfaceImpl18UnityInterfaceGUID
YWe:_RegionInfo_construct_internal_region_from_name_m3316088619
VYc:__ZN6il2cpp2vmL17SetupFieldOffsetsENS0_15FieldLayoutKindEP11Il2CppClassjRKNSt3__26vectorIjNS4_9allocatorIjEEEE
aGf:_Collection_1_GetEnumerator_m2816357893_gshared
dfi:__ZL105RectTransform_t3349966182_CustomAttributesCacheGenerator_RectTransform_INTERNAL_get_anchorMin_m3180545469P21CustomAttributesCache
Eqf:_List_1_System_Collections_IList_get_Item_m936612973_gshared
Fwd:__ZN6il2cpp6icalls8mscorlib6System15MonoCustomAttrs27GetCustomAttributesInternalEP12Il2CppObjectP20Il2CppReflectionTypeb
AKc:_UNITY_TT_Set_MM_Blend
umg:_ObjectReader_ReadAssembly_m869834280
Qra:__ZN14PreloadManager35WaitForAllAsyncOperationsToCompleteEv
bSf:_ReadOnlyCollection_1_System_Collections_IList_get_Item_m1831743662_gshared
qLf:_Collection_1_IsSynchronized_m971497175_gshared
_Vd:_ExecuteEvents_Execute_m1617536317
oFi:_Text_get_cachedTextGeneratorForLayout_m1357670532
EK:__ZL31InitializeAudioScriptingClassesv
ZXa:__Z14SortGUIByDepthP10GUIElementS0_
KZe:_NumberFormatter_NumberToString_m126384393
IXj:_emscripten_glVertexAttrib4fv__wrapper
F7:__ZN13RuntimeStaticI13dynamic_arrayIPK31TransferFunctionScriptingTraitsLj4EELb0EE16StaticInitializeEPv
Mgg:_LogicalCallContext__ctor_m3173272863
UB:__ZN12_GLOBAL__N_120ProcessRootMotionMixER33AnimationPlayableEvaluationOutputR35AnimationPlayableEvaluationConstantR32AnimationPlayableEvaluationInputS1_f
U7e:_MonoCustomAttrs__cctor_m2608447972
xZe:_Int32_FindSign_m3803672540
iBh:_Enumerator_System_Collections_IEnumerator_Reset_m70453843_AdjustorThunk
Vnh:_GUISkin_get_scrollView_m2941173958
d$g:__Z95RuntimeInvoker_Void_t1841601450_ObjectU5BU5DU26_t3223402458_Int32_t2071877448_Int32_t2071877448PFvvEPK10MethodInfoPvPS4_
dfa:__ZNK20LocalFileSystemPosix21GetAvailableDiskSpaceEPKcRy
xda:__ZNSt3__26__treeIiNS_4lessIiEENS_9allocatorIiEEE7destroyEPNS_11__tree_nodeIiPvEE
Owj:_Predicate_1__ctor_m2995226103_gshared
rZf:_CipherSuite_InitializeCipher_m229247572
MAa:__ZNK9GfxDevice14GetWorldMatrixEv
yih:_MonoProperty_GetGetMethod_m1100580870
$Ih:_Dictionary_2__ctor_m1950568359_gshared
Avd:__ZN15dense_hashtableINSt3__24pairIK10KeyWrapperIPK19Il2CppGenericMethodEP10MethodInfoEES6_N6il2cpp8metadata23Il2CppGenericMethodHashEN14dense_hash_mapIS6_S9_SD_NS6_14EqualsComparerINSC_26Il2CppGenericMethodCompareEEENS0_9allocatorISA_EEE9SelectKeyESH_SJ_E13set_empty_keyERKSA_
q7a:__Z19scripting_array_new17ScriptingClassPtrjj
vP:__ZN11SoundHandle13CreateChannelEb
VLg:__Z90RuntimeInvoker_Void_t1841601450_IntPtr_t_Int32_t2071877448_RuntimeObject_Int32_t2071877448PFvvEPK10MethodInfoPvPS4_
aqb:__ZN14SafeBinaryRead21TransferSTLStyleArrayI13dynamic_arrayI12LightmapDataLj4EEEEvRT_17TransferMetaFlags
zlf:_ArgumentException__ctor_m3312963299
aUb:__ZNSt3__26vectorIN9ShaderLab20SerializedSubProgram16TextureParameterENS_9allocatorIS3_EEE6assignIPS3_EENS_9enable_ifIXaasr21__is_forward_iteratorIT_EE5valuesr16is_constructibleIS3_NS_15iterator_traitsISA_E9referenceEEE5valueEvE4typeESA_SA_
cRf:_ReadOnlyCollection_1_get_Item_m1696267180_gshared
J0c:__ZN13Il2CppHashMapIN6il2cpp5utils13dynamic_arrayIPK10Il2CppTypeLj4EEEPFvvENS0_8metadata19Il2CppSignatureHashENS9_22Il2CppSignatureCompareENSt3__29allocatorINSC_4pairIK10KeyWrapperIS6_ES8_EEEEEC2EjRKSA_RKSB_
ZKj:_U3CCreateWhereIteratorU3Ec__Iterator1D_1_MoveNext_m3533253043_gshared
Cfd:__ZN15dense_hashtableINSt3__24pairIK10KeyWrapperIPK22Il2CppGenericParameterEPK24MonoGenericParameterInfoEES6_N6il2cpp5utils11PointerHashIS4_EEN14dense_hash_mapIS6_SA_SF_NS6_14EqualsComparerINS0_8equal_toIS5_EEEENS0_9allocatorISB_EEE9SelectKeyESK_SM_E15set_deleted_keyERKSB_
Mhi:__ZL113AnimatorControllerPlayable_t1744083903_CustomAttributesCacheGenerator_AnimatorControllerPlayable_Play_m1490151611P21CustomAttributesCache
b7i:_InternalEnumerator_1_System_Collections_IEnumerator_Reset_m2726857860_AdjustorThunk
FYb:__ZN6prcoreL11inner_clearILj2EEEvPhjjj
wki:__ZL124GUILayoutUtility_t996096873_CustomAttributesCacheGenerator_GUILayoutUtility_INTERNAL_CALL_Internal_GetWindowRect_m3236664463P21CustomAttributesCache
geg:_X509SubjectKeyIdentifierExtension__ctor_m3887138480
Zmf:_Enumerator_System_Collections_IEnumerator_get_Current_m2853089017_AdjustorThunk
Ng:_emscripten_exit_fullscreen
U6d:_InputField_get_mesh_m3276583786
qZi:_GCHandle_Free_m1639542352_AdjustorThunk
j0f:_Context_set_ClientRandom_m631392719
HZi:_OutAttribute__ctor_m1447235100
Bsd:__ZN6il2cpp6icalls8mscorlib6System6String19InternalAllocateStrEi
fvc:__Z29Transfer_Blittable_ArrayFieldI8JSONRead11QuaternionfEvRT_R9ArrayInfoRK23StaticTransferFieldInfo
PZh:__ZL65SoapParameterAttribute_t2780084514_CustomAttributesCacheGeneratorP21CustomAttributesCache
Gea:__ZN20LocalFileSystemPosix8SetFlagsER13FileEntryDatajj
pcc:__Z45Register_UnityEngine_Camera_get_targetDisplayv
e2b:__ZNK24RendererAnimationBinding15GenerateBindingERKN4core12basic_stringIcNS0_20StringStorageDefaultIcEEEEbRN11UnityEngine9Animation14GenericBindingE
Pkb:__Z15GetFlareManagerv
xZb:__ZN15ApplicationInfo24GetApplicationIdentifierEv
OQf:_ReadOnlyCollection_1_System_Collections_IList_Contains_m927375828_gshared
Igb:__ZN9Behaviour8TransferI18StreamedBinaryReadILb0EEEEvRT_
Egj:_Enumerator_System_Collections_IEnumerator_get_Current_m1429268283
lNf:_ReadOnlyCollection_1_System_Collections_Generic_ICollectionU3CTU3E_Clear_m388357963_gshared
wMj:___toread
CY:__ZN19CloudServiceHandler10QueueEventEPN11UnityEngine15CloudWebService14CloudEventInfoE
JQj:___cxa_is_pointer_type
MRd:_String_Concat_m56707527
WB:__ZN7mecanim9animation16EvaluateAvatarDXEPKNS0_14AvatarConstantEPKNS0_11AvatarInputEPNS0_12AvatarMemoryEPNS0_15AvatarWorkspaceEPNS0_12AvatarOutputE
sKa:__ZN4gles20DestroyRenderSurfaceEP7ApiGLESP17RenderSurfaceGLES
Ymf:_Enumerator_System_Collections_IEnumerator_get_Current_m2853089017_gshared
Uic:__Z34Transform_CUSTOM_SetAsFirstSiblingP12Il2CppObject
wad:__ZNK15dense_hashtableINSt3__24pairIK10KeyWrapperINS1_IPK14Il2CppAssemblyP11Il2CppClassEEEjEES9_17ReflectionMapHashIS8_EN14dense_hash_mapIS9_jSD_NS9_14EqualsComparerINS0_8equal_toIS8_EEEENS0_9allocatorISB_EEE9SelectKeyESI_SK_E10test_emptyEj
gpf:_Enumerator_get_Current_m827571811_AdjustorThunk
Qii:__ZL62Font_t4239498691_CustomAttributesCacheGenerator_textureRebuiltP21CustomAttributesCache
ooa:__ZN17PersistentManager40GlobalToLocalSerializedFileIndexInternalERK26SerializedObjectIdentifier
SV:__ZN11UnityEngine15CloudWebService17SessionEventQueue14ParseEventDataERKN4core12basic_stringIcNS2_20StringStorageDefaultIcEEEE
KTd:_BaseEventData_get_selectedObject_m3551206992
lcf:_SimpleCollator_CompareOrdinal_m2176988387
vni:__ZL47Rect_t3681755626_CustomAttributesCacheGeneratorP21CustomAttributesCache
aCe:_CCGregorianCalendar_GetYear_m1289900195
IZe:_Int16_ToString_m2592645088
pFa:__ZN13TranslateGLES4InitERK12GraphicsCaps16GfxDeviceLevelGL
tRb:__Z29Transfer_Blittable_ArrayFieldI18StreamedBinaryReadILb0EE10ColorRGBAfEvRT_R9ArrayInfoRK23StaticTransferFieldInfo
LT:__Z60AudioClipPlayable_CUSTOM_INTERNAL_CALL_GetPauseDelayInternalR9HPlayable
Tng:_SerializationInfoEnumerator_Reset_m2206466680
dWj:_emscripten_glGetShaderPrecisionFormat__wrapper
jki:__ZL78Event_t3028476042_CustomAttributesCacheGenerator_Event_get_keyCode_m3364681288P21CustomAttributesCache
mEj:_GenericEqualityComparer_1_Equals_m1934771410_gshared
tUh:__ZL57DebuggingModes_t2073970606_CustomAttributesCacheGeneratorP21CustomAttributesCache
LDd:__ZN6il2cpp5utils9Exception26FormatInvalidCastExceptionEPK11Il2CppClassS4_
$Hf:_Collection_1_System_Collections_IList_get_IsFixedSize_m993584401_gshared
gBb:__ZNSt3__26vectorIN30RuntimeInitializeOnLoadManager15ClassMethodInfoE13stl_allocatorIS2_L18MemLabelIdentifier12ELi16EEE8__appendEj
l0b:__ZN13ProduceHelperI10TagManagerLb0EE7ProduceE18MemLabelIdentifier18ObjectCreationMode
Baj:_InternalEnumerator_1__ctor_m691972083_gshared
fyd:__ZN6il2cpp8metadataL7CompareEPK10Il2CppTypeS3_
qIb:__Z18Transfer_BlittableI17RemapPPtrTransferLb0E11ColorRGBA32EvRK29SerializationCommandArgumentsR31RuntimeSerializationCommandInfo
Z9g:_TypeBuilder_get_is_created_m736553860
ikh:_GameObject_set_layer_m2712461877
YXf:_RSAManaged__ctor_m1370411656
vqd:__ZNSt3__218uninitialized_fillIPNS_4pairIK10KeyWrapperIP12Il2CppObjectEN6il2cpp2gc9CachedCCWEEESA_EEvT_SC_RKT0_
Ynb:__ZN12CubemapArray23VirtualRedirectTransferER17RemapPPtrTransfer
r9b:__ZL27GetComponentsImplementationILb0ELi0EEbR10GameObjectbRK17CompareParametersRK39GetComponentsImplementation_ReturnValue
x9f:_WebHeaderCollection_GetObjectData_m3940120977
vCb:__ZN9Scripting36IsSystemCollectionsGenericDictionaryE17ScriptingClassPtr
jAi:_Raycast3DCallback_EndInvoke_m3234280377
dXg:__Z34RuntimeInvoker_KeyCode_t2283395152PFvvEPK10MethodInfoPvPS4_
v0d:_ColorTweenCallback__ctor_m3619686788
z5:__ZL16ReadTypeTreeImplILb0EEbR8TypeTreeRK16TypeTreeIteratorRPKhS6_i
Lgc:__Z28PlayableOutputValidityChecksRK15HPlayableOutput
Px:__ZN27AnimationLayerMixerPlayable16SetLayerMaskCopyEjRKN7mecanim6bitsetILj70EEEPKNS0_8skeleton12SkeletonMaskE
vH:__Z104Register_UnityEngine_Animations_AnimatorControllerPlayable_INTERNAL_CALL_GetNextAnimatorClipInfoInternalv
Lmb:__ZNK22BuiltinResourceManager21GetResourceInstanceIDEPKN5Unity4TypeERKN4core12basic_stringIcNS4_20StringStorageDefaultIcEEEE
fDa:__ZN9GfxDevice15BeginFrameStatsEv
xdc:__Z42Register_UnityEngine_RectOffset_set_bottomv
gje:_ArrayListWrapper_IndexOf_m3574835167
Emc:__Z28GUIStyleState_CUSTOM_CleanupP12Il2CppObject
IF:__Z92Register_UnityEngine_Animations_AnimationClipPlayable_INTERNAL_CALL_GetAnimationClipInternalv
y_a:__ZN28LightProbeProxyVolumeContext8CopyFromERKS_
Qtf:_List_1_Remove_m2660527978_gshared
m_d:_U3COnFinishSubmitU3Ec__Iterator0_System_Collections_Generic_IEnumeratorU3CobjectU3E_get_Current_m1823105495
Aqh:_GUIUtility_TakeCapture_m3115231813
V6a:__ZN23TransformChangeDispatch32QueueTransformChangeIfHasChangedER18TransformHierarchy
pLd:_SymmetricAlgorithm_get_FeedbackSize_m544664262
s3a:__ZN18DeferredRenderLoop15RenderFinalPassEP13RenderTextureS1_
tKa:__ZN7ApiGLES18DeleteRenderbufferERj
hJa:__ZL23ProgramUniformMatrix4fvPK7ApiGLESjiihPKv
Uza:__ZN7ApiGLES13CreateTextureEjj14GraphicsFormatiiiii
n_g:__Z41RuntimeInvoker_SelectionState_t3187567897PFvvEPK10MethodInfoPvPS4_
abj:_InternalEnumerator_1_MoveNext_m3629145604_gshared
KTb:__ZN9ShaderLab20SerializedSubProgram15MatrixParameter8TransferI14SafeBinaryReadEEvRT_
GGg:__Z51RuntimeInvoker_Int32_t2071877448_Single_t2076509932PFvvEPK10MethodInfoPvPS4_
uZe:_Int32_Parse_m124693431
t9b:__ZL27GetComponentsImplementationILb0ELi1EEbR10GameObjectbRK17CompareParametersRK39GetComponentsImplementation_ReturnValue
CJc:_Round_Down_To_Grid
Vug:_UTF8Decoder__ctor_m1460357288
gka:__ZN13RenderTexture7ReleaseEv
Kwb:__ZN10MeshFilter23VirtualRedirectTransferER14SafeBinaryRead
ype:_Convert_ToByte_m1201588964
Uwb:__ZN12MeshRenderer17MainThreadCleanupEv
pbc:__Z36AsyncOperation_Get_Custom_PropIsDoneP12Il2CppObject
$Ma:__ZN22CreateGpuProgramOutput12CreateParamsEv
sog:_RuntimeMethodHandle_GetHashCode_m2682236001_AdjustorThunk
I2g:__Z54RuntimeInvoker_Void_t1841601450_UILineInfo_t3621277874PFvvEPK10MethodInfoPvPS4_
f9c:__ZNSt3__26vectorIiNS_9allocatorIiEEE21__push_back_slow_pathIiEEvOT_
qZg:__Z45RuntimeInvoker_HorizontalWrapMode_t2027154177PFvvEPK10MethodInfoPvPS4_
hFa:__ZNK14GfxContextGLES13GetDefaultFBOEv
oFe:_Array_InternalArray__ICollection_Remove_TisSByte_t454417549_m2474211570_gshared
nNd:_Evidence_get_IsSynchronized_m1427392003
Nga:__ZN14GraphicsHelper5ClearE13GfxClearFlagsRK10ColorRGBAffjR17ShaderPassContext
r6b:__Z13GetImagePixelI10ColorRGBAfET_PKhii13TextureFormat15TextureWrapModeS5_ii
t7c:_il2cpp_class_is_enum
cjd:__ZN6il2cpp2vm6Thread49CheckCurrentThreadForInterruptAndThrowIfNecessaryEv
pma:__ZNSt3__23mapIN9ShaderLab16FastPropertyNameEN18UnityPropertySheet11UnityTexEnvENS_4lessIS2_EENS_9allocatorINS_4pairIKS2_S4_EEEEEixERS9_
Vza:__ZNK13TranslateGLES25GetTextureTargetDimensionEj
Gbi:__ZL93Input_t1785128008_CustomAttributesCacheGenerator_Input_INTERNAL_get_mousePosition_m2302165941P21CustomAttributesCache
zNe:_Array_InternalArray__set_Item_TisByte_t3683104436_m1694926640_gshared
EIf:_Collection_1_System_Collections_IList_Contains_m1897568526_gshared
mch:_FieldBuilder_get_FieldType_m2267463269
qde:_SimpleEnumerator_Clone_m3032847657
rhj:_PatternCompiler_EmitInfo_m597931026
nVf:_ModulusRing_Multiply_m3113924743
kic:__Z47Texture2D_CUSTOM_INTERNAL_CALL_GetPixelBilinearP12Il2CppObjectffR10ColorRGBAf
gOc:__ZZN2UI6Canvas15InitializeClassEvEN39FunctorImpl_1413kCanvasHierarchyChanged4CallEPviR11MessageData
Y$f:_Context_get_ServerSettings_m225713600
Mi:_emscripten_glVertexAttrib4f
uUg:__Z40RuntimeInvoker_PlayableOutput_t988259697PFvvEPK10MethodInfoPvPS4_
Hxj:_InvokableCall_1_remove_Delegate_m3576859071_gshared
RMf:_ReadOnlyCollection_1_System_Collections_IEnumerable_GetEnumerator_m531171980_gshared
yWb:__ZNSt3__26vectorIN20GpuProgramParameters14ConstantBufferENS_9allocatorIS2_EEE8__appendEj
fQe:_Array_Sort_TisUILineInfo_t3621277874_m3105833015_gshared
C9e:_MonoType_GetGenericArguments_m2708198481
dZa:__ZN11HaloManager21ReleaseGeometryJobMemEP25DynamicVBOGeometryJobData
Kqf:_List_1_AddEnumerable_m2489692396_gshared
uZg:__Z51RuntimeInvoker_Color_t2020392075_Single_t2076509932PFvvEPK10MethodInfoPvPS4_
Iii:__ZL93TextGenerator_t647235000_CustomAttributesCacheGenerator_TextGenerator_Dispose_cpp_m1755131202P21CustomAttributesCache
mwj:_WaitForSecondsRealtime__ctor_m1734539010
mvg:_WaitHandle__ctor_m1256161634
$w:__ZN7mecanim12statemachine24CreateStateMachineMemoryEPKNS0_20StateMachineConstantERNS_6memory9AllocatorE
FEh:_Enumerator_get_Current_m419581838_AdjustorThunk
kDa:__ZN9GfxDevice18SetGlobalDepthBiasEff
k1i:_Identity_get_ChannelSink_m3989446673
I4c:__ZN6il2cpp6icalls8mscorlib6System8MonoType12get_AssemblyEP20Il2CppReflectionType
EZf:_TlsStream_Write_m3425460533
i3d:_FontData_get_richText_m2013560754
yOd:_SecurityException_get_PermissionType_m3543350822
Zi:_emscripten_glGetPointerv
LB:__ZN8Animator22ApplyBuiltinRootMotionEv
npd:__ZN15dense_hashtableI10KeyWrapperIP18Il2CppGenericClassES3_N6il2cpp8metadata22Il2CppGenericClassHashEN14dense_hash_setIS3_S6_NS3_14EqualsComparerINS5_25Il2CppGenericClassCompareEEENSt3__29allocatorIS3_EEE8IdentityESA_SD_E5clearEv
UEe:_Array_InternalArray__ICollection_Remove_TisKeyValuePair_2_t3716250094_m2566517826_gshared
$md:__ZN30dense_hashtable_const_iteratorINSt3__24pairIK10KeyWrapperIP14Il2CppIUnknownEjEES5_N6il2cpp5utils11PointerHashIS3_EEN14dense_hash_mapIS5_jSB_NS5_14EqualsComparerINS0_8equal_toIS4_EEEENS0_9allocatorIS7_EEE9SelectKeyESG_SI_EppEv
Xrb:__ZN8Renderer23VirtualRedirectTransferER14SafeBinaryRead
bbh:_DerivedType_get_UnderlyingSystemType_m3904230233
TWd:_PointerEventData_get_rawPointerPress_m448871540
GXa:__Z27ConvertSubMeshesToTrianglesR13dynamic_arrayI7SubMeshLj4EERS_ItLj2EE
jlc:__ZN5IMGUI14GUIWindowStateD2Ev
Xeb:__ZL13MotionHandleriPK27EmscriptenDeviceMotionEventPv
Kcg:_X509Certificate2Collection__ctor_m819526826
lK:__ZN12AudioManager5ResetEv
Q6g:__Z75RuntimeInvoker_RuntimeObject_Single_t2076509932_RuntimeObject_RuntimeObjectPFvvEPK10MethodInfoPvPS4_
AWf:_KeyBuilder_Key_m3814433741
Alf:_ArgumentException__ctor_m158205422
xIe:_Array_compare_TisVector3_t2243707580_m3709184876_gshared
x5d:_HorizontalLayoutGroup_SetLayoutHorizontal_m3237355818
vB:__ZN7mecanim5human14RetargetToTDoFEPKNS0_5HumanEPNS0_9HumanPoseEPNS_8skeleton13SkeletonPoseTIN4math4trsXEEESB_
HNf:_ReadOnlyCollection_1_Contains_m2306259645_gshared
pfd:__ZNK15dense_hashtableINSt3__24pairIK10KeyWrapperIPK14Il2CppAssemblyEPK22Il2CppMonoAssemblyNameEES6_N6il2cpp5utils11PointerHashIS4_EEN14dense_hash_mapIS6_SA_SF_NS6_14EqualsComparerINS0_8equal_toIS5_EEEENS0_9allocatorISB_EEE9SelectKeyESK_SM_E10test_emptyEj
Jud:__ZN6il2cpp6icalls8mscorlib6System11Environment20GetWindowsFolderPathEi
Hvi:__ZL60AspectRatioFitter_t3114550109_CustomAttributesCacheGeneratorP21CustomAttributesCache
Lv:__ZN7mecanim5human18HumanPoseBlendNodeERNS0_9HumanPoseEPS1_f
sFc:_UNITY_FT_RoundFix
HWb:__ZN9ShaderLab20SerializedSubProgram15AddTextureParamEPKcii16TextureDimension
N_c:__ZN15dense_hashtableINSt3__24pairIK10KeyWrapperIPKcEP11Il2CppClassEES5_N6il2cpp5utils11StringUtils12StringHasherIS4_EEN14dense_hash_mapIS5_S8_SE_NS5_14EqualsComparerINSB_13VmStringUtils21CaseSensitiveComparerEEENS0_9allocatorIS9_EEE9SelectKeyESJ_SL_E14squash_deletedEv
$Ef:__ZN21InterfaceFuncInvoker1Ib40CustomAttributeTypedArgument_t1498197914E6InvokeEjP11Il2CppClassP12Il2CppObjectS0_
OQ:__ZNK18AudioMixerPlayable11DerivesFromE17ScriptingClassPtr
slj:_Uri_get_Parser_m2250631932
KIc:_cff_parse_cid_ros
Wwb:__ZNK12MeshRenderer22GetTypeVirtualInternalEv
iWi:_Event_GetHashCode_m2214628668
_Tg:__Z36RuntimeInvoker_HideFlags_t1434274199PFvvEPK10MethodInfoPvPS4_
A3d:_Graphic_set_color_m646149893
nQi:_AudioMixerPlayable_CreateAudioMixerPlayableInternal_m167003040
XJh:_Dictionary_2_System_Collections_ICollection_get_IsSynchronized_m960517203_gshared
INj:_write
Ima:__ZN14SafeBinaryRead19TransferSTLStyleMapINSt3__23mapIN4core12basic_stringIcNS3_20StringStorageDefaultIcEEEES7_NS1_4lessIS7_EE13stl_allocatorINS1_4pairIKS7_S7_EEL18MemLabelIdentifier1ELi16EEEEEEvRT_17TransferMetaFlags
Wzg:_Type_MakeByRefType_m1323101575
MNc:__ZN2UI6Canvas27UpdateEventIndexesRecursiveERi
YV:__ZN11UnityEngine15CloudWebService16SessionContainer21PrepareDataErrorEventERN4core12basic_stringIcNS2_20StringStorageDefaultIcEEEE
tBc:_UNITY_FT_Outline_New
yvd:__ZNSt3__218uninitialized_copyIPNS_4pairIK10KeyWrapperIPK19Il2CppGenericMethodEP10MethodInfoEESB_EET0_T_SD_SC_
pki:__ZL85GUI_t4082743951_CustomAttributesCacheGenerator_GUI_set_nextScrollStepTime_m2724006954P21CustomAttributesCache
zMb:__Z19TransferField_ArrayI19StreamedBinaryWriteILb0EE27Converter_SimpleNativeClassI8GUIStyleEEvRK23StaticTransferFieldInfoR31RuntimeSerializationCommandInfoRT0_
E8h:__ZL101AssetBundleRequest_t2674559435_CustomAttributesCacheGenerator_AssetBundleRequest_get_asset_m624603186P21CustomAttributesCache
Sda:__ZNK13ScreenManager12GetIsFocusedEv
WMi:_AnimatorControllerPlayable_CrossFade_m1077061813_AdjustorThunk
Pkg:_RemotingServices_RegisterInternalChannels_m1827304423
zoh:_GUIStyle_get_onNormal_m1675201777
zr:__ZL32CleanupAnimationScriptingClassesv
Hsc:__Z35Transfer_Blittable_FixedBufferFieldI8JSONReadiEvRK29SerializationCommandArgumentsR31RuntimeSerializationCommandInfo
N3c:__ZNSt3__213__vector_baseIN6il2cpp2os19SocketHandleWrapperENS_9allocatorIS3_EEED2Ev
Ref:_ASN1_get_Length_m3359111015
Pnh:_GUISkin_get_verticalScrollbarThumb_m649633186
LTg:__Z66RuntimeInvoker_InternalShaderChannel_t3331827198_Int32_t2071877448PFvvEPK10MethodInfoPvPS4_
xqh:_GUIStyleState_Cleanup_m705006206
JQg:__Z77RuntimeInvoker_RuntimeObject_Int32_t2071877448_RuntimeObject_SByte_t454417549PFvvEPK10MethodInfoPvPS4_
lc:invoke_viiffi
Iv:__ZN7mecanim18ValueArrayBlendEndILb0EEEvPKNS_10ValueArrayERKNS_14ValueArrayMaskERKNS_16ValueArrayWeightERS1_
Fbb:__ZN13sorted_vectorINSt3__24pairIN4core12basic_stringIcNS2_20StringStorageDefaultIcEEEEPK17MessageIdentifierEEN10vector_mapIS6_S9_NS0_4lessIS6_EENS0_9allocatorISA_EEE13value_compareESF_E10insert_oneERKSA_
KB:__ZNSt3__227__insertion_sort_incompleteIRPFbPKN8Animator11AnimatorJobES4_EPS4_EEbT0_S9_T_
hwg:_Thread_GetCachedCurrentUICulture_m5590127
CUg:__Z36RuntimeInvoker_Matrix4x4_t2933234003PFvvEPK10MethodInfoPvPS4_
Vnb:__ZNK12CubemapArray20GetRuntimeMemorySizeEv
tvj:_Vector3_Dot_m3161182818
Z_i:_CrossAppDomainSink_get_TargetDomainId_m775204051
AUb:__Z14resize_trimmedINSt3__26vectorIN9ShaderLab18SerializedPropertyENS0_9allocatorIS3_EEEEEvRT_j
XHj:__ZL25UnresolvedVirtualCall_158P12Il2CppObject18Color32_t874517518PK10MethodInfo
nAf:_List_1_CheckMatch_m4018158235_gshared
Ocf:_Context_t2636657155_marshal_pinvoke_back
N1c:__ZN6il2cpp2vm13MetadataCache38GetMethodInfoFromMethodDefinitionIndexEi
Ife:_Byte_System_IConvertible_ToDateTime_m1583041031
agc:__Z39MonoBehaviour_CUSTOM_GetScriptClassNameP12Il2CppObject
stb:__ZN10VertexData8TransferI24GenerateTypeTreeTransferEEvRT_
Zji:__ZL98CanvasRenderer_t261436805_CustomAttributesCacheGenerator_CanvasRenderer_get_absoluteDepth_m4243141P21CustomAttributesCache
dvd:__ZN13Il2CppHashMapIPK19Il2CppGenericMethodP10MethodInfoN6il2cpp8metadata23Il2CppGenericMethodHashENS6_26Il2CppGenericMethodCompareENSt3__29allocatorINS9_4pairIK10KeyWrapperIS2_ES4_EEEEEC2EjRKS7_RKS8_
Iif:_EncryptedData_get_EncryptionAlgorithm_m1301274243
$ei:__ZL68DrivenTransformProperties_t2488747555_CustomAttributesCacheGeneratorP21CustomAttributesCache
G4a:__ZL10CullLightsRK22SceneCullingParametersR11CullResults
G2d:_Dropdown__cctor_m264401557
Jce:_Array_IndexOf_m2819632474
Ifj:_Comparer_1__cctor_m3996541505_gshared
Ww:__ZN7mecanim12statemachine20GetBlendTreeConstantERKNS0_13StateConstantEi
g5b:__Z40GetTemporaryCachePathApplicationSpecificv
tBa:__ZN9GfxDevice16EndAsyncJobFrameEv
F6d:_Image_get_minWidth_m1809071077
Ndd:__ZNK15dense_hashtableINSt3__24pairIK10KeyWrapperINS1_IPK12PropertyInfoP11Il2CppClassEEEjEES9_17ReflectionMapHashIS8_EN14dense_hash_mapIS9_jSD_NS9_14EqualsComparerINS0_8equal_toIS8_EEEENS0_9allocatorISB_EEE9SelectKeyESI_SK_E10test_emptyERK30dense_hashtable_const_iteratorISB_S9_SD_SM_SI_SK_E
nCc:_UNITY_tt_face_load_hhea
R0i:_ContextAttribute_IsNewContextOK_m2186905629
QWi:_PersistentCall__ctor_m2079279187
Yoe:_Convert_ToBase64String_m1936815455
Sk:___syscall3
Vk:___syscall6
NCa:__ZN9GfxDevice15GetNextCPUFenceEv
Xk:___syscall4
s5h:__ZL49Random_t1044426839_CustomAttributesCacheGeneratorP21CustomAttributesCache
Oxe:_Decimal_ToString_m759431975
vJf:_Collection_1_System_Collections_IList_get_IsFixedSize_m2204750039_gshared
kHj:__ZL25UnresolvedVirtualCall_119P12Il2CppObjectiaPK10MethodInfo
l_d:_ColorBlock_get_fadeDuration_m987725262
Uti:__ZL195U3CMouseDragOutsideRectU3Ec__Iterator1_t2599668326_CustomAttributesCacheGenerator_U3CMouseDragOutsideRectU3Ec__Iterator1_System_Collections_Generic_IEnumeratorU3CobjectU3E_get_Current_m2602955272P21CustomAttributesCache
Kqd:__ZN6il2cpp2vm3RCW14QueryInterfaceILb1EEEP14Il2CppIUnknownP15Il2CppComObjectRK10Il2CppGuid
Hpg:_CryptographicException__ctor_m2415891459
vuf:_List_1_AddCollection_m3266731889_gshared
F9b:__ZN9Scripting25BroadcastScriptingMessageER10GameObjectPKc18ScriptingObjectPtr
ll:_emscripten_glShaderBinary
WFf:_Collection_1_System_Collections_IList_set_Item_m150887383_gshared
UOe:_Array_qsort_TisVector2_t2243707579_TisVector2_t2243707579_m3308480721_gshared
jX:__ZN15DownloadHandler19OnFinishReceiveDataEv
gSi:_Camera_INTERNAL_CALL_RaycastTry_m1030092423
Tea:__ZNK20LocalFileSystemPosix6ExistsERK13FileEntryData
b8i:_InternalEnumerator_1_Dispose_m4038440306_AdjustorThunk
NPg:__Z21RuntimeInvoker_Guid_tPFvvEPK10MethodInfoPvPS4_
B6f:_DictionaryNodeEnumerator_get_DictionaryNode_m3521889822
_t:__ZN7mecanim5human19MaskHasLeftFootGoalERKNS_6bitsetILj70EEE
o1g:__Z101RuntimeInvoker_Int32_t2071877448_RuntimeObject_Color32_t874517518_Int32_t2071877448_Int32_t2071877448PFvvEPK10MethodInfoPvPS4_
tth:_Mesh_get_colors32_m4153271224
hRc:__Z58Register_UnityEngine_Canvas_GetETC1SupportedCanvasMaterialv
MOb:__ZN17AnimationCurveTplIfE8TransferI18StreamedBinaryReadILb1EEEEvRT_
Yve:_DateTimeOffset_GetHashCode_m3312197462_AdjustorThunk
cTc:__ZN18UnityConnectClientD2Ev
d9f:_ServicePoint_set_UseNagleAlgorithm_m2618011464
L6c:_il2cpp_set_data_dir
nlj:_Uri_get_IsUnc_m2111738174
p4h:__ZL79Convert_t2607082565_CustomAttributesCacheGenerator_Convert_ToUInt64_m1691869628P21CustomAttributesCache
cib:__ZN16LevelGameManager23VirtualRedirectTransferER19StreamedBinaryWriteILb0EE
ntb:__Z32TransferEnumWithNameForceIntSizeI14SafeBinaryRead16GfxPrimitiveTypeEvRT_RT0_PKc17TransferMetaFlags
qej:_DefaultComparer__ctor_m1961329658_gshared
Sod:__ZNSt3__26__treeINS_12__value_typeIP24Il2CppReflectionAssemblyPvEENS_19__map_value_compareIS3_S5_NS_4lessIS3_EELb1EEENS_9allocatorIS5_EEE12__find_equalIS3_EERPNS_16__tree_node_baseIS4_EESH_RKT_
w$g:__Z66RuntimeInvoker_Void_t1841601450_ObjectU26_t597476745_RuntimeObjectPFvvEPK10MethodInfoPvPS4_
dtj:_TouchScreenKeyboard_get_done_m406461410
grj:_DataUtility_INTERNAL_CALL_GetPadding_m1621366113
tnh:_GUISkin_get_toggle_m4153935270
xIj:__ZL25UnresolvedVirtualCall_186P12Il2CppObject20TimeSpan_t3430258949PK10MethodInfo
afh:_TypeBuilder_IsValueTypeImpl_m1499671481
nSc:__ZN11UnityEngine15PlatformWrapper30GetGraphicsDriverLibraryStringEv
tCh:_Enumerator_VerifyState_m262343092_AdjustorThunk
Iuj:_Vector2_ToString_m775491729
Xuf:_List_1_get_Count_m1752597149_gshared
IXf:_EncryptedPrivateKeyInfo_Decode_m1706190306
RPb:__Z18Transfer_BlittableI18StreamedBinaryReadILb0EELb0E4AABBEvRK29SerializationCommandArgumentsR31RuntimeSerializationCommandInfo
zD:__ZN16MecanimAnimation24DeleteAnimatedPropertiesERP26IAnimatedPropertyEvaluator
VMg:__Z42RuntimeInvoker_CspProviderFlags_t105264000PFvvEPK10MethodInfoPvPS4_
dte:_Convert_ToUInt16_m1665900934
yKj:_Converter_2_BeginInvoke_m898151494_gshared
VWe:_RegionInfo__ctor_m2058831971
fVa:__Z14DrawGUITextureRK5RectTIfEP7Texture11ColorRGBA32P8Materiali
vFi:_Text_get_supportRichText_m3291105891
Gzh:_RectTransform_GetParentSize_m1571597933
yA:__ZN9BlobWrite8TransferI22OffsetPtrArrayTransferIKN4math7_float4EEEEvRT_PKc17TransferMetaFlags
_9d:_LayoutElement_set_ignoreLayout_m1530090081
Dja:__ZN15TextureSettings8TransferI24GenerateTypeTreeTransferEEvRT_
Bgj:_MatchCollection_GetEnumerator_m3516985966
tsc:__ZN9JSONWrite8TransferI4AABBEEvRT_PKc17TransferMetaFlags
hsg:_UTF7Encoding__ctor_m2365939916
QQa:__ZN25MultiBlocksMemoryFileData9SetLengthEy
Rrj:_TextGenerationSettings_Equals_m3944651893_AdjustorThunk
$Ui:_DelegatePInvokeWrapper_StateChanged_t2480912210
oyi:_MatEntry__ctor_m3650167335
NAj:_ListPool_1_U3Cs_ListPoolU3Em__0_m441310157_gshared
Dob:__ZNK9Texture2D20GetRuntimeMemorySizeEv
aAg:_TypeInitializationException__ctor_m2993591639
ANh:_EqualityComparer_1__ctor_m3788663378_gshared
Eud:__ZN6il2cpp2gc16GarbageCollector16InvokeFinalizersEv
j$h:__ZL46DES_t1353513560_CustomAttributesCacheGeneratorP21CustomAttributesCache
VYe:_Int16_System_IConvertible_ToInt64_m733340257
Osh:_Matrix4x4_ToString_m1982554457_AdjustorThunk
Nyc:_UNITY_FT_Outline_Transform
foh:_SkinChangedDelegate_BeginInvoke_m4259161711
eic:__Z60Register_UnityEngine_Sprites_DataUtility_Internal_GetMinSizev
hZc:__ZN6il2cpp2vm5Class10GetMethodsEP11Il2CppClassPPv
LVc:__ZNK25UnityWebRequestJavaScript17GetUploadProgressEv
r0a:__Z30AddDefaultStreamsToMeshBuffersR9GfxDeviceR11MeshBuffersRK16DrawBuffersRange17ShaderChannelMaskS6_
g1g:__Z86RuntimeInvoker_Int32_t2071877448_Vector2_t2243707579_Vector2_t2243707579_RuntimeObjectPFvvEPK10MethodInfoPvPS4_
BNd:_Hash_GetObjectData_m315532943
YJa:__ZN7ApiGLES17DeleteFramebufferERN2gl6HandleILNS0_10ObjectTypeE9EEES3_
dMa:__ZN15UniformTFMethod13MapBoneBufferEj
V_f:_RecordProtocol_SendAlert_m2816808523
OMc:__ZN2UI14CanvasRendererD2Ev
thg:_MethodCall_get_LogicalCallContext_m3769562079
Cjd:__ZN6il2cpp6icalls8mscorlib6System5Array8SetValueEP11Il2CppArrayP12Il2CppObjectS5_
Y5e:_SynchronizedReader_Read_m1399666181
_gh:_MonoEvent_get_Name_m2796714646
Nfa:__Z9SetupArgviPPKc
s2g:__Z53RuntimeInvoker_Void_t1841601450_LabelData_t3712112744PFvvEPK10MethodInfoPvPS4_
EHe:_Array_InternalArray__IEnumerable_GetEnumerator_TisHitInfo_t1761367055_m2486283755_gshared
gXd:_PointerEventData_set_worldNormal_m2025727441
a0f:_Context_get_SentConnectionEnd_m3114190867
Ngb:__ZN12ImmediatePtrI10GameObjectE8TransferI19StreamedBinaryWriteILb0EEEEvRT_
Znb:__ZN12CubemapArray23VirtualRedirectTransferER24GenerateTypeTreeTransfer
vFj:__ZL24UnresolvedVirtualCall_22P12Il2CppObjectS0_iS0_S0_S0_PK10MethodInfo
d6:__ZN12FileAccessor4OpenER15FileSystemEntry14FilePermission16FileAutoBehavior
pOf:_ReadOnlyCollection_1__ctor_m2364452928_gshared
Otd:__ZN6il2cpp2os9Directory6CreateERKNSt3__212basic_stringIcNS2_11char_traitsIcEENS2_9allocatorIcEEEEPi
BNi:_AnimatorControllerPlayable_Play_m1490151611_AdjustorThunk
Ena:__ZN4PPtrI6ShaderE8TransferI18StreamedBinaryReadILb0EEEEvRT_
U6a:__ZN23TransformChangeDispatch32QueueTransformChangeIfHasChangedERK15TransformAccess
LWd:_PointerEventData_set_clickTime_m3931922487
GX:__ZNSt3__24listIP19CloudServiceHandler13stl_allocatorIS2_L18MemLabelIdentifier86ELi16EEE6removeERKS2_
jlh:_WindowFunction__ctor_m977095815
VUe:_NumberFormatter_AppendNonNegativeNumber_m629862866
roa:__ZNSt3__26vectorINS_4pairIN9ShaderLab16FastPropertyNameEN18UnityPropertySheet11UnityTexEnvEEENS_9allocatorIS6_EEE21__push_back_slow_pathIKS6_EEvRT_
cTa:__ZN15ArchiveReadFile5WriteEyPKvPy
kYi:_ResourceInfo__ctor_m2401359321_AdjustorThunk
cme:_Hashtable__ctor_m392789568
Lvg:_Mutex_CreateMutex_internal_m2352956576
fug:_UTF7Encoding__cctor_m4192443836
uUi:_Component_SendMessage_m2241432133
knc:__Z31GUIStyle_CUSTOM_SetFontInternalP12Il2CppObjectS0_
B:tempValue
edb:__Z29StdTemplateConversionFunctionIaiEbPvR14SafeBinaryRead
ZYe:_Int16_System_IConvertible_ToSingle_m3277935657
h2:__Z29scripting_class_from_fullnamePKcS0_S0_
yai:__ZL97GameObject_t1756533147_CustomAttributesCacheGenerator_GameObject_GetComponentInParent_m1235194528P21CustomAttributesCache
hAi:_Raycast3DCallback_Invoke_m2271859924
ux:__ZN26AnimatorControllerPlayable18DeallocateBindingsEv
HNi:_AnimatorControllerPlayable_HasState_m3003093532
MP:__ZN11AudioSource19CreateOpenALRolloffEfff
lki:__ZL83Event_t3028476042_CustomAttributesCacheGenerator_Event_set_displayIndex_m3631666901P21CustomAttributesCache
aDc:_UNITY_FT_Stream_ReadAt
Qdi:__ZL111Object_t1021602117_CustomAttributesCacheGenerator_Object_DestroyImmediate_m3563317232____allowDestroyingAssets1P21CustomAttributesCache
xIg:__Z38RuntimeInvoker_MemberTypes_t3343038963PFvvEPK10MethodInfoPvPS4_
XAh:_Enumerator_get_CurrentKey_m2387752419_AdjustorThunk
$oh:_GUIStyle_get_lineHeight_m2132859383
IH:__Z87Register_UnityEngine_Animations_AnimatorControllerPlayable_INTERNAL_CALL_GetFloatStringv
Y0c:__ZN15dense_hashtableINSt3__24pairIK10KeyWrapperIN6il2cpp5utils13dynamic_arrayIPK10Il2CppTypeLj4EEEEPFvvEEESA_NS3_8metadata19Il2CppSignatureHashEN14dense_hash_mapISA_SD_SG_NSA_14EqualsComparerINSF_22Il2CppSignatureCompareEEENS0_9allocatorISE_EEE9SelectKeyESK_SM_E9set_valueEPSE_RKSE_
kXi:_UnityEvent_FindMethod_Impl_m3303953986
gAg:_UInt16_System_IConvertible_ToBoolean_m887616848
V8h:__ZL120ScriptableObject_t1975622470_CustomAttributesCacheGenerator_ScriptableObject_Internal_CreateScriptableObject_m1778903390P21CustomAttributesCache
NS:__ZN11AudioModule22CreateAudioClipFromWWWEP10IWWWStreamPKcbbi
Xsg:_StringBuilder_set_Length_m3039225444
A_g:__Z37RuntimeInvoker_AspectMode_t1166448724PFvvEPK10MethodInfoPvPS4_
oJf:_Collection_1_System_Collections_IList_Contains_m3870109702_gshared
wEe:_Array_InternalArray__ICollection_Contains_TisRaycastResult_t21186376_m3188614988_gshared
Ote:_CultureAwareComparer_GetHashCode_m3681260951
KOc:__Z13RegisterClassIN2UI11CanvasGroupEEvv
qAj:_U3CStartU3Ec__Iterator0__ctor_m951808111_gshared
HYb:__ZN6prcoreL11inner_clearILj4EEEvPhjjj
vf:_emscripten_glClear
qAi:_Selectable__ctor_m1440593935
HAd:_GC_initialize_offsets
eaa:__ZNK8Playable6HandleEv
GQj:___cxa_guard_abort
t9g:_CustomAttributeTypedArgument_t1498197914_marshal_pinvoke_back
m4:__ZN14MessageHandler28MessageIDToMessageIdentifierEi
U7f:_HttpRequestCreator_Create_m3607509610
Eki:__ZL50GUISkin_t1436893342_CustomAttributesCacheGeneratorP21CustomAttributesCache
Ptb:__ZNK11SpriteAtlas20GetRuntimeRenderDataEPK6Sprite
RGj:__ZL24UnresolvedVirtualCall_98P12Il2CppObject8IntPtr_tPK10MethodInfo
oBf:_List_1_Shift_m3824049528_gshared
vlg:_ArrayFixupRecord__ctor_m3659990982
m0f:_Context_get_RandomCS_m3946020109
xQh:__ZL72IntPtr_t_CustomAttributesCacheGenerator_IntPtr_op_Inequality_m3044532593P21CustomAttributesCache
S1d:_Dropdown_get_onValueChanged_m3334401942
wCd:__ZN6il2cpp2vm10WaitHandle19NewManualResetEventEb
iuj:_UISystemProfilerApi_EndSample_m2059427490
IPf:_ReadOnlyCollection_1_System_Collections_IList_Contains_m3707723158_gshared
dEg:_Version_GetHashCode_m880841176
lv:__ZN7mecanim14ValueArrayCopyILb0EEEvPKNS_10ValueArrayEPS1_
qG:__Z51Register_UnityEngine_Animator_get_hasBoundPlayablesv
oLj:_Nullable_1_ToString_m1238126148_AdjustorThunk
Md:emscriptenWebGLGetUniform
Co:FUNCTION_TABLE_iiiiiiiiiii
Sva:__Z32TransferEnumWithNameForceIntSizeI14SafeBinaryRead13TextureFormatEvRT_RT0_PKc17TransferMetaFlags
uui:__ZL86Scrollbar_t3248359358_CustomAttributesCacheGenerator_Scrollbar_ClickRepeat_m3403943364P21CustomAttributesCache
n6a:__ZL10CleanUpJobP20CullingGroupsJobData
she:_Char_CompareTo_m3044885427_AdjustorThunk
Z1e:_FileStream_GetSecureFileName_m508045384
q0a:__Z20IsRunningNativeTestsv
caj:_InternalEnumerator_1_System_Collections_IEnumerator_get_Current_m2035754659_AdjustorThunk
Jwb:__ZN10MeshFilter23VirtualRedirectTransferER24GenerateTypeTreeTransfer
YUa:__ZN13RenderManager15BatchModeUpdateEv
QLj:_Predicate_1_EndInvoke_m973058386_gshared
Sbi:__ZL52LayerMask_t3188175821_CustomAttributesCacheGeneratorP21CustomAttributesCache
XFf:_Collection_1_Add_m3985367602_gshared
Wsb:__ZN14SafeBinaryRead21TransferSTLStyleArrayI13dynamic_arrayI8Vector2fLj4EEEEvRT_17TransferMetaFlags
noa:__ZN17PersistentManager51InstanceIDToLocalSerializedObjectIdentifierInternalEiR31LocalSerializedObjectIdentifier
ujh:_StrongNameKeyPair_System_Runtime_Serialization_IDeserializationCallback_OnDeserialization_m2330221363
eIc:_UNITY_FT_Create_Class_cff_services
oej:_DefaultComparer__ctor_m1661558765_gshared
Jlh:_GUILayoutEntry_CalcWidth_m2520096159
pd:_glVertexAttribIPointer
xDg:_UnhandledExceptionEventHandler_EndInvoke_m2207457167
JGh:_Dictionary_2_System_Collections_ICollection_get_IsSynchronized_m304009368_gshared
EGd:_HMAC_set_HashName_m457235014
_6b:__ZNK6Sprite10GetPaddingE20SpriteRenderDataMode
HDe:_Array_InternalArray__ICollection_Contains_TisTableRange_t2011406615_m605506746_gshared
dHh:_Dictionary_2_Add_m1296007576_gshared
Nse:_Decimal_op_Explicit_m729046406
Rpg:_CryptoConfig_CreateFromName_m2169102076
_3d:_Graphic_OnEnable_m2900261811
Upg:_CryptographicUnexpectedOperationException__ctor_m3552441227
cje:_ArrayListWrapper_Clear_m321161741
_8d:_InputField_LineDownCharacterPosition_m2690468785
$Cc:_UNITY_ft_glyphslot_alloc_bitmap
jQe:_Array_Sort_TisVector2_t2243707579_TisVector2_t2243707579_m2582252549_gshared
gCg:_UInt64_System_IConvertible_ToDouble_m2828923873
M$c:__ZN15dense_hashtableI10KeyWrapperIPK17Il2CppGenericInstES4_N6il2cpp8metadata21Il2CppGenericInstHashEN14dense_hash_setIS4_S7_NS4_14EqualsComparerINS6_24Il2CppGenericInstCompareEEENSt3__29allocatorIS4_EEE8IdentityESB_SE_E16reset_thresholdsEv
q$b:__ZZN2UI13RectTransform15InitializeClassEvEN31FunctorImpl_62kTransformChanged4CallEPviR11MessageData
mwf:_List_1_System_Collections_IList_set_Item_m1129584681_gshared
Pvg:_SendOrPostCallback__ctor_m107067079
vEc:_ft_raster1_render
hhc:__Z57Register_UnityEngine_RectTransform_INTERNAL_set_anchorMaxv
grf:_List_1_set_Capacity_m491101164_gshared
qPj:__ZNKSt3__221__basic_string_commonILb1EE20__throw_length_errorEv
ttg:_StringBuilder_Insert_m1733097906
Lfj:_Comparer_1__ctor_m1157133632_gshared
J4f:_SslStreamBase_get_HashStrength_m480059173
IKa:__ZN18GfxFramebufferGLES13ReadbackImageER14ImageReferenceiiiiii
nFh:_ValueCollection_System_Collections_Generic_ICollectionU3CTValueU3E_Clear_m3271993638_gshared
LRg:__Z35RuntimeInvoker_Position_t3781184359PFvvEPK10MethodInfoPvPS4_
Joe:_Enumerator_MoveNext_m1419609883
uL:__ZN4FMOD7Channel19setReverbPropertiesEPK29FMOD_REVERB_CHANNELPROPERTIES
M3:__ZN13MonoBehaviour22GetScriptFullClassNameEv
a8c:_il2cpp_object_get_class
LVh:__ZL111DerivedType_t1016359113_CustomAttributesCacheGenerator_DerivedType_MakeGenericType_m742223168____typeArguments0P21CustomAttributesCache
bvj:_Vector2__cctor_m3670745621
dSf:_ReadOnlyCollection_1_Contains_m1816350632_gshared
c8f:_ServicePointManager_FindServicePoint_m3137356168
tIj:__ZL25UnresolvedVirtualCall_182P12Il2CppObject19Vector3_t2243707580S1_PK10MethodInfo
Dua:__ZN20SphericalHarmonicsL211AddWeightedERKS_f
Pqi:__ZL106PointerEventData_t1599784723_CustomAttributesCacheGenerator_PointerEventData_set_pressPosition_m2094137883P21CustomAttributesCache
yXd:_PointerInputModule_GetPointerData_m1695674453
YMg:__Z90RuntimeInvoker_Void_t1841601450_RuntimeObject_RuntimeObject_RuntimeObject_SByte_t454417549PFvvEPK10MethodInfoPvPS4_
_Ib:__Z19TransferField_ArrayI17RemapPPtrTransfer27Converter_SimpleNativeClassI8GUIStyleEEvRK23StaticTransferFieldInfoR31RuntimeSerializationCommandInfoRT0_
h1:__ZL22StaticInitializeShaderPv
Jte:_Convert_ToUInt64_m345450801
rLj:_Predicate_1_BeginInvoke_m2559992383_gshared
upc:__ZN9JSONWrite8TransferI10ColorRGBAfEEvRT_PKc17TransferMetaFlags
iVi:_Debug_Log_m920475918
MNf:_ReadOnlyCollection_1_get_Item_m1909688500_gshared
g4:__Z25scripting_method_get_name18ScriptingMethodPtr
qhc:__Z35Register_UnityEngine_Resources_Loadv
zHb:__Z19TransferField_ArrayI14SafeBinaryRead16Converter_StringEvRK23StaticTransferFieldInfoR31RuntimeSerializationCommandInfoRT0_
MOj:_rename
JAd:_GC_exit_check
U9e:_NotSupportedException__ctor_m3232764727
s7f:_TypeConverterAttribute_Equals_m2330345916
sli:__ZL86GUIStyle_t1799908754_CustomAttributesCacheGenerator_GUIStyle_get_alignment_m3513439031P21CustomAttributesCache
jRg:__Z90RuntimeInvoker_Boolean_t3825574718_Int32_t2071877448_Int32U26_t455636984_Int32_t2071877448PFvvEPK10MethodInfoPvPS4_
M2:__Z20UnlockObjectCreationv
lTg:__Z54RuntimeInvoker_Int32_t2071877448_LayerMask_t3188175821PFvvEPK10MethodInfoPvPS4_
SJj:_Hacker_Start_m3377866405
z1e:_MonoIO_CreateDirectory_m379525469
qIe:__ZN21InterfaceFuncInvoker2Ii22UILineInfo_t3621277874S0_E6InvokeEjP11Il2CppClassP12Il2CppObjectS0_S0_
pA:__ZN9BlobWrite8TransferI22OffsetPtrArrayTransferI9OffsetPtrIN7mecanim12statemachine18StateMachineMemoryEEEEEvRT_PKc17TransferMetaFlags
CAc:_UNITY_ft_smooth_renderer_class_pic_free
Yyf:_List_1_System_Collections_IList_Remove_m3763718607_gshared
nRi:_Bounds_get_center_m129401026
cR:__ZN19AudioPlayableOutput22OnConnectionHashChangeEv
GQd:_String_Concat_m2000667605
r5g:__Z63RuntimeInvoker_KeyValuePair_2_t888819835_IntPtr_t_RuntimeObjectPFvvEPK10MethodInfoPvPS4_
WSi:_CanvasRenderer_GetColor_m3395389094
Xvd:__ZN6il2cpp2vm6String8NewUtf16EPKDsi
ltd:__ZN6il2cpp2os10ThreadImpl12QueueUserAPCEPFvPvES2_
DI:__Z32TransferEnumWithNameForceIntSizeI14SafeBinaryReadN10SampleClip17CompressionFormatEEvRT_RT0_PKc17TransferMetaFlags
VSc:__ZN22BaseUnityConnectClient10QueueEventERN11UnityEngine15CloudWebService17CloudServiceEventEPKcjb
g_g:__Z71RuntimeInvoker_Bounds_t3033363703_RuntimeObject_Matrix4x4U26_t266301477PFvvEPK10MethodInfoPvPS4_
$Te:_ExecuteEvents_GetEventHandler_TisRuntimeObject_m3333041576_gshared
qwf:__ZN23InterfaceActionInvoker2IP28UICharInfoU5BU5D_t2749705857iE6InvokeEjP11Il2CppClassP12Il2CppObjectS1_i
Lbi:__ZL81Input_t1785128008_CustomAttributesCacheGenerator_Input_get_touchCount_m2050827666P21CustomAttributesCache
s5c:__ZNSt3__26__treeIP11Il2CppClassNS_4lessIS2_EENS_9allocatorIS2_EEE16__insert_node_atEPNS_16__tree_node_baseIPvEERSB_SB_
PKd:_SHA384Managed_unpackWord_m2501009050
WJc:_UNITY_FT_Hypot
Yde:_BitConverter_ToInt64_m1329623425
Z$b:__ZN8RendererC2E12RendererType18MemLabelIdentifier18ObjectCreationMode
T0h:__ZL95ASCIIEncoding_t3022927988_CustomAttributesCacheGenerator_ASCIIEncoding_GetByteCount_m1396020051P21CustomAttributesCache
n7c:_il2cpp_class_is_abstract
eqi:__ZL92PointerEventData_t1599784723_CustomAttributesCacheGenerator_U3CpointerDragU3Ek__BackingFieldP21CustomAttributesCache
Ff:_emscripten_glGetError
ffd:__ZN15dense_hashtableINSt3__24pairIK10KeyWrapperIPK14Il2CppAssemblyEPK22Il2CppMonoAssemblyNameEES6_N6il2cpp5utils11PointerHashIS4_EEN14dense_hash_mapIS6_SA_SF_NS6_14EqualsComparerINS0_8equal_toIS5_EEEENS0_9allocatorISB_EEE9SelectKeyESK_SM_E14squash_deletedEv
yFg:__Z70RuntimeInvoker_Boolean_t3825574718_RuntimeObject_UInt64U26_t1611942494PFvvEPK10MethodInfoPvPS4_
hM:__Z14FMOD_FILE_SeekPvjS_
whg:_MethodCall_get_Properties_m1893707917
UQh:__ZL72Enum_t2459695545_CustomAttributesCacheGenerator_Enum_ToObject_m604645223P21CustomAttributesCache
yCh:_ShimEnumerator_get_Entry_m2387156530_gshared
jRh:__ZL82RuntimeArray_CustomAttributesCacheGenerator_Array_SetValue_m2421438042____indices1P21CustomAttributesCache
rOe:_Array_InternalArray__set_Item_TisContentType_t1028629049_m703420360_gshared
M7a:__ZNK13RenderTexture32CalculateNeedsInvertedProjectionEv
jfb:__ZN10systeminfo18GetOperatingSystemEv
Nf:emscriptenWebGLGet
Ryh:_Rect_GetHashCode_m559954498_AdjustorThunk
n6:__Z19CanReplaceComponentRN5Unity9ComponentEPKNS_4TypeEPN4core12basic_stringIcNS5_20StringStorageDefaultIcEEEE
iSh:__ZL77RuntimeArray_CustomAttributesCacheGenerator_Array_ConstrainedCopy_m1922927602P21CustomAttributesCache
h1b:__ZN12CubemapArray11InitTextureEiii13TextureFormatb
lxf:_List_1_GrowIfNeeded_m2433342921_gshared
PPa:__ZNK15Lz4Decompressor20DecompressStreamInitEPPv
Zbd:__ZN24dense_hashtable_iteratorINSt3__24pairIK10KeyWrapperIPK10Il2CppTypeEjEES6_N6il2cpp8metadata14Il2CppTypeHashEN14dense_hash_mapIS6_jSB_NS6_14EqualsComparerINSA_26Il2CppTypeEqualityComparerEEENS0_9allocatorIS8_EEE9SelectKeyESF_SH_E30advance_past_empty_and_deletedEv
zFf:_Collection_1_set_Item_m3803272710_gshared
yth:_Mesh_SetUVs_m841280343
jih:_MonoMethodInfo_t3646562144_marshal_pinvoke_cleanup
ubg:_X509Certificate2_get_SignatureAlgorithm_m3069898012
T7f:_HttpRequestCreator__ctor_m2513916021
d$e:_Int64_System_IConvertible_ToSingle_m1678482180
Lph:_GUIStyle_INTERNAL_CALL_Internal_CalcSizeWithConstraints_m1203344891
YA:__ZN7mecanim5human13HumanFixTwistEPKNS0_5HumanEPNS_8skeleton13SkeletonPoseTIN4math4trsXEEES9_iiRKf
$0a:__ZL24AssignProjectorQueuesJobP30AssignProjectorQueuesJobHeader
zxg:_TimeSpan_get_Hours_m3804628138
h3d:_FontData_set_alignByGeometry_m2819509290
wMc:__ZN2UI11CanvasGroupD0Ev
Khj:_Regex__ctor_m3250610064
c1c:__ZN15dense_hashtableINSt3__24pairIK10KeyWrapperIN6il2cpp5utils13dynamic_arrayIPK10Il2CppTypeLj4EEEEPFvvEEESA_NS3_8metadata19Il2CppSignatureHashEN14dense_hash_mapISA_SD_SG_NSA_14EqualsComparerINSF_22Il2CppSignatureCompareEEENS0_9allocatorISE_EEE9SelectKeyESK_SM_E4swapERSP_
EWb:__ZN9ShaderLab20SerializedSubProgram14SetConstBufferEPKci
I8c:__ZN6il2cpp2os4File5CloseEPNS0_10FileHandleEPi
E0c:__ZNSt3__27__sort5IRN6il2cpp5utils11collections13ArrayValueMapIPK10Il2CppType17Il2CppInteropData26InteropDataToTypeConverterNS1_8metadata14Il2CppTypeLessENSA_26Il2CppTypeEqualityComparerEE12SortComparerEPS8_EEjT0_SH_SH_SH_SH_T_
Xig:_SoapAttribute_SetReflectionObject_m2774156012
QBj:_Check_Source_m3385315029
Yxj:_InvokableCall_4_Find_m1467690987_gshared
OTf:_Comparison_1_Invoke_m345024424_gshared
vGc:_cf2_getStdVW
QQf:_ReadOnlyCollection_1_System_Collections_IList_Insert_m3936197025_gshared
oBe:_EventHandler_BeginInvoke_m3027583606
b$:__Z40DebugStringToFilePostprocessedStacktraceRK21DebugStringToFileData
ouc:__Z29Transfer_Blittable_ArrayFieldI8JSONReadjEvRT_R9ArrayInfoRK23StaticTransferFieldInfo
rrj:_StateMachineBehaviour_OnStateEnter_m1095276890
Puh:_Object_GetInstanceID_m1920497914
PAd:_GC_check_finalizer_nested
E9i:_InternalEnumerator_1_get_Current_m314017974_AdjustorThunk
sg:__setLetterbox
f3e:_MemoryStream__ctor_m1043059966
Doa:__ZNSt3__26__treeINS_12__value_typeIN9ShaderLab16FastPropertyNameEfEENS_19__map_value_compareIS3_S4_NS_4lessIS3_EELb1EEENS_9allocatorIS4_EEE12__find_equalIS3_EERPNS_16__tree_node_baseIPvEENS_21__tree_const_iteratorIS4_PNS_11__tree_nodeIS4_SE_EEiEESH_RKT_
msj:_TextGenerator_Populate_Internal_m1817393161
UTh:__ZL57CollectionBase_t1101587467_CustomAttributesCacheGeneratorP21CustomAttributesCache
yig:__ZN21InterfaceFuncInvoker3IP12Il2CppObjectP6Type_t28StreamingContext_t1417235061PS1_E6InvokeEjP11Il2CppClassS1_S3_S4_S5_
Dvb:__ZNSt3__26vectorI17BlendShapeChannelNS_9allocatorIS1_EEE6assignINS_11__wrap_iterIPS1_EEEENS_9enable_ifIXaasr21__is_forward_iteratorIT_EE5valuesr16is_constructibleIS1_NS_15iterator_traitsISA_E9referenceEEE5valueEvE4typeESA_SA_
hae:_LayoutElement_set_preferredWidth_m3072758716
Uyj:_UnityEvent_1_AddListener_m1708363187_gshared
dag:_AsnEncodedData_ToString_m724151831
wVa:__ZN11TimeManager11GetRealtimeEv
uEf:_Collection_1_System_Collections_IList_get_IsFixedSize_m2408637569_gshared
Zug:_UTF8Encoding_GetByteCount_m1469571127
$Vc:__ZN20UnityWebRequestProtoI19TransportJavaScript16AtomicRefCounter14RedirectHelper14ResponseHelper15DownloadHandler13UploadHandler12HeaderHelper14AsyncOperationE26Job_ExecuteUnityWebRequestEPS8_
uM:__ZN29AudioEffectInternalDefinitionC2EP26UnityAudioEffectDefinitionb
Mgh:_MonoMethodInfo_GetDeclaringType_m4186531677
vjg:_SoapTypeAttribute_SetReflectionObject_m1566293812
vLh:_DefaultComparer__ctor_m418731767_gshared
$C:__ZN4PPtrI6AvatarE8TransferI18StreamedBinaryReadILb0EEEEvRT_
sEj:_Enumerator_System_Collections_IEnumerator_Reset_m2573763156_AdjustorThunk
Tkg:_RemotingServices_CreateClientProxy_m1631035355
MCg:_UInt64_ToString_m2892887310
Fli:__ZL88GUIStyle_t1799908754_CustomAttributesCacheGenerator_GUIStyle_set_fixedHeight_m1517737608P21CustomAttributesCache
xva:_stbir_resize
kvd:__ZN15dense_hashtableINSt3__24pairIK10KeyWrapperIPK19Il2CppGenericMethodEP10MethodInfoEES6_N6il2cpp8metadata23Il2CppGenericMethodHashEN14dense_hash_mapIS6_S9_SD_NS6_14EqualsComparerINSC_26Il2CppGenericMethodCompareEEENS0_9allocatorISA_EEE9SelectKeyESH_SJ_EC2ERKSM_j
Pwb:__ZN4PPtrI4MeshE8TransferI14SafeBinaryReadEEvRT_
oQa:__Z37ReadDirectoryInfo_UnityWebAndUnityRawR12FileAccessorRKN20ArchiveStorageHeader6HeaderERNS1_13DirectoryInfoE
cHe:_Array_InternalArray__IEnumerable_GetEnumerator_TisInt64_t909078037_m1219751804_gshared
O0:__ZNSt3__26__treeINS_12__value_typeIPKciEENS_19__map_value_compareIS3_S4_15compare_tstringIS3_ELb1EEENS_9allocatorIS4_EEE7destroyEPNS_11__tree_nodeIS4_PvEE
MSh:__ZL96RuntimeTypeHandle_t2330101084_CustomAttributesCacheGenerator_RuntimeTypeHandle_Equals_m452760426P21CustomAttributesCache
AKh:_Dictionary_2_ToTValue_m1381983709_gshared
M9e:_MulticastDelegate_KPM_m1592985119
MUg:__Z64RuntimeInvoker_Playable_t1896841784_AudioClipPlayable_t192218916PFvvEPK10MethodInfoPvPS4_
$Lf:_Collection_1_ConvertItem_m3941916604_gshared
j_a:__ZN20DynamicPropertySheet14SetValueQueuedEN9ShaderLab16FastPropertyNameEN19ShaderPropertySheet12PropertyTypeEjNS2_8SetFlagsE
xNc:__ZN2UI6Canvas26MarkAllNestedCanvasesDirtyEv
nnd:__ZN6il2cpp2vm12ReboxIfBoxedEP14Il2CppIUnknownP11Il2CppClass
EMa:__ZN16GeometryJobTasks20ScheduleGeometryJobsER9GfxDevicePFvP15GeometryJobDataEPK22GeometryJobInstructionjb
zdb:__ZN25PathNamePersistentManagerD2Ev
F2:__ZN17PersistentManager48IntegrateObjectAndUnlockIntegrationMutexInternalEi
yRf:_ReadOnlyCollection_1_System_Collections_IList_get_IsReadOnly_m3872065502_gshared
nWh:__ZL112TypeBuilder_t3308873219_CustomAttributesCacheGenerator_TypeBuilder_MakeGenericType_m4282022646____typeArguments0P21CustomAttributesCache
qda:__ZZ29InitializeSortingGroupManagerPvEN44PostLateUpdateSortingGroupsUpdateRegistrator7ForwardEv
tp:__ZN6Object12SetHideFlagsENS_9HideFlagsE
jea:__ZN20LocalFileSystemPosix4ReadER13FileEntryDatayyPvPy
gWj:_emscripten_glGetFramebufferAttachmentParameteriv__wrapper
EVa:__ZN13RendererScene15InitializeUmbraEv
kOi:_AnimatorTransitionInfo_IsName_m2561957738_AdjustorThunk
nua:__Z28CalculateGlobalMatrixInverse23TransformAccessReadOnly
yrc:__ZN4PPtrI6ObjectE8TransferI9JSONWriteEEvRT_
VSh:__ZL60SecurityAttribute_t2016950496_CustomAttributesCacheGeneratorP21CustomAttributesCache
tvb:__ZN13dynamic_arrayI12BoneWeights4Lj16EE18resize_initializedEjRKS0_12ResizePolicy
tXd:_PointerEventData_ToString_m1218584363
Pge:_Char_System_IConvertible_ToChar_m1489061093_AdjustorThunk
nug:_UTF7Encoding_GetCharCount_m2589913583
api:__ZL117RenderPipelineManager_t984453155_CustomAttributesCacheGenerator_RenderPipelineManager_set_currentPipeline_m3825706412P21CustomAttributesCache
J3:__ZN13MonoBehaviour19ReleaseMonoInstanceEv
Y3e:_MemoryStream_CalculateNewCapacity_m3533542025
x4i:_InternalEnumerator_1_System_Collections_IEnumerator_Reset_m4211243679_AdjustorThunk
Nli:__ZL88GUIStyle_t1799908754_CustomAttributesCacheGenerator_GUIStyle_GetFontInternal_m3509743324P21CustomAttributesCache
_xg:_TimeSpan_Equals_m4102942751_AdjustorThunk
mFh:_ValueCollection_System_Collections_Generic_ICollectionU3CTValueU3E_Add_m1903672223_gshared
aWc:__ZN12HeaderHelper14SetUnvalidatedERKN4core12basic_stringIcNS0_20StringStorageDefaultIcEEEES6_b
PI:__ZN4FMOD6SoundI7releaseEv
oRh:__ZL70RuntimeArray_CustomAttributesCacheGenerator_Array_SetValue_m1489959987P21CustomAttributesCache
UXd:_MouseButtonEventData__ctor_m618518000
cRa:__ZN10MemoryFile9SetLengthEy
YAg:_UInt16_ToString_m2038947049_AdjustorThunk
kMi:_AnimatorControllerPlayable_GetNextAnimatorClipInfoInternal_m1102604948
gqb:__ZN14SafeBinaryRead21TransferSTLStyleArrayI13dynamic_arrayI7Hash128Lj8EEEEvRT_17TransferMetaFlags
LCb:__Z28scripting_class_is_interface17ScriptingClassPtr
Hh:_glTexStorage2D
sWb:__ZNK9ShaderLab10SubProgram14EnsureCompiledEv
BEg:__Z79RuntimeInvoker_Boolean_t3825574718_RuntimeObject_RuntimeObject_SByte_t454417549PFvvEPK10MethodInfoPvPS4_
Ezd:_GC_push_marked
LUh:__ZL55DaylightTime_t3800227331_CustomAttributesCacheGeneratorP21CustomAttributesCache
Gne:_SortedList_InitTable_m460350503
Y3:__Z18BuildScriptClassId17ScriptingClassPtr
w6i:_InternalEnumerator_1_get_Current_m4279678504_AdjustorThunk
Mq:__ZNK16LevelGameManager7GetNameEv
wEf:_Collection_1_System_Collections_IList_get_Item_m2415649949_gshared
N1b:__ZN8Renderer28HandleParentHierarchyChangesEPK23TransformAccessReadOnlyj
Adh:_ILTokenInfo_t149559338_marshal_pinvoke_cleanup
nfa:__ZL31DeleteLastPathNameComponentImplRKN4core12basic_stringIcNS_20StringStorageDefaultIcEEEEPKc
OZb:__Z13RegisterClassI18DelayedCallManagerEvv
fTc:__ZN18UnityConnectClient15GetCloudServiceEv
mJb:__Z18Transfer_BlittableI24GenerateTypeTreeTransferLb0EiEvRK29SerializationCommandArgumentsR31RuntimeSerializationCommandInfo
FCb:__ZL28SerializationCommandGroupForRK31TransferFunctionScriptingTraits17ScriptingClassPtr17ScriptingFieldPtrRK20CoreScriptingClasses
Eib:__ZN10TagManager32RegisterDefaultTagsAndLayerMasksEv
FAj:_TweenRunner_1_StopTween_m2135918118_gshared
mGh:_ValueCollection_get_Count_m4142113966_gshared
ywh:_PlayableHandle_SetDuration_m1990009798_AdjustorThunk
j2c:__ZN15dense_hashtableINSt3__24pairIK10KeyWrapperIPKcEP11Il2CppClassEES5_N6il2cpp5utils11StringUtils12StringHasherIS4_EEN14dense_hash_mapIS5_S8_SE_NS5_14EqualsComparerINSB_13VmStringUtils21CaseSensitiveComparerEEENS0_9allocatorIS9_EEE9SelectKeyESJ_SL_E15insert_noresizeERKS9_
Wvg:_SynchronizationLockException__ctor_m549086841
jfi:__ZL105RectTransform_t3349966182_CustomAttributesCacheGenerator_RectTransform_INTERNAL_get_sizeDelta_m3975625099P21CustomAttributesCache
Aie:_ArrayList_InsertRange_m1478230997
oFa:__ZN4gles8InitCapsEP7ApiGLESP12GraphicsCapsR16GfxDeviceLevelGL
bpa:__ZN6prcore14BlitImageFloatERK14ImageReferenceRS0_NS0_8BlitModeE
tde:_Swapper_EndInvoke_m677693941
Hwa:__Z24CalculateVertexLightDataRK15SharedLightDataR14GfxVertexLight
Jsh:_Matrix4x4_Equals_m1321236479_AdjustorThunk
pi:_glEnable
msa:__ZN15dense_hashtableINSt3__24pairIKiiEEi21InstanceIDHashFunctorN14dense_hash_mapIiiS4_NS0_8equal_toIiEE13stl_allocatorIS3_L18MemLabelIdentifier1ELi16EEE9SelectKeyES7_SA_E12maybe_shrinkEv
iYa:__ZNK25CameraStackRenderingState21GetImageEffectTextureEb
mog:_RuntimeMethodHandle__ctor_m2437574937_AdjustorThunk
dRh:__ZL72RuntimeArray_CustomAttributesCacheGenerator_Array_get_Length_m1498215565P21CustomAttributesCache
iqc:__Z35Transfer_Blittable_FixedBufferFieldI9JSONWriteiEvRK29SerializationCommandArgumentsR31RuntimeSerializationCommandInfo
Kei:__ZL99Transform_t3275118058_CustomAttributesCacheGenerator_Transform_INTERNAL_get_localPosition_m94028171P21CustomAttributesCache
xAg:_UInt16_System_IConvertible_ToInt64_m2835280558_AdjustorThunk
pxh:_Quaternion_GetHashCode_m2270520528_AdjustorThunk
p8h:__ZL53g_UnityEngine_Assembly_CustomAttributesCacheGeneratorP21CustomAttributesCache
Ewj:_Predicate_1_BeginInvoke_m3926587117_gshared
nAb:__ZNSt3__26vectorI4PPtrI6ObjectE13stl_allocatorIS3_L18MemLabelIdentifier51ELi16EEE6assignINS_11__wrap_iterIPS3_EEEENS_9enable_ifIXaasr21__is_forward_iteratorIT_EE5valuesr16is_constructibleIS3_NS_15iterator_traitsISD_E9referenceEEE5valueEvE4typeESD_SD_
mx:__ZN26AnimatorControllerPlayable17ProcessRootMotionEP35AnimationPlayableEvaluationConstantP32AnimationPlayableEvaluationInputP33AnimationPlayableEvaluationOutput
$tf:_List_1_get_Item_m1231764300_gshared
TEg:__Z94RuntimeInvoker_Boolean_t3825574718_Int32_t2071877448_SByte_t454417549_ExceptionU26_t1467204777PFvvEPK10MethodInfoPvPS4_
j1d:_DefaultControls_CreateToggle_m1568873127
KAf:_List_1__cctor_m1022807427_gshared
ITh:__ZL63KeyNotFoundException_t1722175009_CustomAttributesCacheGeneratorP21CustomAttributesCache
kKh:_Dictionary_2_InitArrays_m2270022740_gshared
jpe:_Convert_ToBoolean_m2188088811
PRc:__ZN11UnityEngine7Connect15DeviceInfoEvent16CollectExtraInfoEv
AVg:__Z50RuntimeInvoker_AnimationOffsetPlayable_t1019600543PFvvEPK10MethodInfoPvPS4_
Etg:_UnicodeEncoding_GetChars_m3765282346
T$e:_IntPtr__ctor_m4104029105
t_h:__ZL114BinaryFormatter_t1866979105_CustomAttributesCacheGenerator_BinaryFormatter_get_DefaultSurrogateSelector_m219714691P21CustomAttributesCache
Qaj:_InternalEnumerator_1_System_Collections_IEnumerator_get_Current_m771161214_AdjustorThunk
K8e:_MonoType_get_attributes_m1493788675
POj:_atol
zCd:__ZN6il2cpp6icalls8mscorlib6System10Reflection9FieldInfo25internal_from_handle_typeE12Il2CppIntPtrS5_
Gre:_Convert_ToDouble_m4236754739
O3f:_SslClientStream_get_PrivateKeyCertSelectionDelegate_m3715949545
e$c:__ZN15dense_hashtableINSt3__24pairIK10KeyWrapperIPKcEP11Il2CppClassEES5_N6il2cpp5utils11StringUtils12StringHasherIS4_EEN14dense_hash_mapIS5_S8_SE_NS5_14EqualsComparerINSB_13VmStringUtils21CaseSensitiveComparerEEENS0_9allocatorIS9_EEE9SelectKeyESJ_SL_EC2EjRKSE_RKSJ_RKSN_
z2d:_Dropdown_CreateItem_m2702141380
KSf:_ReadOnlyCollection_1_IndexOf_m224962127_gshared
pUh:__ZL48Stack_t1043988394_CustomAttributesCacheGeneratorP21CustomAttributesCache
Ho:FUNCTION_TABLE_viifi
Io:FUNCTION_TABLE_viiff
eU:__Z75AudioPlayableGraphExtensions_CUSTOM_INTERNAL_CALL_InternalCreateAudioOutputR14HPlayableGraphP12Il2CppStringP15HPlayableOutput
I0g:__Z59RuntimeInvoker_Boolean_t3825574718_ResourceInfo_t3933049236PFvvEPK10MethodInfoPvPS4_
Xgh:_MonoEvent_GetAddMethod_m4289563120
T0g:__Z59RuntimeInvoker_Boolean_t3825574718_RaycastHit2D_t4063908774PFvvEPK10MethodInfoPvPS4_
jKc:_UNITY_tt_face_free_hdmx
phd:__ZN15dense_hashtableINSt3__24pairIK10KeyWrapperINS1_IP11Il2CppClassjEEES4_EES6_N6il2cpp8metadata14ArrayClassHashEN14dense_hash_mapIS6_S4_SB_NS6_14EqualsComparerINSA_17ArrayClassCompareEEENS0_9allocatorIS8_EEE9SelectKeyESF_SH_E5clearEv
D_c:__ZNSt3__218uninitialized_copyIPNS_4pairIK10KeyWrapperIPK11Il2CppClassEPKcEESB_EET0_T_SD_SC_
P8c:__ZN6il2cpp2vm14TypeNameParser5ParseEb
Xzi:_ReflectionMethodsCache__ctor_m1835220
PTh:__ZL71SynchronizedArrayListWrapper_t3317806524_CustomAttributesCacheGeneratorP21CustomAttributesCache
lVc:__ZN23UnityPurchasingSettingsC2Ev
Uze:_Double_ToString_m1864290157
oQj:__ZNSt9bad_allocD0Ev
QNg:__Z50RuntimeInvoker_Int64_t909078037_Double_t4078015681PFvvEPK10MethodInfoPvPS4_
K8:__ZNSt3__26__treeINS_12__value_typeI18VertexChannelsInfo16MeshVertexFormatEENS_19__map_value_compareIS2_S4_NS_4lessIS2_EELb1EEE13stl_allocatorIS4_L18MemLabelIdentifier16ELi16EEE12__find_equalIS2_EERPNS_16__tree_node_baseIPvEENS_21__tree_const_iteratorIS4_PNS_11__tree_nodeIS4_SF_EEiEESI_RKT_
iKf:_Collection_1_System_Collections_IList_get_Item_m1122792492_gshared
Dva:__ZL37stbir__resample_horizontal_downsampleP11stbir__infoiPf
xGf:__ZN21InterfaceFuncInvoker1Ib18Color32_t874517518E6InvokeEjP11Il2CppClassP12Il2CppObjectS0_
Ksa:__ZNK5Unity9Component38MarkGameObjectAndComponentDependenciesER27GarbageCollectorThreadState
q$:__ZL16OutOfMemoryErrorjj18MemLabelIdentifieriPKc
cke:_SynchronizedArrayListWrapper_Contains_m2259439339
uR:__ZNK7Texture21GetShadowSamplingModeEv
x4:__ZNK11TypeManager15ClassNameToRTTIEPKcb
fea:__ZN13ScreenManager21OnWindowRegainedFocusEv
CQb:__Z18Transfer_BlittableI18StreamedBinaryReadILb0EELb1EdEvRK29SerializationCommandArgumentsR31RuntimeSerializationCommandInfo
MSi:_WillRenderCanvases_BeginInvoke_m1914028027
PXe:_Guid__ctor_m2599802704
x2e:_FileStream_get_CanRead_m4148920720
VWc:__ZN13RuntimeStaticINSt3__26vectorIPN5physx15PxVehicleWheelsENS0_9allocatorIS4_EEEELb0EE13StaticDestroyEPv
F4g:__Z31RuntimeInvoker_Link_t2723257478PFvvEPK10MethodInfoPvPS4_
THa:__ZN4crnd12symbol_codec32decode_receive_static_data_modelERNS_25static_huffman_data_modelE
l$b:__ZN18ScriptingArguments8AddFloatEf
iWe:_GregorianCalendar_set_CalendarType_m2438362222
F0d:_FloatTween_get_targetValue_m2120061648_AdjustorThunk
yIg:__Z44RuntimeInvoker_RuntimeTypeHandle_t2330101084PFvvEPK10MethodInfoPvPS4_
HEe:_Array_InternalArray__ICollection_Contains_TisVector2_t2243707579_m3625698589_gshared
arc:__Z18Transfer_BlittableI9JSONWriteLb0EaEvRK29SerializationCommandArgumentsR31RuntimeSerializationCommandInfo
JEg:__Z45RuntimeInvoker_SByte_t454417549_RuntimeObjectPFvvEPK10MethodInfoPvPS4_
sV:__ZN11UnityEngine15CloudWebService14DataDispatcher34OnSessionContainerArchivedAndReadyERNS0_16SessionContainerE
TWe:_NumberFormatInfo_GetFormat_m3247563525
N2h:__ZL77Convert_t2607082565_CustomAttributesCacheGenerator_Convert_ToByte_m2303223565P21CustomAttributesCache
MZf:_CipherSuiteCollection__ctor_m2154226461
uLb:__Z18Transfer_BlittableI19StreamedBinaryWriteILb0EELb0E8Vector3fEvRK29SerializationCommandArgumentsR31RuntimeSerializationCommandInfo
dlh:_RectOffset__ctor_m2227510254
DSb:__ZN14SafeBinaryRead19TransferSTLStyleMapINSt3__23mapIN4core12basic_stringIcNS3_20StringStorageDefaultIcEEEEiNS1_4lessIS7_EENS1_9allocatorINS1_4pairIKS7_iEEEEEEEEvRT_17TransferMetaFlags
Zcd:__ZN15dense_hashtableINSt3__24pairIK10KeyWrapperINS1_IPK11Il2CppImageP11Il2CppClassEEEjEES9_17ReflectionMapHashIS8_EN14dense_hash_mapIS9_jSD_NS9_14EqualsComparerINS0_8equal_toIS8_EEEENS0_9allocatorISB_EEE9SelectKeyESI_SK_ED2Ev
SBc:_gray_move_to
Vqg:_DSAParameters_t1872138834_marshal_pinvoke
BSg:__Z37RuntimeInvoker_ContentType_t859870085PFvvEPK10MethodInfoPvPS4_
vLf:_Collection_1_System_Collections_IEnumerable_GetEnumerator_m4174600764_gshared
P1i:_ConstructionCall_InitDictionary_m4046452035
Tdd:__ZN6il2cpp2vm10Reflection14GetEventObjectEP11Il2CppClassPK9EventInfo
d$f:_TlsStream_Write_m2271546135
X8b:__Z30RegisterValidateMethodCallbackiPF18ScriptingMethodPtrS_17ScriptingClassPtrP6ObjectEPKc
Hfa:__ZN20LocalFileSystemPosixD0Ev
Zhi:__ZL133AnimatorControllerPlayable_t1744083903_CustomAttributesCacheGenerator_AnimatorControllerPlayable_INTERNAL_CALL_GetFloatID_m1278007428P21CustomAttributesCache
SCe:_CultureInfo_ConstructInternalLocaleFromCurrentLocale_m1342751405
Jsg:_Latin1Encoding_GetString_m3553289597
oDc:_tt_cmap_init
Ja:invoke_viidi
tBh:_Enumerator_get_Current_m1020413567_AdjustorThunk
yrf:_List_1_System_Collections_IList_get_IsFixedSize_m1122077912_gshared
Kpd:__ZN15dense_hashtableI10KeyWrapperIP18Il2CppGenericClassES3_N6il2cpp8metadata22Il2CppGenericClassHashEN14dense_hash_setIS3_S6_NS3_14EqualsComparerINS5_25Il2CppGenericClassCompareEEENSt3__29allocatorIS3_EEE8IdentityESA_SD_E12maybe_shrinkEv
R_b:__ZN9TextAssetC2E18MemLabelIdentifier18ObjectCreationMode
HVi:_Display_RecreateDisplayList_m3412638488
poe:_Slot_t2267560602_marshal_pinvoke
o4h:__ZL79Convert_t2607082565_CustomAttributesCacheGenerator_Convert_ToUInt64_m2215781574P21CustomAttributesCache
M$j:_emscripten_glCheckFramebufferStatus__wrapper
Bid:__ZNK15dense_hashtableINSt3__24pairIK10KeyWrapperIP11Il2CppClassES4_EES5_N6il2cpp8metadata16SZArrayClassHashEN14dense_hash_mapIS5_S4_SA_NS5_14EqualsComparerINS9_19SZArrayClassCompareEEENS0_9allocatorIS7_EEE9SelectKeyESE_SG_E12test_deletedEj
Itc:__Z18Transfer_BlittableI8JSONReadLb0EdEvRK29SerializationCommandArgumentsR31RuntimeSerializationCommandInfo
c0g:__Z83RuntimeInvoker_Boolean_t3825574718_NavigationU26_t3929175072_Navigation_t1571958496PFvvEPK10MethodInfoPvPS4_
Owf:_List_1_TrimExcess_m2004514756_gshared
owg:_Thread_ClrState_m822263449
zcf:_SimpleCollator_LastIndexOfOrdinalIgnoreCase_m550798345
Eph:_GUIStyle_INTERNAL_CALL_Internal_GetCursorStringIndex_m3074318281
NAa:__ZNK9GfxDevice13GetViewMatrixEv
Wsa:__ZN17RemapPPtrTransferC2E24TransferInstructionFlagsb
s5:__ZN8TypeTree8BlobReadERPKhS1_ib
FHh:_Dictionary_2_System_Collections_Generic_ICollectionU3CSystem_Collections_Generic_KeyValuePairU3CTKeyU2CTValueU3EU3E_Remove_m3080541539_gshared
fta:__ZN18LoadSceneOperation23GetAllowSceneActivationEv
DJi:_AnimationPlayableOutput_op_Implicit_m1147972631
Bjb:__ZN6CameraD0Ev
_df:_ModulusRing_Multiply_m386339435
xba:__ZN31CanvasBatchIntermediateRenderer16StaticInitializeEPv
R4d:_GraphicRaycaster_U3CRaycastU3Em__0_m3971200721
iPf:_ReadOnlyCollection_1_System_Collections_IList_RemoveAt_m3004588099_gshared
yw:__ZN7mecanim12AndValueMaskILb0EEEvPKNS_14ValueArrayMaskEPS1_
mre:_Decimal_op_Implicit_m4246329390
Glf:_ArgumentNullException__ctor_m2252076819
j9a:__ZN10GameObjectC2E18MemLabelIdentifier18ObjectCreationMode
UAc:_raccess_guess_apple_double
q2g:__Z70RuntimeInvoker_Void_t1841601450_CustomAttributeNamedArgument_t94157543PFvvEPK10MethodInfoPvPS4_
t6f:_ListDictionary_GetEnumerator_m1511032609
obh:_TypeBuilder_get_FullName_m1626507516
Lmg:_SerializationInfo__ctor_m4016423422
cDd:__ZN6il2cpp2os12Cryptography24OpenCryptographyProviderEv
s1b:__ZN14Texture2DArray13RebuildMipMapEv
d_c:__ZN13Il2CppHashSetIPK17Il2CppGenericInstN6il2cpp8metadata21Il2CppGenericInstHashENS4_24Il2CppGenericInstCompareENSt3__29allocatorI10KeyWrapperIS2_EEEEC2EjRKS5_RKS6_
sFb:__Z18Transfer_BlittableI14SafeBinaryReadLb1EaEvRK29SerializationCommandArgumentsR31RuntimeSerializationCommandInfo
uud:__ZN6il2cpp2gc16GarbageCollector14RemoveWeakLinkEPPv
FWb:__ZN9ShaderLab20SerializedSubProgram14AddVectorParamEPKcii15ShaderParamTypei
htf:_List_1_System_Collections_Generic_IEnumerableU3CTU3E_GetEnumerator_m3123730956_gshared
fPc:__ZN2UI14CanvasRenderer12CleanupClassEv
RRf:_ReadOnlyCollection_1_System_Collections_IEnumerable_GetEnumerator_m1734360860_gshared
ZLh:_DefaultComparer__ctor_m1052417779_gshared
uOd:_SystemException__ctor_m2688248668
wYi:_ResourceSet_ReadResources_m1669023823
Pjf:_PKCS12_RemoveCertificate_m1590055870
njd:__ZN6il2cpp2vm6Thread7SetNameEP12Il2CppThreadP12Il2CppString
mbh:_TypeBuilder_get_DeclaringType_m3236598700
zga:__ZN13ScreenManager18SetAllowCursorLockEb
MW:__ZN11UnityEngine15CloudWebService10RestClientINS0_23WebRequestRestHeaderMapEE16SetRequestHeaderERKN4core12basic_stringIcNS4_20StringStorageDefaultIcEEEESA_
dBb:__ZN30RuntimeInitializeOnLoadManager15ClassMethodInfo8TransferI14SafeBinaryReadEEvRT_
Pvi:__ZL73CanvasScaler_t2574720772_CustomAttributesCacheGenerator_m_ScreenMatchModeP21CustomAttributesCache
kT:__ZL22InitializeModule_Audiov
veb:__ZN16MemoryFileSystem8IsLockedERK13FileEntryData
Euj:_Vector2_get_Item_m2792130561_AdjustorThunk
Egh:_MonoCMethod_Invoke_m931478014
rGg:__Z86RuntimeInvoker_Int32_t2071877448_Int16_t4041245914_Int32_t2071877448_Int32_t2071877448PFvvEPK10MethodInfoPvPS4_
DYi:_SatelliteContractVersionAttribute__ctor_m2605651717
Yk:_emscripten_glBindRenderbuffer
Ymc:__Z32GUIStyle_Set_Custom_PropClippingP12Il2CppObjecti
_Sd:_DecoderExceptionFallbackBuffer_GetNextChar_m1727394816
EAd:_GC_dirty_init
Fce:_Array_Copy_m1969461849
Uod:__ZN6il2cpp2vm5Image33GetCachedMemoryMappedResourceFileEP24Il2CppReflectionAssembly
hrd:__ZN6il2cpp2vm5Field14GetValueObjectEP9FieldInfoP12Il2CppObject
zOc:__ZNK2UI6Canvas16GetTargetDisplayEv
yPi:_AudioClipPlayable_Equals_m2497502457_AdjustorThunk
YAj:_ListPool_1__cctor_m709904475_gshared
aBe:_Environment_get_OSVersion_m1247315981
g9:__ZN6Object17FindObjectsOfTypeEPKN5Unity4TypeER13dynamic_arrayIPS_Lj4EEb
v5b:__ZNSt3__26vectorINS_4pairIiiEE13stl_allocatorIS2_L18MemLabelIdentifier1ELi16EEE21__push_back_slow_pathIKS2_EEvRT_
oeg:_Capture_get_Length_m1952322390
Jrc:__ZN9JSONWrite8TransferI4PPtrI9Texture2DEEEvRT_PKc17TransferMetaFlags
cCb:__ZN13MonoBehaviour17RemoveFromManagerEv
akb:__ZN12ImageFilters14AddImageFilterERK11ImageFilter
oPc:__ZL23RegisterModuleICalls_UIv
Gsb:__ZL11DecodeValuePPKcS0_
ZCh:_ShimEnumerator_MoveNext_m2013866013_gshared
c_:__ZN13MemoryManagerC2Ev
MLa:__ZN12SkinMeshInfo10DeallocateEPS_
Ltj:_Transform_SetParent_m1963830867
eMi:_AnimatorControllerPlayable_GetAnimatorClipInfoCountInternal_m2158191784
ugi:__ZL66AnimationOffsetPlayable_t1019600543_CustomAttributesCacheGeneratorP21CustomAttributesCache
pTa:__ZN20ArchiveStorageReader28AcquireAndPrefillUnusedBlockEjPNS_11CacheResultE
l1b:__Z12NHxRoughnessIA4_tEvP9Texture2DPT_iiii
Usj:_Touch_get_phase_m196706494_AdjustorThunk
Vhg:_MethodDictionary_get_SyncRoot_m673971424
H9:__ZN18AsyncUploadManagerD2Ev
tYb:__ZN9Transform5ResetEv
fLb:__Z22TransferField_NonArrayI24GenerateTypeTreeTransfer16Converter_StringEvRK23StaticTransferFieldInfoR31RuntimeSerializationCommandInfoRT0_
fDc:_UNITY_FT_CMap_New
sQi:_AudioMixerPlayable_Equals_m3014217409_AdjustorThunk
_7f:_HttpWebRequest_System_Runtime_Serialization_ISerializable_GetObjectData_m3671622902
pga:__Z17MainLoopKeepalivePv
tgj:_MatchCollection__ctor_m1944681790
hHd:_HMACSHA512__ctor_m1667460019
f6a:__Z24ScheduleCullingAllGroupsR8JobFenceRK22SceneCullingParameters4PPtrI6CameraERK13CullingOutputRK13dynamic_arrayIP12CullingGroupLj4EERKS_
HMj:_printf_core
GLd:_ToBase64Transform_get_OutputBlockSize_m949275583
YLf:_Collection_1_set_Item_m3254085220_gshared
r5a:__Z14CalcHullBoundsPK8Vector3fPKhhRK5PlaneRK10Matrix4x4fR10MinMaxAABB
dkg:_RealProxy__ctor_m2147093603
Yxh:_RaycastHit2D_get_point_m442317739_AdjustorThunk
vQ:__ZNK14SoundHandleAPI12GetFrequencyEv
Oyf:_List_1__ctor_m3511181530_gshared
e_a:__Z19SetupLODFadeKeywordR17ShaderPassContexti
tPf:_ReadOnlyCollection_1_get_Count_m2180604490_gshared
PLb:__Z18Transfer_BlittableI19StreamedBinaryWriteILb0EELb0E5RectTIfEEvRK29SerializationCommandArgumentsR31RuntimeSerializationCommandInfo
Evi:__ZL75ToggleGroup_t1030026315_CustomAttributesCacheGenerator_U3CU3Ef__amU24cache1P21CustomAttributesCache
fLa:__ZL25CheckCopyTextureArgumentsRK7ApiGLESP11GLESTextureS3_
A9:__ZN13dynamic_arrayI26EnlightenSystemInformationLj8EE6insertEPS0_PKS0_S4_
LCc:_tt_name_entry_ascii_from_utf16
O9e:_MulticastNotSupportedException__ctor_m2164514827
hue:_DateTime_System_IConvertible_ToChar_m2489529194_AdjustorThunk
KKb:__Z29Transfer_Blittable_ArrayFieldI24GenerateTypeTreeTransferyEvRT_R9ArrayInfoRK23StaticTransferFieldInfo
ML:__ZN4FMOD7SystemI9playSoundE17FMOD_CHANNELINDEXPNS_5SoundEbPPNS_7ChannelE
hPi:_AttributeHelperEngine_GetRequiredComponents_m120894667
yRh:__ZL74RuntimeArray_CustomAttributesCacheGenerator_Array_BinarySearch_m1368352453P21CustomAttributesCache
HZ:__GLOBAL__sub_I_runtime_graphics_mesh2_lump_cpp
Uzh:_RectTransformUtility_PixelAdjustRect_m93024038
w3h:__ZL78Convert_t2607082565_CustomAttributesCacheGenerator_Convert_ToSByte_m1183867428P21CustomAttributesCache
xw:__ZN27AnimationLayerMixerPlayable17LayerMixerProcessEP35AnimationPlayableEvaluationConstantP32AnimationPlayableEvaluationInputP33AnimationPlayableEvaluationOutputM17AnimationPlayableFvS1_S3_S5_EMS_FvS1_S3_S5_ESA_MS_FvS5_S1_S3_S5_ifE
M8c:__ZN6il2cpp2os4File4ReadEPNS0_10FileHandleEPciPi
zVf:_BigInteger_op_GreaterThan_m2492620848
oK:__ZN12AudioManager23VirtualRedirectTransferER18StreamedBinaryReadILb0EE
bqf:_List_1_Remove_m2616693989_gshared
aPj:_realloc
$ic:__Z57Register_UnityEngine_Transform_INTERNAL_get_localRotationv
RMg:__Z65RuntimeInvoker_Void_t1841601450_RuntimeObject_DateTime_t693205669PFvvEPK10MethodInfoPvPS4_
Qyg:_Type_get_IsInterface_m3583817465
SAb:__ZN30RuntimeInitializeOnLoadManager23VirtualRedirectTransferER17RemapPPtrTransfer
_Sj:dynCall_viif
ohh:_MonoField_get_DeclaringType_m1591666235
K3i:_InternalEnumerator_1__ctor_m2111763266_AdjustorThunk
Jgg:_Enumerator_MoveNext_m4234629003
yIb:__ZL26Transfer_SimpleNativeClassI17RemapPPtrTransfer8GradientLb0EEvRK29SerializationCommandArgumentsR31RuntimeSerializationCommandInfo
mRh:__ZL69RuntimeArray_CustomAttributesCacheGenerator_Array_GetValue_m518505780P21CustomAttributesCache
XOg:__Z52RuntimeInvoker_UInt64_t2909196914_Single_t2076509932PFvvEPK10MethodInfoPvPS4_
J4c:__ZN6il2cpp6icalls8mscorlib6System8MonoType14get_attributesEP20Il2CppReflectionType
C3h:__ZL78Convert_t2607082565_CustomAttributesCacheGenerator_Convert_ToSByte_m1880147062P21CustomAttributesCache
L8e:_MonoType_GetDefaultConstructor_m925465120
Czg:_Type_IsArrayImpl_m3073208555
uX:__ZN13UploadHandlerD2Ev
qRj:dynCall_viiiiiffi
Hc:_emscripten_glBlendFuncSeparate
Qch:_GenericTypeParameterBuilder_IsPrimitiveImpl_m1198748291
Q1:__Z20scripting_string_newPKc
whc:__Z43Material_CUSTOM_Internal_CreateWithMaterialP12Il2CppObjectS0_
s1e:_Directory_GetCurrentDirectory_m44486537
dod:__ZNK24NamespaceAndNamePairHashclERKNSt3__24pairIPKcS3_EE
QCf:_Collection_1_System_Collections_ICollection_CopyTo_m1047946700_gshared
vse:_Convert_ToInt64_m4057339019
kag:_AsnEncodedData_Default_m4197142414
_hd:__ZNSt3__218uninitialized_copyIPNS_4pairIK10KeyWrapperIP11Il2CppClassES4_EES8_EET0_T_SA_S9_
GB:__ZNSt3__26__sortIRPFbPKN8Animator11AnimatorJobES4_EPS4_EEvT0_S9_T_
EJ:__ZN17AudioCustomFilterD2Ev
UH:__Z91Register_UnityEngine_Animations_AnimatorControllerPlayable_INTERNAL_CALL_ResetTriggerStringv
AYb:__ZN9Transform16ResetReplacementEv
Blc:__ZNK8GUIStyle13GetLineHeightEv
pKa:__ZN18GfxFramebufferGLES18ReleaseFramebufferEP17RenderSurfaceBaseP14GfxContextGLES
Y$i:_Context_GetDynamicPropertyCollection_m1987747444
xbg:_X509Certificate2_get_Version_m1927399907
j3b:__ZN13ProduceHelperI6CameraLb0EE7ProduceE18MemLabelIdentifier18ObjectCreationMode
x6d:_Image_RadialCut_m3229543088
SY:__ZN19CloudServiceHandler34HandleSaveFileWebRequestPlayerLoopEv
Ox:__ZN7mecanim21ValueArrayReverseCopyEPKNS_18ValueArrayConstantEPKNS_10ValueArrayES2_PS3_PKi
pJ:__Z31GetParentSampleClipFromInstancePN11SoundHandle8InstanceE
s$b:__ZNK28RectTransformPropertyBinding13GetFloatValueERKN11UnityEngine9Animation10BoundCurveE
h8a:__ZN6Camera22StandaloneCustomRenderENS_10RenderFlagEP6ShaderRKN4core12basic_stringIcNS3_20StringStorageDefaultIcEEEEPNS_21PerformRenderFunctionE
rFd:__ZN6il2cpp2os16ThreadLocalValue8GetValueEPPv
q2c:__ZN6il2cpp2vm13MetadataCache14GetGenericInstEPKPK10Il2CppTypej
HKd:_SHA384Managed_Initialize_m712692291
F4i:_InternalEnumerator_1__ctor_m2688327768_gshared
y_i:_ChannelInfo__ctor_m2502026239
hd:_glUniform1uiv
TXh:__ZL60CallingConvention_t3354538265_CustomAttributesCacheGeneratorP21CustomAttributesCache
rjc:__Z52Object_CUSTOM_GetOffsetOfInstanceIDInCPlusPlusObjectv
NR:__ZN9AudioClip15InitializeClassEv
mp:setThrew
d1b:__ZL21BuildEmptyCubeTexturePKci11ColorRGBA3217TextureColorSpace
GSb:__ZN14SafeBinaryRead21TransferSTLStyleArrayINSt3__26vectorIN9ShaderLab20SerializedSubProgramENS1_9allocatorIS4_EEEEEEvRT_17TransferMetaFlags
yYd:_StandaloneInputModule_set_cancelButton_m2642677329
Psc:__Z15Transfer_StringI8JSONReadLb1EEvRK29SerializationCommandArgumentsR31RuntimeSerializationCommandInfo
xqa:__ZN6prcoreL17RemapGenericFloatI17TexFormatRGBFloat15TexFormatRGHalfEEvPKNS_9InnerInfoE
w$a:__Z25DoForwardShaderRenderLoopR17RenderLoopContextR13dynamic_arrayI16RenderObjectDataLj4EERK11CullResultsbbbN6Camera10RenderFlagE
qTe:_GameObject_GetComponent_TisRuntimeObject_m2812611596_gshared
jCc:_sfnt_load_face
Yif:_PKCS12_GetSymmetricAlgorithm_m1812022677
Dug:_UTF8Encoding_GetByteCount_m2372933408
V$i:_Context_get_NeedsContextSink_m1907794755
aCc:_UNITY_ft_service_list_lookup
zWf:_ARC4Managed_GenerateKey_m716135508
rIb:__Z18Transfer_BlittableI17RemapPPtrTransferLb1E11ColorRGBA32EvRK29SerializationCommandArgumentsR31RuntimeSerializationCommandInfo
elc:__ZN5IMGUI21SelectReceivingWindowER8GUIStateb
$E:__ZNK26AnimatorControllerPlayable17ValidateGoToStateERiS0_
vaj:_InternalEnumerator_1_get_Current_m3179981210_gshared
Nfb:__ZN13BaseAllocator13TryDeallocateEPv
YMb:__Z29Transfer_Blittable_ArrayFieldI19StreamedBinaryWriteILb0EEfEvRT_R9ArrayInfoRK23StaticTransferFieldInfo
pce:_Array_CreateInstance_m1054139389
cnh:_GUIStyleState_GetGUIStyleState_m2816150617
i5i:_InternalEnumerator_1__ctor_m967618647_AdjustorThunk
deb:__ZN16MemoryFileSystem5WriteER13FileEntryDatayPvPy
xYg:__Z74RuntimeInvoker_Vector4_t2243707581_Vector4_t2243707581_Vector4_t2243707581PFvvEPK10MethodInfoPvPS4_
zHh:_Dictionary_2_System_Collections_ICollection_get_IsSynchronized_m1738433079_gshared
jkb:__ZNSt3__26vectorIN12FlareManager10FlareEntryENS_9allocatorIS2_EEE21__push_back_slow_pathIKS2_EEvRT_
Q8g:_Default_check_arguments_with_score_m1714931543
jGd:_SHA1_Create_m4086509717
kzj:_UnityEvent_1_GetDelegate_m3098147632_gshared
n1g:__Z111RuntimeInvoker_Int32_t2071877448_RuntimeObject_AnimatorClipInfo_t3905751349_Int32_t2071877448_Int32_t2071877448PFvvEPK10MethodInfoPvPS4_
Zhh:_MonoMethodInfo_GetMethodInfo_m3298558752
$J:__ZN13AudioListener17RemoveFromManagerEv
Bd:_glAttachShader
D2d:_Dropdown_SetAlpha_m2769981009
_Ya:__ZNK6Camera19GetProjectionMatrixEv
DLj:_Predicate_1_BeginInvoke_m1856151290_gshared
Uye:_StackTrace__ctor_m2404985356
G3:__Z38PreallocateObjectFromPersistentManagerib
vue:_DateTime_System_IConvertible_ToSingle_m3927769066
Egg:_CostDelegate__ctor_m80452417
JZ:__GLOBAL__sub_I_runtime_interfaces_lump_cpp
Kob:__ZNK9Texture2D20GetUnscaledTextureIDEv
Gse:_Convert_ToSByte_m883113940
PYj:_glFenceSync__wrapper
xBe:_Exception_get_Message_m173095527
XH:__Z103Register_UnityEngine_Animations_AnimatorControllerPlayable_INTERNAL_CALL_IsParameterControlledByCurveIDv
fCf:_Queue_1_Peek_m1463479953_gshared
OPi:_AudioClipPlayable_INTERNAL_CALL_GetStartDelayInternal_m3715907549
mti:__ZL53InputField_t1631627530_CustomAttributesCacheGeneratorP21CustomAttributesCache
c_d:_ButtonClickedEvent__ctor_m938038541
sRb:__ZN18StreamedBinaryReadILb0EE21TransferSTLStyleArrayI13dynamic_arrayI4AABBLj4EEEEvRT_17TransferMetaFlags
xNg:__Z119RuntimeInvoker_Int32_t2071877448_RuntimeObject_Int32_t2071877448_Int32_t2071877448_CharU26_t1894467670_SByte_t454417549PFvvEPK10MethodInfoPvPS4_
rAg:_UInt16_System_IConvertible_ToDouble_m4100549304_AdjustorThunk
Jta:__Z29ClearRepeatingLogMessageStatev
lPd:_Single_System_IConvertible_ToInt16_m962677079
W8:__ZN21EnlightenSceneMappingaSERKS_
BKf:_Collection_1_SetItem_m546457615_gshared
w5e:_StreamWriter__cctor_m1332667003
zPd:_Single_System_IConvertible_ToUInt32_m2447833283
ePa:__ZN7ApiGLESD2Ev
U9a:__ZN9Transform47ClearTransformHierarchyAndApplyToSerializedDataEv
S8i:_InternalEnumerator_1_get_Current_m4083613828_AdjustorThunk
nId:_RijndaelManaged_GenerateKey_m3366247933
_0e:_BinaryReader_ReadUInt64_m1893783375
ERi:_Bounds_op_Equality_m2161830280
Fdb:__ZN17PersistentManager9AddStreamEv
rTj:dynCall_fidi
Yad:__ZN15dense_hashtableINSt3__24pairIK10KeyWrapperINS1_IPK9FieldInfoP11Il2CppClassEEEjEES9_17ReflectionMapHashIS8_EN14dense_hash_mapIS9_jSD_NS9_14EqualsComparerINS0_8equal_toIS8_EEEENS0_9allocatorISB_EEE9SelectKeyESI_SK_E12resize_deltaEjj
Xnc:__Z47Register_UnityEngine_GUIStyle_set_imagePositionv
ync:__Z49GUIStyle_CUSTOM_INTERNAL_CALL_Internal_DrawCursor13Il2Cpp_IntPtrRK5RectTIfEP12Il2CppObjectiRK10ColorRGBAf
KBi:_ScrollRect_set_movementType_m3292965850
F2h:__ZL59AttributeTargets_t1984597432_CustomAttributesCacheGeneratorP21CustomAttributesCache
ezh:_RectTransform_set_anchorMin_m4247668187
YX:__ZN11UnityEngine15CloudWebService14RestDownloaderD2Ev
Acb:__Z29StdTemplateConversionFunctionIjhEbPvR14SafeBinaryRead
OHj:__ZL25UnresolvedVirtualCall_149P12Il2CppObject23SpriteState_t1353336012S1_PK10MethodInfo
Lpf:_List_1_GrowIfNeeded_m2986672263_gshared
g3i:_ArrayReadOnlyList_1_Remove_m2325516426_gshared
pme:_Hashtable_get_Count_m830088216
S8b:__ZNK13MonoBehaviour13GetScriptTypeEv
ria:__ZN13RenderTexture12SetDimensionE16TextureDimension
gqj:_ScriptableObject_CreateInstance_m3921674852
$Wf:_MD4Managed__ctor_m796835377
qe:_SDL_FreeRW
nhf:_PKCS1_OS2IP_m1273945439
hKd:_SHA1Internal_FillBuff_m891541953
Y5h:__ZL62ResolveEventHandler_t3842432458_CustomAttributesCacheGeneratorP21CustomAttributesCache
SPc:__Z34CanvasRenderer_Get_Custom_PropCullP12Il2CppObject
K2i:_ArrayReadOnlyList_1_get_IsReadOnly_m2717922212_gshared
BP:__ZN20SoundChannelInstance8getDelayE14FMOD_DELAYTYPEPjS1_
sDd:__ZNSt3__26__treeINS_12__value_typeIPvxEENS_19__map_value_compareIS2_S3_NS_4lessIS2_EELb1EEENS_9allocatorIS3_EEE12__find_equalIS2_EERPNS_16__tree_node_baseIS2_EESF_RKT_
C7d:_InputField_set_customCaretColor_m3534590098
UBi:_ScrollRect_set_viewport_m323693490
T$h:__ZL66RijndaelManagedTransform_t135163252_CustomAttributesCacheGeneratorP21CustomAttributesCache
pVe:_NumberFormatter_FormatExponential_m3975285307
yxc:__ZNSt3__26vectorIN20TextRenderingPrivate8FontImpl13CharacterInfoE13stl_allocatorIS3_L18MemLabelIdentifier1ELi16EEE8__appendEj
v:tempBigInt
ye:_emscripten_glVertexAttrib1fv
kTb:__ZNSt3__26vectorIN9ShaderLab20SerializedSubProgram12UAVParameterENS_9allocatorIS3_EEE7reserveEj
nWg:__Z116RuntimeInvoker_Void_t1841601450_PlayableHandleU26_t4210769902_Int32_t2071877448_Int32_t2071877448_Single_t2076509932PFvvEPK10MethodInfoPvPS4_
E6f:_NameObjectCollectionBase__ctor_m2433753948
gHi:_AnimationCurve_Init_m1486386337
mUi:_Component_GetComponents_m3712441745
m8d:_InputField_get_selectionAnchorPosition_m466595604
c2h:__ZL99Thread_t241561612_CustomAttributesCacheGenerator_Thread_t241561612____ExecutionContext_PropertyInfoP21CustomAttributesCache
gTd:_DecoderReplacementFallback_get_DefaultString_m3399348550
Qyj:_UnityAction_4_Invoke_m3312096275_gshared
$wi:__ZL111LayoutUtility_t4076838048_CustomAttributesCacheGenerator_LayoutUtility_U3CGetPreferredHeightU3Em__5_m1524880643P21CustomAttributesCache
Ecd:__ZN24dense_hashtable_iteratorINSt3__24pairIK10KeyWrapperINS1_IPK10MethodInfoP11Il2CppClassEEEjEES9_17ReflectionMapHashIS8_EN14dense_hash_mapIS9_jSD_NS9_14EqualsComparerINS0_8equal_toIS8_EEEENS0_9allocatorISB_EEE9SelectKeyESI_SK_E30advance_past_empty_and_deletedEv
Lzh:_RectTransformUtility_ScreenPointToRay_m1842507230
v7a:__ZN16ReflectionProbes16UpdateSampleDataEv
gEb:__ZN14SafeBinaryRead21TransferSTLStyleArrayI10vector_setI4PPtrI10MonoScriptENSt3__24lessIS4_EE13stl_allocatorIS4_L18MemLabelIdentifier76ELi16EEEEEvRT_17TransferMetaFlags
RZi:_SafeHandle_Finalize_m1839546519
oub:__ZN14Texture2DArray5ResetEv
uuc:__ZN8JSONRead21TransferSTLStyleArrayINSt3__26vectorI10RectOffset13stl_allocatorIS3_L18MemLabelIdentifier1ELi16EEEEEEvRT_S5_17TransferMetaFlags
Lcj:_InternalEnumerator_1_MoveNext_m252820768_AdjustorThunk
E0i:_Context_AllocateNamedDataSlot_m3200404053
SMg:__Z64RuntimeInvoker_Void_t1841601450_RuntimeObject_Single_t2076509932PFvvEPK10MethodInfoPvPS4_
vag:_X509EnhancedKeyUsageExtension_Decode_m3866320499
lVe:_NumberFormatter_AppendIntegerStringWithGroupSeparator_m1401773574
j9c:__ZNK6il2cpp2vm14TypeNameParser10NextWillBeEcb
$Yf:_CipherSuite_get_ServerHMAC_m3566778727
vUh:__ZL64DebuggerBrowsableState_t944457511_CustomAttributesCacheGeneratorP21CustomAttributesCache
Ve:_JS_Sound_Play
M6d:_Image_IsRaycastLocationValid_m864962354
GJg:__Z181RuntimeInvoker_Void_t1841601450_RuntimeObject_Int32_t2071877448_Int32_t2071877448_RuntimeObject_Int32_t2071877448_Int32_t2071877448_RuntimeObject_Int32_t2071877448_Int32_t2071877448PFvvEPK10MethodInfoPvPS4_
hSb:__ZN9ShaderLab16SerializedShader8TransferI14SafeBinaryReadEEvRT_
txa:__ZN5Mutex7TryLockEv
_A:__ZN7mecanim8skeleton13SkeletonAlignEPKNS0_8SkeletonERKN4math7_float4ES7_i
Y1b:__ZN19ShaderPropertySheet16SetVectorIndexedEN9ShaderLab16FastPropertyNameEifRK8Vector4fNS_8SetFlagsE
Fq:__ZN14SafeBinaryRead21TransferSTLStyleArrayIN4core12basic_stringIcNS1_20StringStorageDefaultIcEEEEEEvRT_17TransferMetaFlags
zkg:_RemotingConfiguration_RegisterWellKnownServiceType_m2491506630
cbi:__ZL89Screen_t786852042_CustomAttributesCacheGenerator_Screen_t786852042____height_PropertyInfoP21CustomAttributesCache
OYh:__ZL55_TypeBuilder_t2783404358_CustomAttributesCacheGeneratorP21CustomAttributesCache
PIj:__ZL25UnresolvedVirtualCall_204P12Il2CppObjectPK10MethodInfo
cdb:__Z29StdTemplateConversionFunctionIayEbPvR14SafeBinaryRead
Vae:_LayoutRebuilder_Initialize_m2671585490
gvf:_List_1_System_Collections_IList_IndexOf_m4061554721_gshared
zY:__ZN11UnityEngine15CloudWebService14DataDispatcher4StopEv
DIi:_AnimationLayerMixerPlayable_SetLayerAdditive_m4206337590_AdjustorThunk
mTb:__ZNSt3__26vectorIN9ShaderLab20SerializedSubProgram12UAVParameterENS_9allocatorIS3_EEE8__appendEj
pFf:_Collection_1_GetEnumerator_m434271983_gshared
xed:__ZNK15dense_hashtableINSt3__24pairIK10KeyWrapperINS1_IPK9EventInfoP11Il2CppClassEEEjEES9_17ReflectionMapHashIS8_EN14dense_hash_mapIS9_jSD_NS9_14EqualsComparerINS0_8equal_toIS8_EEEENS0_9allocatorISB_EEE9SelectKeyESI_SK_E12test_deletedERK24dense_hashtable_iteratorISB_S9_SD_SM_SI_SK_E
Xkc:__ZN5IMGUI9GUIWindow5OnGUIER8GUIState
PEh:_Enumerator_get_Current_m2986380627_gshared
bla:__ZN17ScriptingGCHandle7AcquireE18ScriptingObjectPtr25ScriptingGCHandleWeakness
F$i:_LifetimeServices_set_LeaseTime_m1487876644
aah:_ConstructorBuilder_not_supported_m3687319507
wT:__ZN19AudioPlayableOutputC2EjP13PlayableGraph
sSh:__ZL48IList_t3321498491_CustomAttributesCacheGeneratorP21CustomAttributesCache
qPd:_Single_System_IConvertible_ToInt64_m3555853323_AdjustorThunk
Udj:_InternalEnumerator_1__ctor_m3901400705_AdjustorThunk
hSj:dynCall_iifiii
nva:__Z21HasAlphaTextureFormat13TextureFormat
tS:__ZN12AudioManager6UpdateEv
iva:__ZN14ImageReference9BlitImageERKS_NS_8BlitModeE
Ohh:_MonoMethod_get_MethodHandle_m1882915015
zs:__ZN8Animator12AddToManagerEv
QWh:__ZL93ConstructorInfo_t2851816542_CustomAttributesCacheGenerator_ConstructorInfo_Invoke_m2144827141P21CustomAttributesCache
GCh:_ShimEnumerator_get_Key_m1171725158_gshared
_Cb:__ZN23CachedSerializationDataD2Ev
$6a:__ZNK25CameraStackRenderingState31CalculateStereoCameraTargetTypeEv
ymb:__ZN14RenderSettings23VirtualRedirectTransferER14SafeBinaryRead
ttd:__ZN6il2cpp2os10ThreadImpl15CurrentThreadIdEv
hKf:_Collection_1_System_Collections_IList_get_IsReadOnly_m4005091053_gshared
vEe:_Array_InternalArray__ICollection_Contains_TisColor32_t874517518_m2818328910_gshared
H2c:__ZN24dense_hashtable_iteratorINSt3__24pairIK10KeyWrapperIPK11Il2CppClassEPKcEES6_N6il2cpp5utils11PointerHashIS3_EEN14dense_hash_mapIS6_S9_SE_NS6_14EqualsComparerINS0_8equal_toIS5_EEEENS0_9allocatorISA_EEE9SelectKeyESJ_SL_E30advance_past_empty_and_deletedEv
nlf:_AppDomainInitializer_EndInvoke_m4003801172
aSh:__ZL66RuntimeArray_CustomAttributesCacheGenerator_Array_Sort_m2544329074P21CustomAttributesCache
Xxh:_RaycastHit2D_get_point_m442317739
z5d:_LayoutGroup_SetChildAlongAxis_m1615929339
kmb:__ZN16LevelGameManager8TransferI18StreamedBinaryReadILb0EEEEvRT_
oKc:_UNITY_tt_face_load_fpgm
Lxb:__ZN12InputManagerD0Ev
CDd:__ZN6il2cpp6icalls8mscorlib6System11Diagnostics10StackTrace9get_traceEP15Il2CppExceptionib
X0d:_DefaultControls_CreateUIObject_m2810394112
Poh:_GUIStyle_get_overflow_m1125058093
Uoi:__ZL109PlayerConnection_t3517219175_CustomAttributesCacheGenerator_PlayerConnection_DisconnectedCallback_m4115432464P21CustomAttributesCache
RBi:_ScrollRect_get_scrollSensitivity_m1160815603
ytg:_UnicodeEncoding_GetBytes_m1337660232
_Pb:__Z18Transfer_BlittableI18StreamedBinaryReadILb0EELb1EtEvRK29SerializationCommandArgumentsR31RuntimeSerializationCommandInfo
fPj:_posix_memalign
m2b:__ZN13ProduceHelperI12MeshRendererLb0EE7ProduceE18MemLabelIdentifier18ObjectCreationMode
CBf:_List_1_get_Count_m1249351212_gshared
Sdj:_InternalEnumerator_1_get_Current_m747506907_AdjustorThunk
QRi:_Camera_get_eventMask_m4241372419
hNg:__Z38RuntimeInvoker_PaddingMode_t3032142640PFvvEPK10MethodInfoPvPS4_
TYf:_CertificateValidationCallback2_BeginInvoke_m3996282202
M3f:_SslClientStream_get_ClientCertSelectionDelegate_m2316959461
$je:_SynchronizedArrayListWrapper_get_SyncRoot_m1466044127
L4:__ZNK15MonoScriptCache7ReleaseEv
TYc:__ZN6il2cpp2vm5Class13HasReferencesEP11Il2CppClass
ig:_glBindTexture
mFf:_Collection_1_ClearItems_m3585785594_gshared
vNj:_snprintf
ewi:__ZL84HorizontalOrVerticalLayoutGroup_t1968298610_CustomAttributesCacheGenerator_m_SpacingP21CustomAttributesCache
w8g:_Binder__ctor_m1361613966
j8d:_InputField_set_caretPosition_m888572237
rdh:_ILGenerator__cctor_m3943061018
qje:_ArrayListWrapper_Clone_m1506311066
nWi:_Event_get_character_m3740896233
usa:__Z36scripting_liveness_calculation_begin17ScriptingClassPtriPFvPP12Il2CppObjectiPvES3_PFvvES7_
SAj:_ListPool_1_Get_m4215629480_gshared
aNa:__ZN16UniformCacheGLES6CreateERK20GpuProgramParameters
Mug:_UTF8Encoding_Fallback_m811555654
zCg:_UInt64_CompareTo_m3513742483
RJe:_Array_InternalArray__IndexOf_TisPlayableBinding_t2498078091_m398853908_gshared
dqj:_ScriptableObject_t1975622470_marshal_pinvoke_cleanup
nsg:_Encoding_GetString_m1894033578
HPf:_ReadOnlyCollection_1_System_Collections_IList_Clear_m1918003010_gshared
EGg:__Z77RuntimeInvoker_Void_t1841601450_RuntimeObject_RuntimeObject_Int32_t2071877448PFvvEPK10MethodInfoPvPS4_
eWj:_emscripten_glGetProgramInfoLog__wrapper
DD:__ZN25AnimatedPropertyEvaluator29BindCurveToScriptingObjectPtrERKN13AnimationClip10FloatCurveEj18ScriptingObjectPtrb
Uii:__ZL94Font_t4239498691_CustomAttributesCacheGenerator_Font_InvokeTextureRebuilt_Internal_m2007522718P21CustomAttributesCache
Qug:_UTF8Encoding_InternalGetChars_m373801468
B6:__ZN17PersistentManager23DestroyFromFileInternalEi
cei:__ZL98Object_t1021602117_CustomAttributesCacheGenerator_Object_DoesObjectWithInstanceIDExist_m2570795274P21CustomAttributesCache
pqj:_ScrollViewState__ctor_m535685782
Rwe:_Decimal_System_IConvertible_ToChar_m2425091200_AdjustorThunk
I$a:__Z19SetupMotionMatricesR6CameraR18RPDataMotionVector
UAe:_Enum_ToString_m2112979707
$rj:_TextGenerator_ValidatedSettings_m1640214759
m_h:__ZL55SoapServices_t3397513225_CustomAttributesCacheGeneratorP21CustomAttributesCache
iig:_MonoMethodMessage_get_MethodName_m3580519713
nC:__ZN26AnimatorControllerPlayable18PrepareForPlaybackERN7mecanim6memory9AllocatorE
bAe:_Enum_t2459695545_marshal_pinvoke_cleanup
Aqj:_HitInfo_t1761367055_marshal_pinvoke_cleanup
IIe:_Array_FindLastIndex_TisRuntimeObject_m986818300_gshared
Hug:_UTF8Encoding_GetBytes_m4170182058
QTe:_Mesh_GetAllocArrayFromChannel_TisColor32_t874517518_m2030100417_gshared
Xla:__ZN22CreateGpuProgramOutputC2Ev
Xjh:_Object__ctor_m197157284
cdi:__ZL99SortingLayer_t221838959_CustomAttributesCacheGenerator_SortingLayer_GetLayerValueFromID_m4029056996P21CustomAttributesCache
K3e:_MemoryStream_InternalConstructor_m2423667240
Sjj:_CapturingGroup_set_Index_m2175936006
djg:_SoapMethodAttribute_SetReflectionObject_m3431595769
uEi:_Slider_set_maxValue_m2951480075
OYc:__ZN6il2cpp2vmL17SetupGCDescriptorEP11Il2CppClass
x9d:_InputField_OnSubmit_m2856515494
ga:invoke_vidi
cjf:_DeriveBytes_Adjust_m105515328
ZNc:__ZN2UI14CanvasRenderer17SyncDirtyElementsER8JobFence
WPb:__Z18Transfer_BlittableI18StreamedBinaryReadILb0EELb0ExEvRK29SerializationCommandArgumentsR31RuntimeSerializationCommandInfo
O$d:_ColorBlock_op_Inequality_m1517672458
Awd:__ZN6il2cpp5utils11StringUtils15StringDuplicateEPKc
Ngi:__ZL156AnimatorControllerPlayable_t1744083903_CustomAttributesCacheGenerator_AnimatorControllerPlayable_INTERNAL_CALL_GetAnimatorTransitionInfoInternal_m1417370130P21CustomAttributesCache
_8a:__Z15CanAddComponentR10GameObjectPKN5Unity4TypeE
ola:__ZNK9ShaderLab21ShaderRasterStateDesc16ToGfxRasterStateEPK19ShaderPropertySheetS3_R14GfxRasterState
J7d:_InputField_set_onValueChange_m1749304609
aqg:_CspParameters__ctor_m2480441577
yFd:__ZN6il2cpp2os9EventImplC2Ebb
f0i:_DynamicPropertyCollection_NotifyMessage_m840388347
alj:_Uri_ParseUri_m5711497
uD:__ZN4PPtrI13MonoBehaviourE8TransferI19StreamedBinaryWriteILb0EEEEvRT_
OSg:__Z98RuntimeInvoker_RuntimeObject_RuntimeObject_RayU26_t3651946800_Single_t2076509932_Int32_t2071877448PFvvEPK10MethodInfoPvPS4_
B$:__Z20IsMatrixBuiltinParamPKcPi
oGf:_Collection_1_CheckWritable_m2467777750_gshared
cui:__ZL108MaskableGraphic_t540192618_CustomAttributesCacheGenerator_MaskableGraphic_ParentMaskStateChanged_m3643747340P21CustomAttributesCache
tcd:__ZN15dense_hashtableINSt3__24pairIK10KeyWrapperINS1_IPK10MethodInfoP11Il2CppClassEEEjEES9_17ReflectionMapHashIS8_EN14dense_hash_mapIS9_jSD_NS9_14EqualsComparerINS0_8equal_toIS8_EEEENS0_9allocatorISB_EEE9SelectKeyESI_SK_E16reset_thresholdsEv
F1b:__ZN8Renderer19PostInitializeClassEv
jtj:_TrackedReference_t1045890189_marshal_pinvoke_back
a4i:_InternalEnumerator_1_get_Current_m1943362081_AdjustorThunk
xvj:_Vector3_get_sqrMagnitude_m1814096310_AdjustorThunk
OBd:__ZN6il2cpp6icalls8mscorlib6System8Delegate23CreateDelegate_internalEP20Il2CppReflectionTypeP12Il2CppObjectP22Il2CppReflectionMethodb
uRh:__ZL82RuntimeArray_CustomAttributesCacheGenerator_Array_GetValue_m1507415734____indices0P21CustomAttributesCache
K8g:_Default_check_type_m2363631305
oCb:__ZN18DelayedCallManager18CancelCallDelayed2E4PPtrI6ObjectEPF15CallObjectStatePS1_PvES7_
avf:_List_1__cctor_m911493842_gshared
Sfb:__ZN25ThreadsafeLinearAllocator10ReallocateEPvji
NEb:__Z18Transfer_BlittableI14SafeBinaryReadLb1E11QuaternionfEvRK29SerializationCommandArgumentsR31RuntimeSerializationCommandInfo
nda:__ZN18SpriteAtlasManagerD0Ev
TJe:_Array_InternalArray__IndexOf_TisRaycastHit2D_t4063908774_m3739817942_gshared
xih:_MonoProperty_GetAccessors_m3704698731
pBd:_GC_disable
wvb:__ZN10Matrix4x4f8TransferI14SafeBinaryReadEEvRT_
$6e:_UnmanagedMemoryStream_ReadByte_m2501145010
Afd:__ZN14dense_hash_mapI10KeyWrapperIPK22Il2CppGenericParameterEPK24MonoGenericParameterInfoN6il2cpp5utils11PointerHashIS2_EENS4_14EqualsComparerINSt3__28equal_toIS3_EEEENSD_9allocatorINSD_4pairIKS4_S7_EEEEE15set_deleted_keyERSJ_
U6:__Z6AppendRKN4core12basic_stringIcNS_20StringStorageDefaultIcEEEEPKc
IQh:__ZL60MulticastDelegate_t3201952435_CustomAttributesCacheGeneratorP21CustomAttributesCache
tsa:__ZL14OnWorldStoppedv
kNb:__Z18Transfer_BlittableI18StreamedBinaryReadILb1EELb0E8Vector3fEvRK29SerializationCommandArgumentsR31RuntimeSerializationCommandInfo
NSg:__Z81RuntimeInvoker_RuntimeObject_Ray_t2469606224_Single_t2076509932_Int32_t2071877448PFvvEPK10MethodInfoPvPS4_
pji:__ZL84Canvas_t209405766_CustomAttributesCacheGenerator_Canvas_get_sortingOrder_m3120854436P21CustomAttributesCache
fti:__ZL61Image_t2042527209_CustomAttributesCacheGenerator_m_FillCenterP21CustomAttributesCache
cGa:__ZN7ApiGLES18ClearBufferSubDataEjN2gl12BufferTargetEll
Wsj:_Touch_get_type_m3264731406_AdjustorThunk
dcc:__Z37Camera_Get_Custom_PropAllCamerasCountv
Jub:__ZN14Texture2DArray8TransferI18StreamedBinaryReadILb0EEEEvRT_
xjd:__ZN6il2cpp6icalls8mscorlib6System5Array9GetLengthEP11Il2CppArrayi
a4a:__Z18ApplyOcclusionMaskR19ProbeOcclusionCacheRK17LightProbeContextRK10RenderNodeb
c3e:_FileStreamAsyncResult__ctor_m1096228032
REc:_Split_Cubic
gb:invoke_fiiii
Bdi:__ZL78Time_t31991979_CustomAttributesCacheGenerator_Time_get_unscaledTime_m862335845P21CustomAttributesCache
rwe:_DBNull_System_IConvertible_ToSByte_m1228193074
VEf:_Collection_1__ctor_m2818834331_gshared
cTe:_Array_InternalArray__get_Item_TisUICharInfo_t3056636800_m3872982785_gshared
gRg:__Z68RuntimeInvoker_UInt16_t986882611_UInt16_t986882611_UInt16_t986882611PFvvEPK10MethodInfoPvPS4_
Sxf:_List_1__ctor_m2168280176_gshared
zLi:_AnimatorControllerPlayable_INTERNAL_CALL_GetLayerIndexInternal_m2875146206
vtd:__ZN6il2cpp2os10ThreadImpl22CreateForCurrentThreadEv
wgi:__ZL136AnimationOffsetPlayable_t1019600543_CustomAttributesCacheGenerator_AnimationOffsetPlayable_INTERNAL_CALL_GetPositionInternal_m1117100583P21CustomAttributesCache
kIf:_Collection_1_Insert_m3041550124_gshared
E2e:_FileStream_FlushBuffer_m2594140542
qoc:__Z64Register_UnityEngine_GUIStyle_GetFontInternalDuringLoadingThreadv
DEc:_ft_black_render
mxd:__ZN6il2cpp2vm8Profiler12GCHeapResizeEx
xTj:dynCall_viiifi
TJa:__ZN18GfxFramebufferGLES20ActiveContextChangedEPP17RenderSurfaceBaseS2_
PJa:__Z19PluginsRenderMarkeri
gei:__ZL80Object_t1021602117_CustomAttributesCacheGenerator_Object_Instantiate_m2439155489P21CustomAttributesCache
cE:__ZN10HumanTrait18InitializeBoneNameEv
HKh:_DefaultComparer__ctor_m899694595_gshared
CJi:_AnimationPlayableOutput_GetHandle_m1362491789_AdjustorThunk
Mkj:__ZN23InterfaceActionInvoker1ItE6InvokeEjP11Il2CppClassP12Il2CppObjectt
nub:__ZN14Texture2DArray21AwakeFromLoadThreadedEv
WQb:__Z29Transfer_Blittable_ArrayFieldI18StreamedBinaryReadILb0EEyEvRT_R9ArrayInfoRK23StaticTransferFieldInfo
aNh:_EqualityComparer_1_get_Default_m875724809_gshared
Zod:__ZNSt3__214__split_bufferIN6il2cpp2vm5Image20EmbeddedResourceDataERNS_9allocatorIS4_EEEC2EjjS7_
B5d:_HorizontalOrVerticalLayoutGroup_get_spacing_m2859152439
ZXh:__ZL57DispIdAttribute_t607560947_CustomAttributesCacheGeneratorP21CustomAttributesCache
NJ:__ZN12AudioManager17RemoveAudioSourceEP11AudioSource
OXj:_emscripten_glBindProgramARB__wrapper
jSh:__ZL83RuntimeArray_CustomAttributesCacheGenerator_RuntimeArray____LongLength_PropertyInfoP21CustomAttributesCache
lNg:__Z151RuntimeInvoker_Int32_t2071877448_RuntimeObject_Int32_t2071877448_Int32_t2071877448_RuntimeObject_Int32_t2071877448_DecoderFallbackBufferU26_t3597875002PFvvEPK10MethodInfoPvPS4_
WUi:_CullingGroup_Finalize_m3172731580
Psh:_Matrix4x4__cctor_m3092679229
TSe:_Array_InternalArray__get_Item_TisUInt64_t2909196914_m2580870875_gshared
mhd:__ZN15dense_hashtableINSt3__24pairIK10KeyWrapperINS1_IP11Il2CppClassjEEES4_EES6_N6il2cpp8metadata14ArrayClassHashEN14dense_hash_mapIS6_S4_SB_NS6_14EqualsComparerINSA_17ArrayClassCompareEEENS0_9allocatorIS8_EEE9SelectKeyESF_SH_E4swapERSK_
$ug:_UTF8Decoder_GetChars_m3819660582
tU:__ZN5physx14PxLightCpuTask12addReferenceEv
Lqb:__ZN21EnlightenSceneMapping8TransferI19StreamedBinaryWriteILb0EEEEvRT_
yqd:__ZN6il2cpp2gc16GarbageCollector19InitializeFinalizerEv
Qx:__ZN7mecanim8skeleton18CreateSkeletonMaskEjPKNS0_19SkeletonMaskElementERNS_6memory9AllocatorE
SRh:__ZL66RuntimeArray_CustomAttributesCacheGenerator_Array_Sort_m4096942812P21CustomAttributesCache
Kkc:__ZN10GUIManager10DoGUIEventER10InputEventb
GZf:_Context_get_ClientWriteKey_m2235605337
MJb:__Z35Transfer_Blittable_FixedBufferFieldI24GenerateTypeTreeTransferxEvRK29SerializationCommandArgumentsR31RuntimeSerializationCommandInfo
C0:__Z20CalculateSqrDistanceRK8Vector3fRK4AABB
DN:__Z32AudioMixerDuckingProcessCallbackP21UnityAudioEffectStatePfS1_jii
x9g:_CustomAttributeTypedArgument_GetHashCode_m999147081_AdjustorThunk
I0b:__ZN26CustomRenderTextureManagerD2Ev
Dec:__Z32Input_Get_Custom_PropInputStringv
N2e:_FileStream_Read_m3880951166
tK:__ZN12AudioManager8TransferI24GenerateTypeTreeTransferEEvRT_
Yoa:__Z25GetBytesFromTextureFormat13TextureFormat
fva:__ZN9Texture3D19UnloadFromGfxDeviceEb
mPi:_AudioClipPlayable__ctor_m1273139759
bIb:__Z18Transfer_BlittableI17RemapPPtrTransferLb0EsEvRK29SerializationCommandArgumentsR31RuntimeSerializationCommandInfo
WQe:_Dictionary_2_Do_CopyTo_TisRuntimeObject_TisRuntimeObject_m2625001464_gshared
_4h:__ZL67Math_t2022911894_CustomAttributesCacheGenerator_Math_Min_m105057611P21CustomAttributesCache
wD:__ZN16MecanimAnimation25RegisterIAnimationBindingEPKN5Unity4TypeEiP17IAnimationBinding
H4:__Z32scripting_class_get_assemblyname17ScriptingClassPtr
DSc:__ZN11UnityEngine15PlatformWrapper15GetVRDeviceNameEv
cHh:_Dictionary_2_Resize_m2532139610_gshared
prj:_StackTraceUtility__cctor_m1132099289
tzf:_List_1_IndexOf_m2019441835_gshared
Wfi:__ZL85AudioClip_t1932558630_CustomAttributesCacheGenerator_AudioClip_get_length_m3881628918P21CustomAttributesCache
Wxg:_TimeSpan_Equals_m2029123271_AdjustorThunk
P2c:__ZN6il2cpp2vm13MetadataCache23GetInvokerMethodPointerEPK10MethodInfoPK20Il2CppGenericContext
iOa:__ZN9GfxDevice21RegisterNativeTextureE9TextureIDi16TextureDimension
OCe:_CultureInfo__ctor_m456863818
RCd:__ZN6il2cpp6icalls8mscorlib6System10Reflection4Emit11TypeBuilder20create_generic_classEP27Il2CppReflectionTypeBuilder
A5c:__ZNSt3__26vectorIPK10MethodInfoNS_9allocatorIS3_EEE26__swap_out_circular_bufferERNS_14__split_bufferIS3_RS5_EE
zof:_Enumerator_MoveNext_m2504790928_gshared
snh:_GUISkin_set_button_m412653849
Yi:_emscripten_glUniformMatrix4fv
Dhd:__ZN15dense_hashtableINSt3__24pairIK10KeyWrapperINS1_IP11Il2CppClassjEEES4_EES6_N6il2cpp8metadata14ArrayClassHashEN14dense_hash_mapIS6_S4_SB_NS6_14EqualsComparerINSA_17ArrayClassCompareEEENS0_9allocatorIS8_EEE9SelectKeyESF_SH_E13set_empty_keyERKS8_
fXb:__ZN12ScriptMapperD2Ev
Ypi:__ZL85AxisEventData_t1524870173_CustomAttributesCacheGenerator_U3CmoveDirU3Ek__BackingFieldP21CustomAttributesCache
OGd:_KeyedHashAlgorithm_Dispose_m1864300576
hnj:_X509Certificate_PEM_m49854707
DMi:_AnimatorControllerPlayable_GetParameter_m4243058543_AdjustorThunk
Djf:_PKCS12_get_RNG_m3620550062
yag:_X509BasicConstraintsExtension__ctor_m3320418592
rmj:_ExtendedKeyUsageExtension_Decode_m901297139
jUb:__Z32TransferEnumWithNameForceIntSizeI14SafeBinaryRead7FogModeEvRT_RT0_PKc17TransferMetaFlags
tic:__Z52Register_UnityEngine_RenderTexture_Internal_GetWidthv
pTh:__ZL89SafeWaitHandle_t481461830_CustomAttributesCacheGenerator_SafeWaitHandle__ctor_m1710231470P21CustomAttributesCache
$zd:_GC_check_leaked
NVb:__ZN9ShaderLab20SerializedSubProgram16TextureParameter8TransferI19StreamedBinaryWriteILb0EEEEvRT_
vNe:_Array_InternalArray__Insert_TisVector4_t2243707581_m1643342708_gshared
lhb:__ZNK7Hash12812PackToUInt32Ev
cyi:_Mask_OnSiblingGraphicEnabledDisabled_m865494155
b7f:_KeysCollection_System_Collections_ICollection_get_SyncRoot_m2289369147
HY:__ZN11UnityEngine15CloudWebService16SessionContainer8AddEventEPNS0_14CloudEventInfoE
cNa:__Z4TrimRKN4core12basic_stringIcNS_20StringStorageDefaultIcEEEES5_
CFi:_Text_set_resizeTextMaxSize_m4034967714
WSh:__ZL55GuidAttribute_t222072359_CustomAttributesCacheGeneratorP21CustomAttributesCache
Fkh:_GUIStyle_SetDefaultFont_m2095841351
i9g:_CustomAttributeNamedArgument_Equals_m2691468532
SPh:__ZL74String_t_CustomAttributesCacheGenerator_String_Concat_m3881798623____args0P21CustomAttributesCache
e$h:__ZL103CryptoConfig_t896479599_CustomAttributesCacheGenerator_CryptoConfig_CreateFromName_m2169102076____args1P21CustomAttributesCache
etb:__ZN10VertexData8TransferI14SafeBinaryReadEEvRT_
GL:__ZN4FMOD8ChannelI8setDelayE14FMOD_DELAYTYPEjj
toe:_Stack__ctor_m2410583781
VAd:_GC_malloc_atomic
xDd:__ZN6il2cpp5utils6Memory13AlignedMallocEjj
lah:_ConstructorBuilder_GetILGenerator_m1731893569
$od:__ZNSt3__214__split_bufferIN6il2cpp2vm5Image20EmbeddedResourceDataERNS_9allocatorIS4_EEED2Ev
N2:__ZL20SortItemByInstanceIDRKN18AwakeFromLoadQueue4ItemES2_
Reh:_TypeBuilder_create_runtime_class_m2719530260
kJd:_RNGCryptoServiceProvider_RngClose_m2921734810
Tli:__ZL85GUIStyle_t1799908754_CustomAttributesCacheGenerator_GUIStyle_set_richText_m1853532836P21CustomAttributesCache
iy:__ZNK34AnimationStateMachineMixerPlayable26GetInterruptedPosePlayableEv
kUc:__ZN20UnityConnectSettings8TransferI24GenerateTypeTreeTransferEEvRT_
BA:__ZN34BlobWriteTransferSTLStyleArrayImplI22OffsetPtrArrayTransferIbEEclERS1_17TransferMetaFlagsR9BlobWrite
i8h:__ZL199U3CCreateWhereIteratorU3Ec__Iterator1D_1_t2523986802_CustomAttributesCacheGenerator_U3CCreateWhereIteratorU3Ec__Iterator1D_1_System_Collections_Generic_IEnumeratorU3CTSourceU3E_get_Current_m517722874P21CustomAttributesCache
Nbf:_SimpleCollator_IsHalfKana_m4255579023
S4f:_InternalAsyncResult_get_Count_m1291942796
TCf:_Collection_1_System_Collections_IList_Contains_m3365884450_gshared
wvd:__ZNK15dense_hashtableINSt3__24pairIK10KeyWrapperIPK19Il2CppGenericMethodEP10MethodInfoEES6_N6il2cpp8metadata23Il2CppGenericMethodHashEN14dense_hash_mapIS6_S9_SD_NS6_14EqualsComparerINSC_26Il2CppGenericMethodCompareEEENS0_9allocatorISA_EEE9SelectKeyESH_SJ_E10test_emptyERK30dense_hashtable_const_iteratorISA_S6_SD_SL_SH_SJ_E
WSa:__Z16FlaggedAsSkippedIN4core12basic_stringIcNS0_20StringStorageDefaultIcEEEEEbRK13FileEntryInfoRKT_19FileEnumerationFlag
AKf:_Collection_1_set_Item_m3440986310_gshared
M8:__ZL31InitializeRendererUpdateManagerPv
WZd:_BaseMeshEffect__ctor_m2843647600
TVf:_ASN1__ctor_m3688855288
APg:__Z106RuntimeInvoker_RuntimeObject_Int16_t4041245914_RuntimeObject_BooleanU26_t3168250738_BooleanU26_t3168250738PFvvEPK10MethodInfoPvPS4_
lQ:__ZN13AudioPlayable22ClearFMODResourceCacheEPN4FMOD6SystemE
eS:__ZN13AudioListener12CleanupClassEv
uKj:_Terminal_Awake_m2961603900
x$f:_ClientSessionInfo_Dispose_m2571428025
Hae:_LayoutGroup_DelayedSetDirty_m4276695617
J2f:_RecordProtocol_decryptRecordFragment_m2510859489
Bli:__ZL105GUIStyle_t1799908754_CustomAttributesCacheGenerator_GUIStyle_INTERNAL_set_Internal_clipOffset_m2024478897P21CustomAttributesCache
HUd:_BaseRaycaster_get_sortOrderPriority_m3340181311
Ayb:__ZN11TimeManager8TransferI19StreamedBinaryWriteILb0EEEEvRT_
t3e:_DelegatePInvokeWrapper_ReadDelegate_t3184826381
c8h:__ZL91HashSet_1_t2624254809_CustomAttributesCacheGenerator_HashSet_1_OnDeserialization_m627602129P21CustomAttributesCache
QFc:_compare_uni_maps
gLc:__ZL34RegisterModuleICalls_TextRenderingv
sSc:__ZN11UnityEngine15PlatformWrapper27GetGraphicsCapsSupportFlagsEv
pMc:__ZNSt3__218__insertion_sort_3IRPFbPN2UI6CanvasES3_EPS3_EEvT0_S8_T_
iQh:__ZL80Decimal_t724701077_CustomAttributesCacheGenerator_Decimal_op_Explicit_m714968249P21CustomAttributesCache
Ixe:_Decimal_Equals_m1115043331
VMb:__ZN12NativeBufferI16Converter_StringE15SetupForWritingER9ArrayInfo
EYd:_StandaloneInputModule_DeactivateModule_m2952848884
iVj:___cxa_end_catch__wrapper
bpi:__ZL119RenderPipelineManager_t984453155_CustomAttributesCacheGenerator_RenderPipelineManager_CleanupRenderPipeline_m2242901458P21CustomAttributesCache
bGh:_ValueCollection_System_Collections_Generic_ICollectionU3CTValueU3E_Clear_m231380274_gshared
IVd:_Entry__ctor_m1176697586
Z0e:_BinaryReader_ReadUInt32_m1363572147
tei:__ZL119PlayableHandle_t213697122_CustomAttributesCacheGenerator_PlayableHandle_INTERNAL_CALL_SetInputCountInternal_m3510545880P21CustomAttributesCache
h4h:__ZL79Convert_t2607082565_CustomAttributesCacheGenerator_Convert_ToUInt32_m3391339025P21CustomAttributesCache
I8a:__ZN13MonoBehaviour22DoScriptRebuildWarningEv
fcc:__Z38Camera_CUSTOM_INTERNAL_CALL_RaycastTryP12Il2CppObjectRK3Rayfi
LFi:_Text_get_verticalOverflow_m3134063496
sjd:__ZN6il2cpp6icalls8mscorlib6System5Array13ClearInternalEP11Il2CppArrayii
kZi:_GCHandle_get_Target_m2327042781
Pag:_PublicKey_get_EncodedKeyValue_m3051963850
$Ng:__Z50RuntimeInvoker_Char_t3454481338_Single_t2076509932PFvvEPK10MethodInfoPvPS4_
ldd:__ZNK15dense_hashtableINSt3__24pairIK10KeyWrapperINS1_IPK11Il2CppImageP11Il2CppClassEEEjEES9_17ReflectionMapHashIS8_EN14dense_hash_mapIS9_jSD_NS9_14EqualsComparerINS0_8equal_toIS8_EEEENS0_9allocatorISB_EEE9SelectKeyESI_SK_E12test_deletedERK24dense_hashtable_iteratorISB_S9_SD_SM_SI_SK_E
UQj:_llvm_cttz_i32
Tag:_PublicKey_DecodeDSA_m1169363495
Slc:__ZN11IMGUIModule25GetGUIStyleScriptingClassEv
OIc:_tt_get_interface
JPe:_Array_Sort_TisRuntimeObject_m143182644_gshared
Kpg:_AsymmetricKeyExchangeFormatter__ctor_m3362140205
vkd:__ZN6il2cpp5utils9PathUtils7CombineIcEENSt3__212basic_stringIT_NS3_11char_traitsIS5_EENS3_9allocatorIS5_EEEERKSA_SC_
U6f:_NameObjectCollectionBase_BaseGet_m667273025
rMg:__Z104RuntimeInvoker_RuntimeObject_Byte_t3683104436_RuntimeObject_SByte_t454417549_RuntimeObject_RuntimeObjectPFvvEPK10MethodInfoPvPS4_
Esc:__ZN9JSONWrite8TransferI13dynamic_arrayIiLj4EEEEvRT_PKc17TransferMetaFlags
T1:__Z18ConvertUTF16toUTF8PPKtS0_PPhS2_15ConversionFlags
Rud:__ZN6il2cpp2os20PathErrnoToErrorCodeERKNSt3__212basic_stringIcNS1_11char_traitsIcEENS1_9allocatorIcEEEEi
kzg:_TypeLoadException__ctor_m1903359728
lXc:__ZL16my_g_bit_nth_msfj
$Dh:_Transform_1_BeginInvoke_m3014766640_gshared
lHd:_KeySizes__ctor_m3526899007
Shd:__ZN15dense_hashtableINSt3__24pairIK10KeyWrapperIP11Il2CppClassES4_EES5_N6il2cpp8metadata16SZArrayClassHashEN14dense_hash_mapIS5_S4_SA_NS5_14EqualsComparerINS9_19SZArrayClassCompareEEENS0_9allocatorIS7_EEE9SelectKeyESE_SG_E12expand_arrayEjN21dense_hash_map_traits17integral_constantIbLb0EEE
UYe:_Int16_System_IConvertible_ToInt32_m191782913_AdjustorThunk
cuj:_SpriteAtlasManager__cctor_m1344469326
Lni:__ZL69ArgumentCache_t4810721_CustomAttributesCacheGenerator_m_FloatArgumentP21CustomAttributesCache
SDf:_Collection_1_CopyTo_m1578267616_gshared
drg:_EncoderReplacementFallback__ctor_m2208438262
TYa:__Z23SetupStereoFlareElementP11FlareVertexRK8Vector2fS3_S3_RK11ColorRGBA32RK10Matrix4x4fRK8Vector3fb
MQg:__Z91RuntimeInvoker_X509ChainStatusFlags_t480677120_RuntimeObject_RuntimeObject_SByte_t454417549PFvvEPK10MethodInfoPvPS4_
eZc:__ZN6il2cpp2vm5Class15GetInstanceSizeEPK11Il2CppClass
s$g:__Z37RuntimeInvoker_Enumerator_t3806193287PFvvEPK10MethodInfoPvPS4_
sa:invoke_iiiifiiii
XOf:_ReadOnlyCollection_1_System_Collections_Generic_ICollectionU3CTU3E_Remove_m3751131234_gshared
oKh:_Dictionary_2_CopyTo_m1495142643_gshared
Ovc:__ZN9rapidjson8internal6u64toaEyPc
Szj:_EventFunction_1_BeginInvoke_m3064802067_gshared
R4h:__ZL67IndexOutOfRangeException_t3527622107_CustomAttributesCacheGeneratorP21CustomAttributesCache
zhd:__ZNK15dense_hashtableINSt3__24pairIK10KeyWrapperINS1_IP11Il2CppClassjEEES4_EES6_N6il2cpp8metadata14ArrayClassHashEN14dense_hash_mapIS6_S4_SB_NS6_14EqualsComparerINSA_17ArrayClassCompareEEENS0_9allocatorIS8_EEE9SelectKeyESF_SH_E12test_deletedERK30dense_hashtable_const_iteratorIS8_S6_SB_SJ_SF_SH_E
D1e:_Directory_GetFiles_m4036267478
_F:__Z64AnimationOffsetPlayable_CUSTOM_INTERNAL_CALL_GetRotationInternalR9HPlayableR11Quaternionf
wWe:_NumberFormatInfo_get_CurrencyNegativePattern_m3972163809
vKa:__ZL19BlitFramebufferImplRN4gles23BlitFramebufferDrawQuadER9GfxDevice9TextureIDRK8Vector4f
LHb:__Z18Transfer_BlittableI17RemapPPtrTransferLb0EhEvRK29SerializationCommandArgumentsR31RuntimeSerializationCommandInfo
ybd:__ZN15dense_hashtableINSt3__24pairIK10KeyWrapperIPK10Il2CppTypeEjEES6_N6il2cpp8metadata14Il2CppTypeHashEN14dense_hash_mapIS6_jSB_NS6_14EqualsComparerINSA_26Il2CppTypeEqualityComparerEEENS0_9allocatorIS8_EEE9SelectKeyESF_SH_E4findERS7_
xTg:__Z83RuntimeInvoker_Void_t1841601450_QuaternionU26_t4187826802_QuaternionU26_t4187826802PFvvEPK10MethodInfoPvPS4_
uNf:_ReadOnlyCollection_1_System_Collections_IList_Add_m2333231354_gshared
nzc:_UNITY_FT_List_Add
Heh:_OpCodes__cctor_m939885911
jG:__Z87Register_UnityEngine_Animations_AnimationPlayableOutput_INTERNAL_CALL_InternalGetTargetv
AXf:_PKCS1_RSASP1_m1748738009
Snb:__ZN12CubemapArray21AwakeFromLoadThreadedEv
xvh:_PlayableHandle_CompareVersion_m276961171
kmj:_UriParser_InitializeAndValidate_m251943319
yLd:_SymmetricAlgorithm_set_Padding_m3081984460
jyb:__ZN9InputAxis8TransferI18StreamedBinaryReadILb0EEEEvRT_
Ung:_StreamingContext_t1417235061_marshal_pinvoke_back
Die:_ArrayList_RemoveAt_m2578928333
rFb:__Z18Transfer_BlittableI14SafeBinaryReadLb0EaEvRK29SerializationCommandArgumentsR31RuntimeSerializationCommandInfo
AMf:_ReadOnlyCollection_1_System_Collections_IList_set_Item_m1233322304_gshared
ymj:_GeneralNames_get_DNSNames_m2721668874
NNg:__Z76RuntimeInvoker_Boolean_t3825574718_TimeSpan_t3430258949_TimeSpan_t3430258949PFvvEPK10MethodInfoPvPS4_
gAe:_Enum_System_IConvertible_ToByte_m38374586
iMf:_ReadOnlyCollection_1_System_Collections_Generic_IListU3CTU3E_RemoveAt_m1592158292_gshared
i7g:_PlatformNotSupportedException__ctor_m3301654967
qUj:_emscripten_glFrustum__wrapper
thi:__ZL126AnimatorControllerPlayable_t1744083903_CustomAttributesCacheGenerator_AnimatorControllerPlayable_CrossFadeInternal_m1115142950P21CustomAttributesCache
$2f:_ReceiveRecordAsyncResult_get_CompletedWithError_m2670396551
H5g:__Z37RuntimeInvoker_Enumerator_t2983962278PFvvEPK10MethodInfoPvPS4_
txe:_Decimal_Equals_m1798565377
klb:__ZN17GlobalGameManager8TransferI24GenerateTypeTreeTransferEEvRT_
HZg:__Z38RuntimeInvoker_ContentType_t1028629049PFvvEPK10MethodInfoPvPS4_
Ati:__ZL66InputField_t1631627530_CustomAttributesCacheGenerator_m_CaretColorP21CustomAttributesCache
Y6b:__ZNSt3__26vectorINS_4pairI11ShaderTagIDS2_EENS_9allocatorIS3_EEE6assignIPS3_EENS_9enable_ifIXaasr21__is_forward_iteratorIT_EE5valuesr16is_constructibleIS3_NS_15iterator_traitsISA_E9referenceEEE5valueEvE4typeESA_SA_
xbh:_TypeBuilder_check_created_m2929267877
kQg:__Z121RuntimeInvoker_Int64_t909078037_Int32_t2071877448_Int32_t2071877448_Int32_t2071877448_Int32_t2071877448_Int32_t2071877448PFvvEPK10MethodInfoPvPS4_
LVa:__Z20SyncFenceCullResultsR11CullResults
TLa:__ZN15TextureTFMethod20IsBoneCountSupportedEi
bF:__ZN26AnimatorControllerPlayable9GotoStateEiifff
Inh:_GUISkin_set_horizontalScrollbarThumb_m2119687595
fGe:_PlayableHandle_IsPlayableOfType_TisAudioMixerPlayable_t1831808911_m1065481197_AdjustorThunk
xmb:__ZN14RenderSettings23VirtualRedirectTransferER24GenerateTypeTreeTransfer
uue:_DateTime_System_IConvertible_ToSByte_m2575078084_AdjustorThunk
bJb:__Z22TransferField_NonArrayI17RemapPPtrTransfer27Converter_SimpleNativeClassI8GUIStyleEEvRK23StaticTransferFieldInfoR31RuntimeSerializationCommandInfoRT0_
eOi:_AnimatorStateInfo_IsTag_m1529621725_AdjustorThunk
L$b:__ZNK17AnimationCurveTplIfE20EvaluateWithoutCacheEfRf
Wsd:__ZN6il2cpp2os6Thread12QueueUserAPCEPFvPvES2_
sma:__ZN19ShaderPropertySheet10SetTextureERK23FastTexturePropertyNameP7Texture
PGe:_Array_InternalArray__IEnumerable_GetEnumerator_TisDictionaryEntry_t3048875398_m3498834924_gshared
tqh:_GUIStyleState__ctor_m3611888666
BFf:_Collection_1_IsValidItem_m1304951912_gshared
y6b:__ZN4Mesh10SetNormalsEPK8Vector3fj
nih:_PropertyInfo__ctor_m1808219471
Iqe:_Convert_ToDateTime_m4161927553
Dbh:_TypeBuilder_GetConstructors_m774120094
oji:__ZL87Canvas_t209405766_CustomAttributesCacheGenerator_Canvas_set_overrideSorting_m3982973573P21CustomAttributesCache
Er:__ZN17AnimationCurveTplIfE8TransferI14SafeBinaryReadEEvRT_
yWh:__ZL72AssemblyDefaultAliasAttribute_t1774139159_CustomAttributesCacheGeneratorP21CustomAttributesCache
PKg:__Z75RuntimeInvoker_Boolean_t3825574718_RuntimeObject_MonoIOErrorU26_t1029615899PFvvEPK10MethodInfoPvPS4_
Dkj:_RegularExpression_set_GroupCount_m2991393456
NBe:_Calendar_get_EraNames_m452820602
osb:__ZNSt3__26vectorIN15QualitySettings14QualitySettingENS_9allocatorIS2_EEE6assignIPS2_EENS_9enable_ifIXaasr21__is_forward_iteratorIT_EE5valuesr16is_constructibleIS2_NS_15iterator_traitsIS9_E9referenceEEE5valueEvE4typeES9_S9_
ahb:__ZNK5Unity9Component10GetEnabledEv
cXa:__ZNK19ShaderPropertySheet11HasPropertyERKN9ShaderLab16FastPropertyNameE
fue:_DateTime_System_IConvertible_ToByte_m2670443498_AdjustorThunk
WZ:__GLOBAL__sub_I_runtime_utilities4_lump_cpp
u7c:_il2cpp_class_get_image
V5:__Z16AsyncReadRequestP16AsyncReadCommand
n7h:__ZL81BigInteger_t925946153_CustomAttributesCacheGenerator_BigInteger__ctor_m4013661868P21CustomAttributesCache
rVf:_BigInteger_op_Addition_m1734797151
Itf:_List_1_CheckMatch_m1814522134_gshared
yEf:_Collection_1_System_Collections_IList_set_Item_m3488446830_gshared
Ybh:_EnumBuilder_CreateNotSupportedException_m62763134
RVc:__ZNK12HeaderHelper3GetERKN4core12basic_stringIcNS0_20StringStorageDefaultIcEEEE
bcg:_X509Chain_CheckRevocation_m2480313486
w7e:_Math_Log_m3371716878
Tkh:_GUILayoutUtility_Layout_m3812180708
ayb:__ZN9InputAxis8TransferI14SafeBinaryReadEEvRT_
a3:__ZNK21ExecutionOrderManager30GetCustomAwakeFromLoadQueueForEPKN5Unity4TypeE
oVc:__Z27RegisterModule_UnityConnectv
Med:__ZN6il2cpp2vm10Reflection27GetCustomAttributesCacheForEP25Il2CppReflectionParameter
Xih:_ParameterInfo_get_IsRetval_m1881464570
vRi:_Bounds_get_size_m1728027642_AdjustorThunk
_jg:_RealProxy__ctor_m3041043303
FUe:_NumberFormatter_Init_m2654758994
YGd:_HMACSHA1__ctor_m1168389339
Qbi:__ZL100Input_t1785128008_CustomAttributesCacheGenerator_Input_INTERNAL_get_compositionCursorPos_m2426914348P21CustomAttributesCache
MF:__Z96Register_UnityEngine_Animations_AnimationClipPlayable_INTERNAL_CALL_SetRemoveStartOffsetInternalv
_M:__ZN10ObjectPoolIN4FMOD12ChannelGroupENS0_13ChannelGroupIEE7SetSizeEi
Gef:_PrimalityTest_BeginInvoke_m966469054
Yca:__ZN15dense_hashtableINSt3__24pairIKN4core12basic_stringIcNS2_20StringStorageDefaultIcEEEE13dynamic_arrayI4PPtrI6SpriteELj4EEEES6_20StringHash32FunctionIS6_EN14dense_hash_mapIS6_SC_SF_NS0_8equal_toIS6_EE13stl_allocatorISD_L18MemLabelIdentifier79ELi16EEE9SelectKeyESI_SL_E9copy_fromERKSO_j
jCg:_UInt64_System_IConvertible_ToInt16_m2797150165_AdjustorThunk
FSe:_Array_InternalArray__get_Item_TisLabelData_t3712112744_m863115768_gshared
y_e:_Int32_Parse_m753946802
gsh:_Material_DisableKeyword_m1204728089
J_:__Z22ValidateTlsfAllocationPvjiS_
Azf:_List_1_RemoveAt_m2331128844_gshared
vgd:__ZN14dense_hash_mapI10KeyWrapperINSt3__24pairIPK9EventInfoP11Il2CppClassEEEj17ReflectionMapHashIS8_ENS9_14EqualsComparerINS1_8equal_toIS8_EEEENS1_9allocatorINS2_IKS9_jEEEEE15set_deleted_keyERSH_
nfh:_UnmanagedMarshal_ToMarshalAsAttribute_m3695569337
OGb:__Z14resize_trimmedINSt3__26vectorI17AnimationCurveTplIfE13stl_allocatorIS3_L18MemLabelIdentifier1ELi16EEEEEvRT_j
_6a:__ZN25CameraStackRenderingState19SetupLastEyeCamerasERK11CameraStack
Qac:__Z12GUIDToStringRK9UnityGUID
aXc:__GLOBAL__sub_I_runtime_vr_plugininterface_lump_cpp
eae:_LayoutElement_get_minHeight_m2070403283
mJ:__ZN11SoundHandleC2ERKS_
dyi:_Mask_OnEnable_m501850981
tXf:_RSASslSignatureFormatter__ctor_m2530528184
Z1c:__ZNK6il2cpp5utils11collections13ArrayValueMapIPK10Il2CppType17Il2CppInteropData26InteropDataToTypeConverterNS_8metadata14Il2CppTypeLessENS8_26Il2CppTypeEqualityComparerEE10find_firstERKS5_
FG:__Z75AnimatorControllerPlayable_CUSTOM_INTERNAL_CALL_GetAnimatorClipInfoInternalR9HPlayableihP12Il2CppObject
lef:_BigInteger_op_Addition_m1196561843
Ecb:__Z29StdTemplateConversionFunctionItxEbPvR14SafeBinaryRead
L$i:_FormatterData__ctor_m3974986124
pVh:__ZL64FileNotFoundException_t4200667904_CustomAttributesCacheGeneratorP21CustomAttributesCache
wId:_RijndaelManagedTransform_get_CanReuseTransform_m3735256596
Fle:_Comparer__cctor_m1327316974
y1e:_MonoIO_ExistsFile_m1421941572
Eve:_DateTime_op_GreaterThanOrEqual_m3818963848
Lza:__ZNSt3__26__treeINS_12__value_typeI18VertexChannelsInfoP17VertexDeclarationEENS_19__map_value_compareIS2_S5_NS_4lessIS2_EELb1EEE13stl_allocatorIS5_L18MemLabelIdentifier14ELi16EEE12__find_equalIS2_EERPNS_16__tree_node_baseIPvEENS_21__tree_const_iteratorIS5_PNS_11__tree_nodeIS5_SG_EEiEESJ_RKT_
Av:__ZN17AnimationPlayable18DeallocateBindingsEv
$9a:__ZN6Camera25StandaloneRenderToCubemapEP7TextureiPFvPK9SceneNodePK4AABBR9IndexListPvESA_j
_0d:_DefaultControls_SetDefaultTextValues_m1707718380
ZYd:_TouchInputModule_UseFakeInput_m2112019004
_Ud:_EventSystem_get_baseEventDataCache_m4294741599
Cmb:__ZN14RenderSettings18TransferDeprecatedI14SafeBinaryReadEEvRT_
Uli:__ZL85GUIStyle_t1799908754_CustomAttributesCacheGenerator_GUIStyle_Internal_Draw_m694122665P21CustomAttributesCache
p$:__ZN12TLSAllocatorI14StackAllocatorE8AllocateEji
X3:__ZN16ScriptingManager18GetMonoScriptCacheEi
dIg:__Z62RuntimeInvoker_Void_t1841601450_RuntimeObject_Int64_t909078037PFvvEPK10MethodInfoPvPS4_
Vlh:_GUIStyle_get_stretchHeight_m3396762700
DJa:__ZNSt3__227__insertion_sort_incompleteIR25ValueParameterArraySorterPN20GpuProgramParameters14ValueParameterEEEbT0_S6_T_
f5d:_GridLayoutGroup_CalculateLayoutInputHorizontal_m2355123124
$7h:__ZL84Locale_t4255929017_CustomAttributesCacheGenerator_Locale_GetText_m512920887____args1P21CustomAttributesCache
yFb:__Z18Transfer_BlittableI14SafeBinaryReadLb1EyEvRK29SerializationCommandArgumentsR31RuntimeSerializationCommandInfo
Zoi:__ZL89U3CInvokeMessageIdSubscribersU3Ec__AnonStorey0_t1899782350_CustomAttributesCacheGeneratorP21CustomAttributesCache
ipc:__ZN8JSONRead8TransferIfEEvRT_PKc17TransferMetaFlagsb
s2i:_U3CGetEnumeratorU3Ec__Iterator0_Reset_m2980566576_gshared
IUi:_Coroutine__ctor_m1253937571
TQf:_ReadOnlyCollection_1_System_Collections_ICollection_get_IsSynchronized_m4063596282_gshared
see:__ZN21InterfaceFuncInvoker2IP12Il2CppObjectP6Type_tS1_E6InvokeEjP11Il2CppClassS1_S3_S1_
FPj:__ZNSt3__212basic_stringIcNS_11char_traitsIcEENS_9allocatorIcEEE6appendEPKcj
hWh:__ZL54TypeBuilder_t3308873219_CustomAttributesCacheGeneratorP21CustomAttributesCache
Mqa:__ZN6prcoreL17RemapGenericFloatI18TexFormatARGBFloat17TexFormatRGBAHalfEEvPKNS_9InnerInfoE
$Gf:_Collection_1_CheckWritable_m691269733_gshared
BO:__ZN11AudioSource21ApplyCachedParametersE12SoundChannel
D5g:__Z54RuntimeInvoker_Void_t1841601450_IntPtr_t_RuntimeObjectPFvvEPK10MethodInfoPvPS4_
Ach:_GenericTypeParameterBuilder_GetAttributeFlagsImpl_m3338182267
RU:__ZN13Simd4iFactoryIN6detail9FourTupleEEC2Eiiii
T5e:_SynchronizedReader__ctor_m1408327515
Epj:_X509Store_LoadCrl_m1146720614
z1g:__Z59RuntimeInvoker_Int32_t2071877448_KeyValuePair_2_t3749587448PFvvEPK10MethodInfoPvPS4_
TRf:_ReadOnlyCollection_1_System_Collections_IList_Clear_m1858417639_gshared
lne:_Slot_t2022531261_marshal_pinvoke_cleanup
FOi:_LogCallback__ctor_m898185969
lqb:__ZN15SerializeTraitsI33EnlightenTerrainChunksInformationE8TransferI14SafeBinaryReadEEvRS0_RT_
NLj:_Predicate_1__ctor_m1567825400_gshared
V1b:__ZNK32RendererMaterialAnimationBinding9BindValueER6ObjectRKN11UnityEngine9Animation14GenericBindingERNS3_10BoundCurveE
lnb:__Z13GetIAnimationv
Jva:__ZL18stbir__support_onef
rsf:_List_1_System_Collections_IList_Remove_m2040310137_gshared
sgj:_Match_get_Regex_m3526002767
BVh:__ZL49Stream_t3255436806_CustomAttributesCacheGeneratorP21CustomAttributesCache
qrc:__Z26Transfer_UnityEngineObjectI9JSONWriteLb0EEvRK29SerializationCommandArgumentsR31RuntimeSerializationCommandInfo
pha:__ZN9ShaderLab4Pass9ApplyPassEjPK19ShaderPropertySheetR17ShaderPassContextP6ShaderiPKNS_10GrabPassesEPNS_11SubProgramsE
rna:__ZNSt3__26vectorIN4core12basic_stringIcNS1_20StringStorageDefaultIcEEEE13stl_allocatorIS5_L18MemLabelIdentifier1ELi16EEE6assignINS_11__wrap_iterIPS5_EEEENS_9enable_ifIXaasr21__is_forward_iteratorIT_EE5valuesr16is_constructibleIS5_NS_15iterator_traitsISF_E9referenceEEE5valueEvE4typeESF_SF_
qBg:_UInt32_System_IConvertible_ToInt16_m2251335934_AdjustorThunk
kNc:__ZNSt3__27__sort5IRNS_6__lessIN2UI14DepthSortEntryES3_EEPS3_EEjT0_S7_S7_S7_S7_T_
cee:_Boolean_System_IConvertible_ToType_m3990189691
hdd:__ZNSt3__218uninitialized_copyIPNS_4pairIK10KeyWrapperINS1_IPK11Il2CppImageP11Il2CppClassEEEjEESC_EET0_T_SE_SD_
Ba:invoke_vdd
Jsd:__ZN6il2cpp2os6ThreadC2EPNS0_10ThreadImplE
naj:_InternalEnumerator_1_Dispose_m3838127340_AdjustorThunk
Gze:_Double_System_IConvertible_ToUInt32_m624993430
Fn:FUNCTION_TABLE_fiif
sqi:__ZL89PointerEventData_t1599784723_CustomAttributesCacheGenerator_U3CdraggingU3Ek__BackingFieldP21CustomAttributesCache
$Kc:__ZZ29InitializeTextRenderingModulevEN27cleanupAfterLoadRegistrator7ForwardEv
Rwg:_Scheduler_Add_m376749205
ww:__ZN27AnimationLayerMixerPlayable24ProcessAnimationLayerMixEP33AnimationPlayableEvaluationOutputP35AnimationPlayableEvaluationConstantP32AnimationPlayableEvaluationInputS1_if
x6a:__Z29PluginsIssueRenderingExtEvent26UnityRenderingExtEventTypePv
P8f:_IPv6Address_SwapUShort_m1481806078
fcj:_InternalEnumerator_1_Dispose_m3464626239_AdjustorThunk
V0b:__Z14RandomRotationP9Texture2DPhiiii
Wkg:_SingleCallIdentity__ctor_m1512303454
R8i:_InternalEnumerator_1_MoveNext_m1594563423_AdjustorThunk
Wbf:_SimpleCollator_IsIgnorable_m2485013022
sji:__ZL86Canvas_t209405766_CustomAttributesCacheGenerator_Canvas_get_sortingLayerID_m1396307660P21CustomAttributesCache
bxf:_List_1_System_Collections_IList_Insert_m2036969360_gshared
H8d:_InputField_GetUnclampedCharacterLineFromPosition_m1912794077
YKi:_AnimatorControllerPlayable_SetTrigger_m2446912300
U2e:_ReadDelegate__ctor_m885671467
bwe:_DateTimeOffset_ToString_m2121173678_AdjustorThunk
K7h:__ZL50X509Crl_t1699034837_CustomAttributesCacheGeneratorP21CustomAttributesCache
_Pg:__Z74RuntimeInvoker_RuntimeObject_RuntimeObject_Int16_t4041245914_RuntimeObjectPFvvEPK10MethodInfoPvPS4_
kj:_JS_WebRequest_SetResponseHandler
x_j:_glDeleteProgram__wrapper
mcc:__Z50Register_UnityEngine_Camera_INTERNAL_get_pixelRectv
Bfi:__ZL119AudioClipPlayable_t192218916_CustomAttributesCacheGenerator_AudioClipPlayable_INTERNAL_CALL_GetClipInternal_m2079955679P21CustomAttributesCache
cqa:__ZN6prcoreL18BlitFloatToIntegerERK14ImageReferenceRS0_
fkf:_X509CertificateCollection_get_Item_m410866272
amh:_Rect_get_yMax_m2915146103
PCj:_EqualityComparer_1_System_Collections_IEqualityComparer_Equals_m1705945391_gshared
m$b:__Z13GetIPhysics2Dv
aY:__ZN11UnityEngine15CloudWebService14RestDownloader17OnCompleteContentEv
rad:__ZN15dense_hashtableINSt3__24pairIK10KeyWrapperINS1_IPK14Il2CppAssemblyP11Il2CppClassEEEjEES9_17ReflectionMapHashIS8_EN14dense_hash_mapIS9_jSD_NS9_14EqualsComparerINS0_8equal_toIS8_EEEENS0_9allocatorISB_EEE9SelectKeyESI_SK_E15insert_noresizeERKSB_
cQg:__Z75RuntimeInvoker_RuntimeObject_RuntimeObject_Double_t4078015681_RuntimeObjectPFvvEPK10MethodInfoPvPS4_
rPg:__Z200RuntimeInvoker_Boolean_t3825574718_RuntimeObject_RuntimeObject_RuntimeObject_Int32_t2071877448_DateTimeU26_t3448131235_SByte_t454417549_BooleanU26_t3168250738_SByte_t454417549_ExceptionU26_t1467204777PFvvEPK10MethodInfoPvPS4_
Ra:invoke_viffi
Qaa:__ZNSt3__26vectorI20ProcessCallbackGroupNS_9allocatorIS1_EEEC2ERKS4_
uy:__ZN17AnimationPlayable28UpdateInternalStateRecursiveILi1ELb0EEEvPK35AnimationPlayableEvaluationConstant
Yzf:_List_1_System_Collections_ICollection_get_SyncRoot_m1429670979_gshared
Ua:invoke_vifff
J3i:_InternalEnumerator_1__ctor_m2111763266_gshared
Rec:__Z53Register_UnityEngine_Input_INTERNAL_get_mousePositionv
iZj:_glGetVertexAttribiv__wrapper
Ue:_emscripten_request_fullscreen
nyh:_Rect_get_xMin_m1161102488
_xh:_RaycastHit2D_get_normal_m3768105386_AdjustorThunk
Jea:__ZN20LocalFileSystemWebGL6DeleteER13FileEntryDatab
fxe:_Decimal_System_IConvertible_ToUInt16_m1621568250
We:_emscripten_glDisableVertexAttribArray
eei:__ZL79Object_t1021602117_CustomAttributesCacheGenerator_Object_Instantiate_m938141395P21CustomAttributesCache
Wm:FUNCTION_TABLE_iiiifiiii
Mxg:_TimeSpan_get_TotalMinutes_m1645177229_AdjustorThunk
rc:invoke_fifffi
REh:_Enumerator__ctor_m3539306986_gshared
DGa:__ZN4gles23ClearCurrentFramebufferEP7ApiGLESbbbRK10ColorRGBAffi
Xw:__ZN7mecanim12statemachine20CreateStateWorkspaceEjjjRNS_6memory9AllocatorE
uff:__ZN21InterfaceFuncInvoker3IP22ByteU5BU5D_t3397334013S1_iiE6InvokeEjP11Il2CppClassP12Il2CppObjectS1_ii
I4i:_InternalEnumerator_1_System_Collections_IEnumerator_get_Current_m3680087284_gshared
ff:_emscripten_glDeleteObjectARB
sIa:__Z14DecompressDXT3iiiPKjPj
J6e:_UnexceptionalStreamReader_Read_m3839775235
sra:__ZN6prcoreL27StretchGenericFloatBilinearI18TexFormatARGBFloatEEvPKNS_9InnerInfoE
uic:__Z53Register_UnityEngine_RenderTexture_Internal_GetHeightv
BTe:_Dropdown_GetOrAddComponent_TisRuntimeObject_m2875934266_gshared
mkg:_RealProxy_SetTargetDomain_m3940877656
dra:__ZN6prcoreL17RemapGenericFloatI17TexFormatRGBAHalf18TexFormatARGBFloatEEvPKNS_9InnerInfoE
mAe:_Enum_System_IConvertible_ToInt32_m2459904362
ulc:__ZNK8GUIStyle21DrawWithTextSelectionER8GUIStateRK5RectTIfER10GUIContentbbbbbiiRK10ColorRGBAfSA_
fQg:__Z61RuntimeInvoker_RuntimeObject_Double_t4078015681_RuntimeObjectPFvvEPK10MethodInfoPvPS4_
BNg:__Z211RuntimeInvoker_Int32_t2071877448_RuntimeObject_Int32_t2071877448_Int32_t2071877448_Int32_t2071877448_Int32_t2071877448_RuntimeObject_DecoderFallbackBufferU26_t3597875002_ByteU5BU5DU26_t790777611_SByte_t454417549PFvvEPK10MethodInfoPvPS4_
Ilc:__Z14GetBuiltinSkini
oTd:_DecoderReplacementFallbackBuffer_Reset_m2576819665
lbj:_InternalEnumerator_1_MoveNext_m607849555_AdjustorThunk
WTd:_BaseInput_set_compositionCursorPos_m2632248731
rEj:_Enumerator_System_Collections_IEnumerator_Reset_m2573763156_gshared
m1e:_DirectoryInfo_Initialize_m2216118894
dOd:_WindowsIdentity_Dispose_m2649088337
RXb:__ZN2UI13RectTransform23VirtualRedirectTransferER14SafeBinaryRead
sxj:_InvokableCall_1__ctor_m54675381_gshared
_8e:_MonoType_GetMethodImpl_m593754598
Fpf:_List_1_System_Collections_ICollection_get_SyncRoot_m3733894943_gshared
Nvf:_List_1_Reverse_m302978607_gshared
tUb:__ZNSt3__26vectorIN9ShaderLab20SerializedSubProgramENS_9allocatorIS2_EEE6assignIPS2_EENS_9enable_ifIXaasr21__is_forward_iteratorIT_EE5valuesr16is_constructibleIS2_NS_15iterator_traitsIS9_E9referenceEEE5valueEvE4typeES9_S9_
ptc:__Z18Transfer_BlittableI8JSONReadLb0E8BitFieldEvRK29SerializationCommandArgumentsR31RuntimeSerializationCommandInfo
glg:_SoapServices_RegisterInteropXmlType_m2949236705
_bd:__ZNK15dense_hashtableINSt3__24pairIK10KeyWrapperIPK10Il2CppTypeEjEES6_N6il2cpp8metadata14Il2CppTypeHashEN14dense_hash_mapIS6_jSB_NS6_14EqualsComparerINSA_26Il2CppTypeEqualityComparerEEENS0_9allocatorIS8_EEE9SelectKeyESF_SH_E10test_emptyERK24dense_hashtable_iteratorIS8_S6_SB_SJ_SF_SH_E
fOb:__ZL17Transfer_GUIStyleI18StreamedBinaryReadILb1EELb0EEvRK29SerializationCommandArgumentsR31RuntimeSerializationCommandInfo
jSd:_String_CharCopy_m2550399897
jSg:__Z234RuntimeInvoker_RuntimeObject_Int16_t4041245914_RuntimeObject_Int32_t2071877448_Int32_t2071877448_Int32_t2071877448_SByte_t454417549_SByte_t454417549_SByte_t454417549_SByte_t454417549_Int16_t4041245914_SByte_t454417549_SByte_t454417549PFvvEPK10MethodInfoPvPS4_
CSb:__ZN9ShaderLab14SerializedPass8TransferI14SafeBinaryReadEEvRT_
Amc:__Z71Register_UnityEngine_GUILayoutUtility_INTERNAL_CALL_Internal_MoveWindowv
rS:__ZN12AudioManager16SetListenerPauseEb
Ekd:__ZN6il2cpp2vm9Exception25RaiseOutOfMemoryExceptionERKNS_5utils10StringViewIDsEE
QEf:_Collection_1_IsValidItem_m2254106115_gshared
Mbh:_TypeBuilder_GetEvent_m3876348075
SEi:_Slider_OnMove_m641164662
da:invoke_viiiiiiiiiii
gMj:___syscall_ret
Uwg:_Scheduler__ctor_m3716265742
jhf:_MACAlgorithm_Final_m4076939925
_8c:__ZNSt3__212basic_stringIcNS_11char_traitsIcEENS_9allocatorIcEEE6assignINS_11__wrap_iterIPKcEEEENS_9enable_ifIXaasr21__is_forward_iteratorIT_EE5valuesr38__libcpp_string_gets_noexcept_iteratorISC_EE5valueERS5_E4typeESC_SC_
b2f:_TlsServerKeyExchange_ProcessAsSsl3_m462106368
Ltb:__ZN11ChannelInfo8TransferI19StreamedBinaryWriteILb0EEEEvRT_
o4i:_InternalEnumerator_1_System_Collections_IEnumerator_get_Current_m3583252352_gshared
nbh:_EnumBuilder_get_FullName_m2818393911
KZa:__ZN14qsort_internal13Partition3WayIP17RODataReplacementi19ROSorterReplacementEENSt3__24pairIT_S6_EES6_S6_T0_T1_
S4e:_StreamAsyncResult_get_Done_m2858832609
hec:__Z34Register_UnityEngine_Gradient_Initv
iBj:_ObjectPool_1_set_countAll_m1742773675_gshared
Cng:_SerializationEntry_get_Value_m1628109884_AdjustorThunk
xUd:_BaseInputModule_GetAxisEventData_m3903709281
USe:_Array_InternalArray__get_Item_TisUriScheme_t1876590943_m1821482697_gshared
uUf:_BigInteger__ctor_m3239748086
eea:__ZN13ScreenManager23SetIsOrientationEnabledE18EnabledOrientationb
cGj:__ZL24UnresolvedVirtualCall_57P12Il2CppObjectiPK10MethodInfo
J3h:__ZL79Convert_t2607082565_CustomAttributesCacheGenerator_Convert_ToUInt16_m1043031438P21CustomAttributesCache
Cw:__ZN7mecanim5human25HumanPoseAddOverrideLayerERNS0_9HumanPoseERKS1_fRKNS_6bitsetILj70EEE
F$b:__ZN13ProduceHelperI9TransformLb0EE7ProduceE18MemLabelIdentifier18ObjectCreationMode
roc:__Z45Register_UnityEngine_GUIStyle_GetFontInternalv
tHi:_AnimationEvent_set_floatParameter_m4139544688
_Rg:__Z42RuntimeInvoker_AlertDescription_t844791462PFvvEPK10MethodInfoPvPS4_
Zij:_Alternation_get_Alternatives_m1445219249
UKh:_DefaultComparer_GetHashCode_m2506382068_gshared
tUi:_Component_SendMessageUpwards_m19741277
IOh:_EqualityComparer_1_System_Collections_IEqualityComparer_GetHashCode_m1012273405_gshared
hLe:_Array_InternalArray__ICollection_Add_TisHitInfo_t1761367055_m2956071622_gshared
Jaj:_InternalEnumerator_1_MoveNext_m470170271_AdjustorThunk
u9a:__ZN10GameObject23VirtualRedirectTransferER18StreamedBinaryReadILb0EE
dnf:_Enumerator_get_Current_m2577424081_gshared
Fdj:_InternalEnumerator_1_Dispose_m2270401482_AdjustorThunk
wg:_glFrontFace
bng:_ObjectRecord_get_IsUnsolvedObjectReference_m2202692850
Eeg:_FactoryCache_Cleanup_m4130035987
p0i:__ZN23InterfaceActionInvoker1IP18Context_t502196753E6InvokeEjP11Il2CppClassP12Il2CppObjectS1_
ME:__ZN26AnimatorControllerPlayable14SetLayerWeightEif
D_b:__ZN13ProduceHelperI19LowerResBlitTextureLb0EE7ProduceE18MemLabelIdentifier18ObjectCreationMode
O2a:__ZNSt3__26vectorI16ShadowCasterData13stl_allocatorIS1_L18MemLabelIdentifier2ELi16EEE21__push_back_slow_pathIKS1_EEvRT_
VFe:_PlayableHandle_IsPlayableOfType_TisAnimationClipPlayable_t4099382200_m682525715_AdjustorThunk
gyj:_UnityAction_1_Invoke_m1279802577_gshared
UBg:_UInt32_ToString_m1783596809
wtj:_Vector3_get_forward_m1201659139
zAf:_List_1_Sort_m269561757_gshared
Xli:__ZL110GUIStyle_t1799908754_CustomAttributesCacheGenerator_GUIStyle_INTERNAL_CALL_Internal_DrawPrefixLabel_m557487542P21CustomAttributesCache
ILc:__Z51Register_UnityEngine_TextGenerator_GetLinesInternalv
MEj:_HashSet_1_Init_m1258286688_gshared
LFf:_Collection_1_System_Collections_IList_Contains_m3345685421_gshared
ANf:_ReadOnlyCollection_1_System_Collections_IList_RemoveAt_m525136953_gshared
CIe:__ZN21InterfaceFuncInvoker1Ii19Vector4_t2243707581E6InvokeEjP11Il2CppClassP12Il2CppObjectS0_
v9c:__ZNSt3__26vectorIN6il2cpp2vm17TypeNameParseInfoENS_9allocatorIS3_EEEC2ERKS6_
ZBg:_UInt64_System_IConvertible_ToBoolean_m3012279573_AdjustorThunk
Mzg:_Type_get_IsGenericTypeDefinition_m2147901038
ERa:__ZN12HandlerChain10ToAbsoluteEPKc
M0i:_ContextAttribute_Freeze_m4133346275
VJg:__Z34RuntimeInvoker_DateTime_t693205669PFvvEPK10MethodInfoPvPS4_
bUe:_GregorianCalendar__ctor_m3794576475
PBg:_UInt32_TryParse_m4283512434
NHh:__ZN21InterfaceFuncInvoker2Ib8IntPtr_tS0_E6InvokeEjP11Il2CppClassP12Il2CppObjectS0_S0_
opd:__ZN15dense_hashtableI10KeyWrapperIP18Il2CppGenericClassES3_N6il2cpp8metadata22Il2CppGenericClassHashEN14dense_hash_setIS3_S6_NS3_14EqualsComparerINS5_25Il2CppGenericClassCompareEEENSt3__29allocatorIS3_EEE8IdentityESA_SD_E8min_sizeEjj
dJ:__ZN9AudioClip11CreateSoundEv
xCh:_ShimEnumerator_MoveNext_m3313047792_gshared
CFf:_Collection_1_ConvertItem_m2185647560_gshared
ryg:_TimeSpan_op_Inequality_m257547441
zvg:_ExecutionContext_GetObjectData_m1456913356
Jgd:__ZN14dense_hash_mapI10KeyWrapperINSt3__24pairIPK9FieldInfoP11Il2CppClassEEEj17ReflectionMapHashIS8_ENS9_14EqualsComparerINS1_8equal_toIS8_EEEENS1_9allocatorINS2_IKS9_jEEEEEC2EjRKSB_RKSF_
fuh:_Object_set_hideFlags_m2204253440
jcd:__ZNK15dense_hashtableINSt3__24pairIK10KeyWrapperINS1_IPK10MethodInfoP11Il2CppClassEEEjEES9_17ReflectionMapHashIS8_EN14dense_hash_mapIS9_jSD_NS9_14EqualsComparerINS0_8equal_toIS8_EEEENS0_9allocatorISB_EEE9SelectKeyESI_SK_E13find_positionERSA_
fbh:_EnumBuilder_get_Assembly_m4285228003
PDa:__ZN13GfxDeviceGLES20CreateComputeProgramEPKhj
Dwh:_PlayableOutput__ctor_m3826671654
WVe:_DateTimeFormatInfo_get_RoundtripPattern_m562440017
MUc:__ZN11UnityEngine7Connect16PersistentValues13RestoreValuesER8JSONRead
kTa:__ZN20ArchiveStorageReader31TryToReadDirectoryFromBlockDataEyPKvj
WLh:_DefaultComparer__ctor_m3947565964_gshared
lze:_Double_System_IConvertible_ToByte_m3004284950_AdjustorThunk
klg:_TypeEntry_get_AssemblyName_m1762285107
snd:__ZN6il2cpp2vmL11GetIdentityEP14Il2CppIUnknown
Kgf:_SmallXmlParser_ReadCDATASection_m2558307107
Kzd:_GC_push_gc_structures
GZd:_AspectRatioFitter_get_aspectRatio_m3023618874
X5c:__ZN6il2cpp6icalls8mscorlib6SystemL8IsPublicEPK9EventInfo
Cgg:_Enumerator__ctor_m3782962052
noe:_Enumerator_get_Current_m1271212567
Vwd:__ZThn4_N6il2cpp2vm13ComObjectBase18ReleaseMarshalDataEP13Il2CppIStream
fNa:__Z22GetShaderCachePathGLESv
LOg:__Z51RuntimeInvoker_UInt16_t986882611_Double_t4078015681PFvvEPK10MethodInfoPvPS4_
orh:_Input_set_compositionCursorPos_m1615567306
p8f:_IPAddress_ParseIPV6_m2209709575
wBi:_U3CClickRepeatU3Ec__Iterator0_MoveNext_m1747924386
STf:_Comparison_1_Invoke_m1670081898_gshared
lGi:_Toggle_set_group_m3833595685
_ae:_LayoutRebuilder_ForceRebuildLayoutImmediate_m566681977
cub:__ZNSt3__213__stable_sortIRNS_4lessI4PPtrI11SpriteAtlasEEENS_11__wrap_iterIPS4_EEEEvT0_SA_T_NS_15iterator_traitsISA_E15difference_typeEPNSD_10value_typeEi
UMa:__ZNSt3__26vectorIPN19ConstantBuffersGLES11ConstBufferENS_9allocatorIS3_EEE21__push_back_slow_pathIKS3_EEvRT_
VVg:__Z74RuntimeInvoker_AnimatorControllerPlayable_t1744083903_Playable_t1896841784PFvvEPK10MethodInfoPvPS4_
pLe:_Array_InternalArray__ICollection_Add_TisVector4_t2243707581_m698578249_gshared
T0:__ZN8keywords6CreateEPKc
S:Math_imul
yoh:_GUIStyle_set_active_m2896743432
Fxb:__ZN14SpriteRenderer15SetupPropertiesEv
Csb:__ZN11PlayerPrefs6GetIntERKN4core12basic_stringIcNS0_20StringStorageDefaultIcEEEEi
K0c:__ZN6il2cpp5utils13dynamic_arrayIPK10Il2CppTypeLj4EEC2ERKS5_
HOd:_SecurityFrame_t1002202659_marshal_pinvoke_back
qLc:__Z45TextGenerator_CUSTOM_INTERNAL_get_rectExtentsP12Il2CppObjectP5RectTIfE
OYf:_CertificateValidationCallback_Invoke_m2500463874
Yli:__ZL102GUIStyle_t1799908754_CustomAttributesCacheGenerator_GUIStyle_Internal_GetCursorFlashOffset_m3177259302P21CustomAttributesCache
qGe:_SetPropertyUtility_SetStruct_TisChar_t3454481338_m2333420724_gshared
TEf:_Collection_1_IsSynchronized_m2601980439_gshared
Ime:_Hashtable_ContainsKey_m2716576664
mT:__ZN11AudioSource12SetAudioClipEP9AudioClip
Vgj:_PatternCompiler_EmitCategory_m1696942454
qxe:_Decimal_decimalFloorAndTrunc_m3655683429
JLe:_Array_InternalArray__ICollection_CopyTo_TisInt32_t2071877448_m984622488_gshared
J1:__ZN18ScriptingArguments9AddObjectE18ScriptingObjectPtr
tPc:__Z39CanvasGroup_Get_Custom_PropInteractableP12Il2CppObject
mV:__ZN11UnityEngine15CloudWebService16SessionContainerD2Ev
Zpi:__ZL97AxisEventData_t1524870173_CustomAttributesCacheGenerator_AxisEventData_get_moveVector_m1338727516P21CustomAttributesCache
TGa:__ZN17GenericDynamicVBOC2ER9GfxDevice13GfxBufferModejj
j0i:_Context_get_HasDynamicSinks_m1998518649
Fkc:__ZZN10GUIManager14InitGUIManagerEvEN41PreUpdateIMGUISendQueuedEventsRegistrator7ForwardEv
hLi:_AnimatorControllerPlayable_ResetTrigger_m758725835_AdjustorThunk
FW:__ZN11UnityEngine15CloudWebService17SessionEventQueue10PurgeItemsEj
$zh:_UpdatedEventHandler_BeginInvoke_m4238510153
BTd:_AbstractEventData_get_used_m4208553917
g8a:__ZN6Camera16StandaloneRenderENS_10RenderFlagEP6ShaderRKN4core12basic_stringIcNS3_20StringStorageDefaultIcEEEE
sbe:_Array_System_Collections_IList_get_Item_m2088124007
Mbe:_Array_GetLength_m2083296647
J0h:__ZL58SecurityElement_t2325568386_CustomAttributesCacheGeneratorP21CustomAttributesCache
fob:__ZNK12CubemapArray13GetIsReadableEv
ske:_SynchronizedArrayListWrapper_ToArray_m1522185111
BNb:__Z18Transfer_BlittableI18StreamedBinaryReadILb1EELb1EtEvRK29SerializationCommandArgumentsR31RuntimeSerializationCommandInfo
iOd:_SecurityContext_get_FlowSuppressed_m420202521
oKg:__Z55RuntimeInvoker_DayOfWeek_t721777893_DateTime_t693205669PFvvEPK10MethodInfoPvPS4_
ZBa:__ZN9GfxDevice20DeallocRenderSurfaceEP17RenderSurfaceBase
NDg:_ValueType_ToString_m3796301715
xJa:__ZN20GpuProgramParameters36UpdatePrepareValuesMaximumBufferSizeEv
hfc:__Z53Register_UnityEngine_Quaternion_INTERNAL_CALL_Inversev
POe:_Array_qsort_TisUICharInfo_t3056636800_m2607408901_gshared
clh:_GUILayoutGroup__ctor_m992523271
tSg:__Z62RuntimeInvoker_Void_t1841601450_Byte_t3683104436_RuntimeObjectPFvvEPK10MethodInfoPvPS4_
ijb:__ZN12BaseRenderer23RendererBecameInvisibleEv
Gxc:__ZN20TextRenderingPrivate8FontImpl13CharacterInfo8TransferI18StreamedBinaryReadILb0EEEEvRT_
gLb:__Z29Transfer_Blittable_ArrayFieldI24GenerateTypeTreeTransferfEvRT_R9ArrayInfoRK23StaticTransferFieldInfo
zIg:__Z76RuntimeInvoker_RuntimeObject_RuntimeObject_SByte_t454417549_SByte_t454417549PFvvEPK10MethodInfoPvPS4_
Vab:__ZN19CustomRenderTexture9AddParentE4PPtrIS_E
f5i:_InternalEnumerator_1_MoveNext_m930150026_AdjustorThunk
rrb:__ZN8Gradient8TransferI14SafeBinaryReadEEvRT_
Gzj:_UnityEvent_1_Invoke_m1533100983_gshared
qna:__ZNSt3__26vectorIN4core12basic_stringIcNS1_20StringStorageDefaultIcEEEE13stl_allocatorIS5_L18MemLabelIdentifier1ELi16EEE7reserveEj
F7f:_FileWebRequest__ctor_m4003648606
tvi:__ZL71SpriteState_t1353336012_CustomAttributesCacheGenerator_m_DisabledSpriteP21CustomAttributesCache
oAe:_Enum_System_IConvertible_ToSByte_m3488526280
KQg:__Z60RuntimeInvoker_X509ChainStatusFlags_t480677120_RuntimeObjectPFvvEPK10MethodInfoPvPS4_
o1i:_Identity_set_Disposed_m628843469
Uth:_MonoBehaviour_StopAllCoroutines_m1675795839
mxa:__ZN18IDCollectorFunctorD0Ev
ZPg:__Z73RuntimeInvoker_RuntimeObject_RuntimeObject_SByte_t454417549_RuntimeObjectPFvvEPK10MethodInfoPvPS4_
FKi:_AnimatorControllerPlayable_GetIntegerString_m2944800090
_di:__ZL82Object_t1021602117_CustomAttributesCacheGenerator_Object_DestroyObject_m2343493981P21CustomAttributesCache
Cea:__ZNK20LocalFileSystemPosix9IsSymLinkERK13FileEntryData
Eyd:_GC_new_free_list_inner
GKh:_DefaultComparer_Equals_m85211180_gshared
GIf:_Collection_1_System_Collections_IList_IndexOf_m1950953062_gshared
S8e:_MonoType_InternalGetEvent_m532443236
pGj:__ZL24UnresolvedVirtualCall_70P12Il2CppObjectPK10MethodInfo
zHf:_Collection_1_IndexOf_m2700825189_gshared
ifj:_Comparer_1_get_Default_m2605397692_gshared
uVg:__Z93RuntimeInvoker_Void_t1841601450_PlayableHandleU26_t4210769902_Int32_t2071877448_RuntimeObjectPFvvEPK10MethodInfoPvPS4_
duc:__ZN8JSONRead8TransferI10RectOffsetEEvRT_PKc17TransferMetaFlagsb
$nd:__ZNK15dense_hashtableINSt3__24pairIK10KeyWrapperINS1_IPKcS4_EEEiEES6_24NamespaceAndNamePairHashN14dense_hash_mapIS6_iS9_NS6_14EqualsComparerI26NamespaceAndNamePairEqualsEENS0_9allocatorIS8_EEE9SelectKeyESD_SF_E12test_deletedERK24dense_hashtable_iteratorIS8_S6_S9_SH_SD_SF_E
nW:__ZN9JSONWrite8TransferIN11UnityEngine15CloudWebService14DataErrorEvent15FileErrorDetailEEEvRT_PKc17TransferMetaFlags
LSd:_Decoder__ctor_m2623573910
Zwa:__Z21ClearFenceWithoutSyncR8JobFence
uOf:_ReadOnlyCollection_1_System_Collections_Generic_IListU3CTU3E_RemoveAt_m1731148677_gshared
VL:__ZN12SoundManager20RegisterModifiedClipEP10SampleClip
uO:__ZN11AudioSource4PlayEd
G$c:__ZN15dense_hashtableI10KeyWrapperIPK17Il2CppGenericInstES4_N6il2cpp8metadata21Il2CppGenericInstHashEN14dense_hash_setIS4_S7_NS4_14EqualsComparerINS6_24Il2CppGenericInstCompareEEENSt3__29allocatorIS4_EEE8IdentityESB_SE_E13set_empty_keyERKS4_
Bea:__ZNK20LocalFileSystemPosix8IsHiddenERK13FileEntryData
DNh:_EqualityComparer_1_System_Collections_IEqualityComparer_Equals_m3589836321_gshared
Wgf:_SmallXmlParser_IsNameChar_m1561000202
Snj:_X501__cctor_m2610532554
jYh:__ZL95SafeHandle_t2733794115_CustomAttributesCacheGenerator_SafeHandle_DangerousGetHandle_m1328172664P21CustomAttributesCache
y1g:__Z48RuntimeInvoker_Int32_t2071877448_Link_t865133271PFvvEPK10MethodInfoPvPS4_
DBh:_Enumerator_VerifyState_m3173176371_gshared
lSd:_StringComparer__ctor_m2275216983
IXg:__Z83RuntimeInvoker_Void_t1841601450_RuntimeObject_Internal_DrawArgumentsU26_t3595831378PFvvEPK10MethodInfoPvPS4_
xzf:_List_1_CheckCollection_m2220107869_gshared
Fob:__ZN7Cubemap23VirtualRedirectTransferER18StreamedBinaryReadILb0EE
b$f:_RecordProtocol_EncodeRecord_m3884270352
uKd:_SHA256_Create_m896954069
sJc:_Read_CVT
tte:_Convert_ToUInt32_m776714429
eQa:__ZN12FileAccessor4SeekEx10FileOrigin
aKb:__ZL26Transfer_SimpleNativeClassI24GenerateTypeTreeTransfer17AnimationCurveTplIfELb0EEvRK29SerializationCommandArgumentsR31RuntimeSerializationCommandInfo
zqb:__ZN24GenerateTypeTreeTransfer8TransferI13dynamic_arrayI33EnlightenTerrainChunksInformationLj4EEEEvRT_PKc17TransferMetaFlags
FUi:_Coroutine_t2299508840_marshal_pinvoke
U8:__ZN16LightmapSettings20DidChangeActiveSceneEP10UnitySceneS1_
vxi:__ZL59g_AssemblyU2DCSharp_Assembly_CustomAttributesCacheGeneratorP21CustomAttributesCache
j6c:__ZN6il2cpp5utils9PathUtils8BasenameIcEENSt3__212basic_stringIT_NS3_11char_traitsIS5_EENS3_9allocatorIS5_EEEERKSA_
kN:__ZN10AudioMixer11SetupGroupsEv
Vci:__ZL91Resources_t339470017_CustomAttributesCacheGenerator_Resources_GetBuiltinResource_m582410469P21CustomAttributesCache
mmc:__Z35Register_UnityEngine_Event_get_typev
Jhf:_PrivateKeyInfo_DecodeRSA_m1427048948
Qkd:__ZN6il2cpp2vm9Exception23GetInvalidCastExceptionERKNS_5utils10StringViewIDsEE
BVf:_BigInteger_op_GreaterThanOrEqual_m2643115413
K7g:_Assembly_FillName_m1934025015
p0e:_IntPtr_op_Explicit_m1073656736
dRd:_String_IndexOf_m2126171214
N$e:_Int64_ToString_m1544341651_AdjustorThunk
vy:__ZN8Animator28BuildControllerPlayableCacheEv
MXe:_Guid_CheckNull_m2903986431
Q5h:__ZL62CrossContextDelegate_t754146990_CustomAttributesCacheGeneratorP21CustomAttributesCache
kRi:_Bounds__ctor_m1202659404
R2:__Z63ThreadAndSerializationSafeCheckGetMonoBehaviourBeingTransferredv
oBd:_GC_enable
Y0f:_TlsClientCertificateVerify_ProcessAsSsl3_m3377063356
qYd:_StandaloneInputModule_set_repeatDelay_m2820945738
R1e:_EndOfStreamException__ctor_m4268387737
ZAg:_UInt16_ToString_m4213290405
Mec:__Z37Register_UnityEngine_Input_GetAxisRawv
hoi:__ZL123UnitySynchronizationContext_t1205147244_CustomAttributesCacheGenerator_UnitySynchronizationContext_ExecuteTasks_m2941058172P21CustomAttributesCache
lBf:_List_1_GetIndex_m433539411_gshared
R_h:__ZL59StreamingContext_t1417235061_CustomAttributesCacheGeneratorP21CustomAttributesCache
F_i:_ChannelServices_RegisterChannel_m3832858065
vAe:_Enum_GetName_m1226611481
JKj:_Func_2_Invoke_m4121137703_gshared
Lid:__ZN24dense_hashtable_iteratorINSt3__24pairIK10KeyWrapperINS1_IP11Il2CppClassjEEES4_EES6_N6il2cpp8metadata14ArrayClassHashEN14dense_hash_mapIS6_S4_SB_NS6_14EqualsComparerINSA_17ArrayClassCompareEEENS0_9allocatorIS8_EEE9SelectKeyESF_SH_E30advance_past_empty_and_deletedEv
w5g:__Z74RuntimeInvoker_DictionaryEntry_t3048875398_RuntimeObject_Int32_t2071877448PFvvEPK10MethodInfoPvPS4_
fOg:__Z53RuntimeInvoker_DateTime_t693205669_Single_t2076509932PFvvEPK10MethodInfoPvPS4_
sub:__ZN14Texture2DArray23VirtualRedirectTransferER18StreamedBinaryReadILb0EE
yjj:_Literal_CompileLiteral_m276843152
IXb:__ZN2UI13RectTransform13AwakeFromLoadE17AwakeFromLoadMode
ujj:_Reference__ctor_m4110013284
k2a:__ZN14qsort_internal30FindAndMovePivotToLastPositionIP20ShadowCasterSortDatai26ShadowCasterSortDataSorterEEvT_S4_T0_T1_
k0c:__ZNK15dense_hashtableI10KeyWrapperIPK19Il2CppGenericMethodES4_N6il2cpp8metadata23Il2CppGenericMethodHashEN14dense_hash_setIS4_S7_NS4_14EqualsComparerINS6_26Il2CppGenericMethodCompareEEENSt3__29allocatorIS4_EEE8IdentityESB_SE_E3endEv
yEb:__Z18Transfer_BlittableI14SafeBinaryReadLb1EiEvRK29SerializationCommandArgumentsR31RuntimeSerializationCommandInfo
Lxa:__ZN17PersistentManager13GetAllFileIDsERKN4core12basic_stringIcNS0_20StringStorageDefaultIcEEEER13dynamic_arrayIxLj8EE
E7c:_il2cpp_field_get_offset
fkg:_ProxyAttribute_GetPropertiesForNewContext_m3587421540
Mce:_Array_LastIndexOf_m4096535198
tie:_ArrayList_Add_m1719188324
Bze:_Double_System_IConvertible_ToSByte_m1653690240_AdjustorThunk
hSg:__Z59RuntimeInvoker_RuntimeObject_Byte_t3683104436_RuntimeObjectPFvvEPK10MethodInfoPvPS4_
Ek:_glGetStringi
qqh:_GUIStyleState_t3801000545_marshal_pinvoke
TD:__ZZN8Animator15InitializeClassEvEN43FunctorImpl_420kDidModifyAnimatorController4CallEPviR11MessageData
gDe:_CultureInfo_set_NumberFormat_m1618950525
Nub:__ZN18StreamedBinaryReadILb0EE21TransferSTLStyleArrayI13dynamic_arrayI8Vector4fLj4EEEEvRT_17TransferMetaFlags
mcg:_X509Store__ctor_m1573680316
Bcg:_X509Chain_get_CertificateCollection_m324631835
VNh:_EqualityComparer_1__cctor_m1011898363_gshared
pZd:_AnimationTriggers__ctor_m2623627182
$Ie:_Array_InternalArray__IndexOf_TisClientCertificateType_t4001384466_m1168139450_gshared
nch:_FieldBuilder_get_Name_m2243491233
$W:__ZN11UnityEngine15CloudWebService20WebRequestRestClient18GetResponseHeadersEv
V4b:__ZN16PropertyAccessorC2Ev
Esb:__ZNSt3__23mapIN4core12basic_stringIcNS1_20StringStorageDefaultIcEEEE9PrefValueNS_4lessIS5_EENS_9allocatorINS_4pairIKS5_S6_EEEEEixERSB_
XNb:__Z35Transfer_Blittable_FixedBufferFieldI18StreamedBinaryReadILb1EEaEvRK29SerializationCommandArgumentsR31RuntimeSerializationCommandInfo
u4b:__ZN15DirectorManager22ConstructPlayableGraphEv
Rda:__ZN13ScreenManager16SetScreenTimeoutEi
LIb:__Z18Transfer_BlittableI17RemapPPtrTransferLb0EdEvRK29SerializationCommandArgumentsR31RuntimeSerializationCommandInfo
rLd:_SymmetricAlgorithm_set_IV_m4262655606
lFi:_StencilMaterial__cctor_m2963056855
UCj:_EqualityComparer_1_System_Collections_IEqualityComparer_Equals_m315020809_gshared
DNi:_AnimatorControllerPlayable_Play_m614561002_AdjustorThunk
r9g:_CustomAttributeNamedArgument_GetHashCode_m3715408876_AdjustorThunk
xLc:__Z38Register_UnityEngine_Font_HasCharacterv
Gbg:_X509Certificate2_AppendBuffer_m3517242299
p6a:__Z35IntersectSpherePlaneBoundsOptimizedRKN4math7_float4EPS1_i
cDe:_CultureInfo_get_IsNeutralCulture_m3874876470
ghi:__ZL137AnimatorControllerPlayable_t1744083903_CustomAttributesCacheGenerator_AnimatorControllerPlayable_CrossFadeInFixedTimeInternal_m3383124488P21CustomAttributesCache
eye:_Delegate_CreateDelegate_m3813023227
Jlj:_Uri_get_AbsoluteUri_m2120317928
c7b:__ZNK9Texture2D17CheckHasPixelDataEv
r0d:_ColorTween_TweenValue_m3279916815
EUd:_BaseInputModule_IsModuleSupported_m4272494372
pGi:_ToggleGroup_RegisterToggle_m3118973598
u8:__Z22CleanupLODGroupManagerPv
iLe:_Array_InternalArray__ICollection_Add_TisContentType_t1028629049_m2984242302_gshared
imc:__Z21Event_CUSTOM_PopEventP12Il2CppObject
nl:_glUniform3fv
hAb:__ZNSt3__218__insertion_sort_3IRN15ResourceManager10Dependency6SorterEPS2_EEvT0_S6_T_
$of:_Enumerator_System_Collections_IEnumerator_Reset_m3796537546_AdjustorThunk
DKc:_UNITY_FT_Init_Class_tt_service_gx_multi_masters
nQg:__Z53RuntimeInvoker_Int32_t2071877448_TimeSpan_t3430258949PFvvEPK10MethodInfoPvPS4_
jaj:_InternalEnumerator_1_System_Collections_IEnumerator_Reset_m3249248421_AdjustorThunk
sGg:__Z64RuntimeInvoker_RuntimeObject_Int32_t2071877448_Int16_t4041245914PFvvEPK10MethodInfoPvPS4_
B8e:_IntComparer_Compare_m3057931085
S0a:__ZNK16LightmapSettings31GetRealtimeLightmapDecodeValuesEv
JN:__ZN5audio5mixer12SetSuspendedERNS0_16AudioMixerMemoryEb
$sa:__ZN17PersistentManager21UnloadNonDirtyStreamsEv
RJg:__Z63RuntimeInvoker_DSAParameters_t1872138834_BooleanU26_t3168250738PFvvEPK10MethodInfoPvPS4_
R0g:__Z62RuntimeInvoker_Boolean_t3825574718_PlayableBinding_t2498078091PFvvEPK10MethodInfoPvPS4_
Gld:__ZN6il2cpp2vm13LivenessStateC2EP11Il2CppClassjPFvPP12Il2CppObjectiPvES7_PFvvESB_
ZTe:_Array_ConvertAll_TisRuntimeObject_TisRuntimeObject_m2423585546_gshared
OWa:__ZN12ImageFilters4BlitER17ShaderPassContextP7TextureP13RenderTextureiPK18SharedMaterialDataPKcP6ShaderiNS_9BlitFlagsE11CubemapFaceRK8Vector2fSH_
W9f:_Oid__ctor_m1936781897
yuh:_Object_INTERNAL_CALL_Internal_InstantiateSingleWithParent_m1401308849
PW:__ZN11UnityEngine15CloudWebService10RestClientINS0_23WebRequestRestHeaderMapEED2Ev
oYi:_ResourceSet__ctor_m1222864106
jDg:_UIntPtr_op_Explicit_m1113914169
aDf:_Collection_1_System_Collections_IList_get_Item_m3376056117_gshared
eta:__ZN18LoadSceneOperationD0Ev
LVd:__ZN23InterfaceActionInvoker1IP28PointerEventData_t1599784723E6InvokeEjP11Il2CppClassP12Il2CppObjectS1_
QHi:_AnimationClipPlayable_INTERNAL_CALL_CreateHandleInternal_m218917601
yPh:__ZL76UInt16_t986882611_CustomAttributesCacheGenerator_UInt16_TryParse_m1818885113P21CustomAttributesCache
_of:_Enumerator_VerifyState_m3639069574_gshared
XHa:__ZN4crnd25static_huffman_data_model22prepare_decoder_tablesEv
Cpb:__ZN9Texture2D23VirtualRedirectTransferER17RemapPPtrTransfer
_Uf:_ModulusRing_Difference_m662924064
M9i:_InternalEnumerator_1_MoveNext_m1869236997_gshared
V_d:_CanvasUpdateRegistry_ObjectValidForUpdate_m855695984
K7d:_InputField_set_onValueChanged_m2406388125
Vij:_Regex_Matches_m253372688
wMf:_ReadOnlyCollection_1_System_Collections_ICollection_get_SyncRoot_m2702046016_gshared
zda:__ZL22CleanupUnityWebStreamsPv
rgj:_Regex_get_RightToLeft_m529734879
PPb:__Z18Transfer_BlittableI18StreamedBinaryReadILb0EELb0E10ColorRGBAfEvRK29SerializationCommandArgumentsR31RuntimeSerializationCommandInfo
w6f:_ListDictionary_Add_m4276262662
dJj:__ZL25UnresolvedVirtualCall_220P12Il2CppObjectiPK10MethodInfo
Z8:__Znaj
YId:_RIPEMD160Managed_GGG_m1639995340
X_j:_emscripten_glEnableClientState__wrapper
X$:__ZN17MessageIdentifierC2EPKcNS_7OptionsEPKN5Unity4TypeES1_
NG:__Z76AnimatorControllerPlayable_CUSTOM_INTERNAL_CALL_CrossFadeInFixedTimeInternalR9HPlayableifif
lEh:_Enumerator_System_Collections_IEnumerator_get_Current_m1648049763_gshared
D_h:__ZL66ISerializationSurrogate_t1282780357_CustomAttributesCacheGeneratorP21CustomAttributesCache
BKg:__Z31RuntimeInvoker_Char_t3454481338PFvvEPK10MethodInfoPvPS4_
cjb:__ZN11GameManager15ThreadedCleanupEv
Rxf:_List_1__ctor_m1337392449_gshared
Fbe:_Array_System_Collections_IList_Remove_m2438892375
u5e:_TextWriter__ctor_m2225796097
r$i:__ZN21InterfaceFuncInvoker0IP24StringU5BU5D_t1642385972E6InvokeEjP11Il2CppClassP12Il2CppObject
Chb:__ZN14SafeBinaryRead8TransferI14ConstantStringEEvRT_PKc17TransferMetaFlags
fqj:_ScriptableObject_Internal_CreateScriptableObject_m1778903390
vka:__ZNK6Camera16GetStereoEnabledEv
w1b:__ZN12LightManager15InitializeClassEv
vla:__ZN9ShaderLab11shaderprops16GetComputeBufferEPK19ShaderPropertySheetS3_NS_16FastPropertyNameE
Yoh:_GUIStyle_GetFontInternal_m3509743324
W1:__ZN18ScriptingArgumentsC2Ev
zyg:_TimeZone_IsDaylightSavingTime_m875882154
v3i:_ArrayReadOnlyList_1_Insert_m503707439_gshared
rWj:_emscripten_glBlendFuncSeparate__wrapper
PZf:_CipherSuiteCollection_System_Collections_IList_set_Item_m750275607
lKi:_AnimatorControllerPlayable_SetFloatID_m3806317182
rFa:__Z17HasSampledTexture14GraphicsFormat13formatSupport
hYa:__ZNK25CameraStackRenderingState27GetStereoImageEffectTextureEb
$Jd:_SHA1CryptoServiceProvider__ctor_m3127563759
Zp:__ZN8Vector3f8TransferI14SafeBinaryReadEEvRT_
jxi:__ZL103BaseVertexEffect_t2504093552_CustomAttributesCacheGenerator_BaseVertexEffect_ModifyVertices_m3446986347P21CustomAttributesCache
Fo:FUNCTION_TABLE_ii
iFh:_Enumerator_MoveNext_m335649778_AdjustorThunk
Yib:__ZN10TagManager8TransferI18StreamedBinaryReadILb0EEEEvRT_
DEg:__Z45RuntimeInvoker_Char_t3454481338_RuntimeObjectPFvvEPK10MethodInfoPvPS4_
Sqc:__Z18Transfer_BlittableI9JSONWriteLb0E8BitFieldEvRK29SerializationCommandArgumentsR31RuntimeSerializationCommandInfo
vhd:__ZNK15dense_hashtableINSt3__24pairIK10KeyWrapperINS1_IP11Il2CppClassjEEES4_EES6_N6il2cpp8metadata14ArrayClassHashEN14dense_hash_mapIS6_S4_SB_NS6_14EqualsComparerINSA_17ArrayClassCompareEEENS0_9allocatorIS8_EEE9SelectKeyESF_SH_E10test_emptyEj
BHe:_Array_InternalArray__IEnumerable_GetEnumerator_TisPlayableBinding_t2498078091_m2095426925_gshared
Gwj:_Predicate_1__ctor_m2863314033_gshared
YCe:_CultureInfo_get_TextInfo_m1582311326
mKe:_Array_ForEach_TisRuntimeObject_m1849351808_gshared
$ph:_GUIStyle_get_contentOffset_m1904924583
NCh:_ShimEnumerator_get_Key_m616785465_gshared
Agf:_SmallXmlParser_Error_m1832158746
Afg:_RepeatContext_get_IsLazy_m1620488045
Dk:_glDeleteVertexArrays
Sdb:__Z24CreateDirectoryRecursiveRKN4core12basic_stringIcNS_20StringStorageDefaultIcEEEE
IUj:b41
oVb:__ZN9ShaderLab20SerializedSubProgram8TransferI18StreamedBinaryReadILb0EEEEvRT_
W4e:_StreamAsyncResult_get_AsyncWaitHandle_m4218169359
Gli:__ZL89GUIStyle_t1799908754_CustomAttributesCacheGenerator_GUIStyle_get_stretchWidth_m1223411161P21CustomAttributesCache
Akc:__Z22MonoGUIContentToNative18ScriptingObjectPtrR10GUIContent
S4a:__Z9EndJobSetR8JobFence11JobPriority
a2f:_TlsServerSettings_set_SignedParams_m1826385315
$Lc:__ZN2UI13CanvasManager9AddCanvasEPNS_6CanvasE
gwa:__ZN9Texture3D8TransferI19StreamedBinaryWriteILb0EEEEvRT_
mZa:__ZNK6Camera22CalculateRenderingPathEv
ksc:__ZN9JSONWrite8TransferI5RectTIfEEEvRT_PKc17TransferMetaFlags
eIi:_AnimationClipPlayable_INTERNAL_CALL_GetRemoveStartOffsetInternal_m3895628593
NKa:__Z13ConvertMipmap14GraphicsFormatPKvS_Pviiii
tYf:_ContentInfo_get_Content_m1802070908
LKd:_SHA384Managed_processBlock_m3232296629
Yjf:_X509Certificate_get_PublicKey_m714501701
mRg:__Z70RuntimeInvoker_Boolean_t3825574718_UInt16_t986882611_Int32_t2071877448PFvvEPK10MethodInfoPvPS4_
R9d:_U3CMouseDragOutsideRectU3Ec__Iterator1_System_Collections_IEnumerator_get_Current_m561728752
WCc:_tt_sbit_decoder_load_image
aja:__Z14IsHalfRTFormat19RenderTextureFormat
sRd:_String_LastIndexOf_m290475879
rIe:__ZN21InterfaceFuncInvoker1Ii22UILineInfo_t3621277874E6InvokeEjP11Il2CppClassP12Il2CppObjectS0_
L6d:_Image_get_layoutPriority_m2151045813
bid:__ZN15dense_hashtableINSt3__24pairIK10KeyWrapperIP11Il2CppClassES4_EES5_N6il2cpp8metadata16SZArrayClassHashEN14dense_hash_mapIS5_S4_SA_NS5_14EqualsComparerINS9_19SZArrayClassCompareEEENS0_9allocatorIS7_EEE9SelectKeyESE_SG_EC2EjRKSA_RKSE_RKSI_
N1h:__ZL58ManualResetEvent_t926074657_CustomAttributesCacheGeneratorP21CustomAttributesCache
k6e:_TextReader_Read_m975794707
Skc:__ZNSt3__24listIN10GUIManager12SortedScriptE11memory_poolIS2_EE6__sortI13OldSortScriptEENS_15__list_iteratorIS2_PvEESA_SA_jRT_
bCg:_UInt64_System_IConvertible_ToChar_m1930853313_AdjustorThunk
T0f:_TlsClientCertificate_SendCertificates_m1096074091
nZd:_UIBehaviour_OnCanvasHierarchyChanged_m762109874
une:_SyncHashtable_get_Item_m408601391
l$h:__ZL45DSA_t903174880_CustomAttributesCacheGeneratorP21CustomAttributesCache
zOf:_ReadOnlyCollection_1_System_Collections_IEnumerable_GetEnumerator_m1401363518_gshared
GCf:_Stack_1_System_Collections_ICollection_CopyTo_m2104527616_gshared
qtg:_StringBuilder_AppendFormat_m1666670800
k3a:__ZN18DeferredRenderLoop13RenderGBufferEP13RenderTexturePS1_b8JobFencePK25DeferredRenderLoopScratchRi
EWg:__Z97RuntimeInvoker_Boolean_t3825574718_RuntimeObject_TextGenerationSettings_t2543476768_RuntimeObjectPFvvEPK10MethodInfoPvPS4_
J6g:__Z80RuntimeInvoker_RuntimeObject_RaycastResult_t21186376_RuntimeObject_RuntimeObjectPFvvEPK10MethodInfoPvPS4_
tIb:__Z18Transfer_BlittableI17RemapPPtrTransferLb1E8BitFieldEvRK29SerializationCommandArgumentsR31RuntimeSerializationCommandInfo
Pjd:__ZN6il2cpp6icalls8mscorlib6System9ThreadingL11ThreadStartEPv
Zaa:__ZN15DirectorManager12OnSampleTimeEv
RQf:_ReadOnlyCollection_1_System_Collections_IList_Remove_m3878418841_gshared
P7d:_InputField_EnforceContentType_m1902926812
Vja:__ZN12CachedReader10Align4ReadEv
Glj:_Uri_op_Equality_m110355127
NLf:_Collection_1_CopyTo_m42272870_gshared
ild:__ZN6il2cpp2vm9Exception28GetMarshalDirectiveExceptionEPKc
G9e:_MulticastDelegate_GetObjectData_m3187757658
ehb:__ZNK9Behaviour22GetTypeVirtualInternalEv
u_d:_CanvasScaler_set_referencePixelsPerUnit_m1188599784
o3g:__Z74RuntimeInvoker_Void_t1841601450_Int32_t2071877448_RaycastHit2D_t4063908774PFvvEPK10MethodInfoPvPS4_
ETf:_Comparison_1_EndInvoke_m179917407_gshared
c$b:__ZNK28MonoBehaviourPropertyBinding12SetPPtrValueERKN11UnityEngine9Animation10BoundCurveEi
r7a:__Z21GetScriptingArraySize17ScriptingArrayPtr
_wc:__ZN20TextRenderingPrivate8FontImpl8TransferI14SafeBinaryReadEEvRT_
cjj:__ZN23InterfaceActionInvoker1IP19LinkRef_t2090853131E6InvokeEjP11Il2CppClassP12Il2CppObjectS1_
_Ii:_AnimationOffsetPlayable_INTERNAL_CALL_CreateHandleInternal_m2301240007
Yna:__Z35UnityPropertySheet_MakeSortedColorsRKNSt3__23mapIN9ShaderLab16FastPropertyNameE10ColorRGBAfNS_4lessIS2_EENS_9allocatorINS_4pairIKS2_S3_EEEEEER10vector_mapIS2_S3_S5_NS6_INS7_IS2_S3_EEEEE
uXg:__Z116RuntimeInvoker_Void_t1841601450_Rect_t3681755626_RuntimeObject_Int32_t2071877448_Int32_t2071877448_Int32_t2071877448PFvvEPK10MethodInfoPvPS4_
dph:_GUIStyle_Draw_m4006459684
Boi:__ZL104PlayableExtensions_t2358977238_CustomAttributesCacheGenerator_PlayableExtensions_SetDuration_m3676215212P21CustomAttributesCache
jFg:__Z110RuntimeInvoker_Boolean_t3825574718_RuntimeObject_SByte_t454417549_Int64U26_t763825331_ExceptionU26_t1467204777PFvvEPK10MethodInfoPvPS4_
VCa:__ZN9GfxDevice17ImmediateTexCoordEifff
Shj:_Parser_ParseRegularExpression_m2390577313
AEc:_ft_black_new
jde:_Array_double_swapper_m1175307080
Qai:__ZL102GameObject_t1756533147_CustomAttributesCacheGenerator_GameObject_Internal_CreateGameObject_m3428198595P21CustomAttributesCache
$ij:_Alternation_AddAlternative_m623421443
bdg:_X509CertificateEnumerator_System_Collections_IEnumerator_Reset_m327358896
YRg:__Z65RuntimeInvoker_Void_t1841601450_Byte_t3683104436_Byte_t3683104436PFvvEPK10MethodInfoPvPS4_
ANd:_Hash__ctor_m2554411450
aVe:_NumberFormatter_AppendDigits_m1308372770
gPd:_Single_System_IConvertible_ToDateTime_m2510003459_AdjustorThunk
xye:_Delegate_RemoveImpl_m3666700529
iUj:_emscripten_glUniform4f__wrapper
Q6f:_NameObjectCollectionBase_OnDeserialization_m3478980442
SNi:_AnimatorControllerParameter_get_name_m1366583724
B7d:_InputField_set_caretColor_m2252440840
kU:__Z78Register_UnityEngine_Audio_AudioPlayableOutput_INTERNAL_CALL_InternalSetTargetv
bD:__ZN8Animator8TransferI19StreamedBinaryWriteILb0EEEEvRT_
K$a:__ZNK6Camera16GetProjectionFarEv
_q:__Z24InverseTransformRotationRK23TransformAccessReadOnlyRKN4math7_float4E
E7e:_MissingFieldException__ctor_m1161042282
mJe:_Array_InternalArray__IndexOf_TisSlot_t2267560602_m1912863273_gshared
snb:__ZNK14PlayableOutput11DerivesFromE17ScriptingClassPtr
lwa:__ZN7Texture34CreateFileTextureUploadInstructionE18TextureUploadFlagsj
trj:_StateMachineBehaviour_OnStateExit_m1490844990
JCa:__ZN9GfxDevice21ResetDynamicResourcesEv
DWa:__ZN13ComputeShader14SetBufferParamEjRKN9ShaderLab16FastPropertyNameE15ComputeBufferID
$lb:__ZThn280_N31CanvasBatchIntermediateRenderer20OnAssetBoundsChangedEv
Wng:_StreamingContext__ctor_m3063421596_AdjustorThunk
EQf:_ReadOnlyCollection_1_System_Collections_Generic_IListU3CTU3E_Insert_m3054305464_gshared
I_b:__ZN19LowerResBlitTexture13ApplySettingsEv
yQh:__ZL70IntPtr_t_CustomAttributesCacheGenerator_IntPtr_op_Explicit_m3896766622P21CustomAttributesCache
UC:__ZN8Animator8TransferI14SafeBinaryReadEEvRT_
Nhd:__ZN15dense_hashtableINSt3__24pairIK10KeyWrapperIP11Il2CppClassES4_EES5_N6il2cpp8metadata16SZArrayClassHashEN14dense_hash_mapIS5_S4_SA_NS5_14EqualsComparerINS9_19SZArrayClassCompareEEENS0_9allocatorIS7_EEE9SelectKeyESE_SG_E4swapERSJ_
pib:__ZN17GlobalGameManager23VirtualRedirectTransferER18StreamedBinaryReadILb0EE
DJe:_Array_InternalArray__IndexOf_TisTypeTag_t141209596_m2882894956_gshared
xEi:_Slider_get_value_m4182660424
i6:__Z23AsyncReadForceCloseFileRKN4core12basic_stringIcNS_20StringStorageDefaultIcEEEE
st:__ZN17AnimationPlayable34CollectAnimatorControllerPlayablesER13dynamic_arrayIP26AnimatorControllerPlayableLj4EE
aT:__ZN16BaseVideoTexture19UpdateVideoTexturesEv
Qlb:__Z28BuildSingleStreamChannelInfo17ShaderChannelMaskRK20VertexChannelsLayoutS_S2_P11ChannelInfo
Kua:__ZNK16LightmapSettings23HasLightProbeTetrahedraEv
e0f:_Context_get_WriteSequenceNumber_m243492531
Msb:__ZN6Sprite23VirtualRedirectTransferER19StreamedBinaryWriteILb0EE
DOh:_EqualityComparer_1_System_Collections_IEqualityComparer_GetHashCode_m3761319178_gshared
kRd:_String_LastIndexOfAny_m1473637802
BFi:_Text_get_resizeTextMaxSize_m2671487437
fuf:_List_1_System_Collections_ICollection_CopyTo_m3062449209_gshared
mbd:__ZNK15dense_hashtableINSt3__24pairIK10KeyWrapperINS1_IPK9FieldInfoP11Il2CppClassEEEjEES9_17ReflectionMapHashIS8_EN14dense_hash_mapIS9_jSD_NS9_14EqualsComparerINS0_8equal_toIS8_EEEENS0_9allocatorISB_EEE9SelectKeyESI_SK_E5beginEv
Ysd:__ZN6il2cpp2os6Thread15CurrentThreadIdEv
SA:__ZN15SerializeTraitsIN4math4trsXEE8TransferI8BlobSizeEEvRS1_RT_
YFa:__ZN14DataBufferGLES11CopySubDataEPKS_jjj
me:_emscripten_glVertexPointer
jPa:__ZNSt3__26__treeI20DeviceDepthStateGLES11memcmp_lessIS1_S1_ENS_9allocatorIS1_EEE7destroyEPNS_11__tree_nodeIS1_PvEE
SNc:__ZN2UI13PrepareOutputERNS_7BatchesEjjNS_30AdditionalCanvasShaderChannelsE
ssf:_List_1_System_Collections_Generic_ICollectionU3CTU3E_get_IsReadOnly_m1614481629_gshared
S2a:__Z17GetFrustumPortionPK8Vector3fffPS_
qDg:_UnauthorizedAccessException__ctor_m259001183
Qmd:__ZN15dense_hashtableINSt3__24pairIK10KeyWrapperIP14Il2CppIUnknownEjEES5_N6il2cpp5utils11PointerHashIS3_EEN14dense_hash_mapIS5_jSB_NS5_14EqualsComparerINS0_8equal_toIS4_EEEENS0_9allocatorIS7_EEE9SelectKeyESG_SI_E14squash_deletedEv
$sj:_TouchScreenKeyboard_set_text_m3456054179
fpi:__ZL60MovedFromAttribute_t922195725_CustomAttributesCacheGeneratorP21CustomAttributesCache
s1d:_DefaultControls_CreateDropdown_m1384069408
iXd:_PointerEventData_get_clickCount_m4064532478
$Of:_ReadOnlyCollection_1_System_Collections_Generic_ICollectionU3CTU3E_get_IsReadOnly_m3508872969_gshared
lBe:_EventArgs__cctor_m1350395667
jyh:_Rect_get_position_m24550734_AdjustorThunk
rzj:_UnityEvent_1_GetDelegate_m4062537313_gshared
Gpj:_X509Stores_Open_m2057354563
RBe:_CCGregorianCalendar_is_leap_year_m567513478
Bag:_Oid_get_Value_m2271181078
Kde:_Attribute_IsDefined_m2118467641
RVd:_ExecuteEvents_Execute_m898902863
m0g:__Z68RuntimeInvoker_Void_t1841601450_Int32_t2071877448_Color32_t874517518PFvvEPK10MethodInfoPvPS4_
y4i:_InternalEnumerator_1_System_Collections_IEnumerator_get_Current_m3125080595_gshared
nJf:_Collection_1_System_Collections_IList_Add_m2091889616_gshared
i5b:__ZN16StreamedResource8TransferI24GenerateTypeTreeTransferEEvRT_
O2d:_DropdownItem_OnPointerEnter_m761897861
yIi:_AnimationLayerMixerPlayable_INTERNAL_CALL_IsLayerAdditiveInternal_m364677421
CH:__Z90Register_UnityEngine_Animations_AnimatorControllerPlayable_INTERNAL_CALL_CrossFadeInternalv
Zw:__ZN7mecanim9animation21CreateBlendTreeOutputEjRNS_6memory9AllocatorE
oMa:__ZN10Matrix3x3f15InvertTransposeEv
TEe:_Array_InternalArray__ICollection_Remove_TisKeyValuePair_2_t1174980068_m2768765894_gshared
uBb:__ZN24GenerateTypeTreeTransfer8TransferINSt3__26vectorIN4core12basic_stringIcNS3_20StringStorageDefaultIcEEEE13stl_allocatorIS7_L18MemLabelIdentifier12ELi16EEEEEEvRT_PKc17TransferMetaFlags
_Ji:_AnimatorControllerPlayable_GetFloat_m1229536053
XGf:_Collection_1_set_Item_m2199807215_gshared
Mai:__ZL96GameObject_t1756533147_CustomAttributesCacheGenerator_GameObject_SendMessage_m71956653____value1P21CustomAttributesCache
yHb:__Z29Transfer_Blittable_ArrayFieldI14SafeBinaryRead8Vector3fEvRT_R9ArrayInfoRK23StaticTransferFieldInfo
dBg:_UInt32_System_IConvertible_ToBoolean_m91295134
Fvg:_Monitor_Monitor_test_synchronised_m1542589500
Dai:__ZL85GameObject_t1756533147_CustomAttributesCacheGenerator_GameObject_get_layer_m725607808P21CustomAttributesCache
T2g:__Z66RuntimeInvoker_Void_t1841601450_Int32_t2071877448_Slot_t2022531261PFvvEPK10MethodInfoPvPS4_
Sxc:__ZN20TextRenderingPrivate8FontImpl18ResetCachedTextureEv
TPh:__ZL75String_t_CustomAttributesCacheGenerator_String_Concat_m626692867____values0P21CustomAttributesCache
Nai:__ZL98GameObject_t1756533147_CustomAttributesCacheGenerator_GameObject_SendMessage_m71956653____options2P21CustomAttributesCache
vif:_SymmetricTransform_TransformFinalBlock_m4192185386
zXe:_TextInfo__ctor_m1263401274
VDg:_Version_get_Major_m3385239713
PAj:_ListPool_1_Release_m3047738410_gshared
Zsj:_TouchScreenKeyboard_Open_m913506328
Xwe:_Decimal_System_IConvertible_ToInt16_m3159038792
U$f:_Context_get_SecurityProtocolFlags_m3295551796
$Fh:_ValueCollection__ctor_m927733289_gshared
Eka:__ZN11NamedObject15ThreadedCleanupEv
JOi:_LowMemoryCallback__ctor_m4181659636
saj:_InternalEnumerator_1__ctor_m2981879621_AdjustorThunk
Rbc:__Z53Register_UnityEngine_Behaviour_get_isActiveAndEnabledv
z9h:__ZL87Component_t3819376471_CustomAttributesCacheGenerator_Component_GetComponent_m4225719715P21CustomAttributesCache
G8f:_IPAddress_ToString_m267966740
CCj:_EqualityComparer_1__ctor_m3971803374_gshared
Dq:__ZNSt3__26vectorIN4core12basic_stringIcNS1_20StringStorageDefaultIcEEEENS_9allocatorIS5_EEE8__appendEj
H7c:_il2cpp_gc_collect
Fzb:__ZN26PlayerSettingsSplashScreen8TransferI17RemapPPtrTransferEEvRT_
j8i:_InternalEnumerator_1_get_Current_m3922357178_gshared
f5c:__ZN6il2cpp6icalls8mscorlib6SystemL17CollectTypeFieldsINS_5utils10functional10TrueFilterEEEvP11Il2CppClassPKS7_iRNSt3__26vectorIP9FieldInfoNSB_9allocatorISE_EEEERKT_
Yri:__ZL72ColorBlock_t2652774230_CustomAttributesCacheGenerator_m_HighlightedColorP21CustomAttributesCache
Ryg:_Type_get_IsValueType_m1733572463
Hnh:_GUISkin_get_horizontalScrollbarThumb_m4062590908
fZb:__Z13GetTagManagerv
x5i:_InternalEnumerator_1_Dispose_m1748410190_AdjustorThunk
tFe:_Array_InternalArray__ICollection_Remove_TisUInt16_t986882611_m65494986_gshared
sPf:_ReadOnlyCollection_1_IndexOf_m3054637117_gshared
Znd:__ZN24dense_hashtable_iteratorINSt3__24pairIK10KeyWrapperINS1_IPKcS4_EEEiEES6_24NamespaceAndNamePairHashN14dense_hash_mapIS6_iS9_NS6_14EqualsComparerI26NamespaceAndNamePairEqualsEENS0_9allocatorIS8_EEE9SelectKeyESD_SF_E30advance_past_empty_and_deletedEv
YU:__ZN11UnityEngine15CloudWebService17CloudJobSchedulerD0Ev
fQd:_String_System_IConvertible_ToBoolean_m2696751322
ita:__ZN18LoadSceneOperation7PerformEv
Alh:_GUILayer_INTERNAL_CALL_HitTest_m693512502
zMc:__ZNK2UI11CanvasGroup22GetTypeVirtualInternalEv
nRd:_String_LastIndexOfAny_m4281325295
RRi:_Camera_get_pixelRect_m2084185953
J_g:__Z163RuntimeInvoker_Void_t1841601450_RuntimeObject_Int32_t2071877448_SByte_t454417549_SByte_t454417549_SingleU26_t4173844468_SingleU26_t4173844468_SingleU26_t4173844468PFvvEPK10MethodInfoPvPS4_
ilc:__Z21CleanupGlobalGUIStatev
txg:_TimeSpan__ctor_m1888018443_AdjustorThunk
h5g:__Z74RuntimeInvoker_Int32_t2071877448_UIVertex_t1204258818_UIVertex_t1204258818PFvvEPK10MethodInfoPvPS4_
pne:_SyncHashtable_get_Count_m3694444082
m8h:__ZL144U3CCreateWhereIteratorU3Ec__Iterator1D_1_t2523986802_CustomAttributesCacheGenerator_U3CCreateWhereIteratorU3Ec__Iterator1D_1_Dispose_m3152287270P21CustomAttributesCache
zEg:__Z56RuntimeInvoker_RuntimeObject_RuntimeObject_RuntimeObjectPFvvEPK10MethodInfoPvPS4_
LNa:__ZN22VertexDeclarationCache5ClearEv
QZj:_emscripten_glUniform2i__wrapper
Sbb:__ZN17PersistentManager12SetPathRemapERKN4core12basic_stringIcNS0_20StringStorageDefaultIcEEEES6_
Ov:__Z27ProcessRootMotionEmptyMixerP35AnimationPlayableEvaluationConstantP32AnimationPlayableEvaluationInputP33AnimationPlayableEvaluationOutput
y4a:__ZN6Camera24PrepareCullingParametersERK23CameraCullingParameters13RenderingPathR11CullResults
E7b:__Z12SetIUISystemP9IUISystem
uta:__ZN19RuntimeSceneManager22EndIntegrateMainThreadEP10UnitySceneNS_11LoadingModeE
p0h:__ZL84Evidence_t1407710183_CustomAttributesCacheGenerator_Evidence_GetHashCode_m1260371757P21CustomAttributesCache
Cgh:_TargetParameterCountException__ctor_m2760108938
jPf:_ReadOnlyCollection_1_System_Collections_ICollection_get_IsSynchronized_m2344337514_gshared
SIb:__Z26Transfer_UnityEngineObjectI17RemapPPtrTransferLb0EEvRK29SerializationCommandArgumentsR31RuntimeSerializationCommandInfo
F_g:__Z34RuntimeInvoker_FitMode_t4030874534PFvvEPK10MethodInfoPvPS4_
uRd:_String_IsNullOrEmpty_m2802126737
vge:_Byte_Parse_m1442736478
v$e:_Int64_Parse_m3258022240
eRd:_String_IndexOfOrdinal_m3591623977
Fsj:_Texture2D_get_whiteTexture_m1979591766
Vpg:_CryptoConfig_EncodeLongNumber_m2352037787
uzg:_Type_GetMethod_m475234662
OPd:_Single_GetHashCode_m3102305584
pmf:_KeyValuePair_2__ctor_m1877755778_AdjustorThunk
b_i:_ActivationServices_get_ConstructionActivator_m1726426854
$Kb:__Z29Transfer_Blittable_ArrayFieldI24GenerateTypeTreeTransfer4AABBEvRT_R9ArrayInfoRK23StaticTransferFieldInfo
XJj:_Hacker_RunMainMenu_m908116088
U2h:__ZL76Convert_t2607082565_CustomAttributesCacheGenerator_Convert_ToChar_m245844937P21CustomAttributesCache
n2h:__ZL52Activator_t1850728717_CustomAttributesCacheGeneratorP21CustomAttributesCache
oAd:_GC_adj_bytes_allocd
aFi:_SpriteState_t1353336012_marshal_pinvoke_cleanup
dLe:_Array_InternalArray__ICollection_Add_TisKeyframe_t1449471340_m887263954_gshared
kuj:_UIVertex__cctor_m803910084
IMe:_Array_InternalArray__Insert_TisDateTime_t693205669_m1484996356_gshared
luf:_List_1_System_Collections_IList_Remove_m3933652540_gshared
JHh:_Dictionary_2_System_Collections_IDictionary_GetEnumerator_m1484720898_gshared
g4e:_MonoIO_get_ConsoleInput_m2976499023
Deh:_OpCode_get_Size_m481593949_AdjustorThunk
Mke:_BitArrayEnumerator_checkVersion_m3839504595
_be:_Array_GetUpperBound_m1352329707
K$b:__ZNK17AnimationCurveTplIfE20FindIndexForSamplingERKNS0_5CacheEfRiS4_
Ca:invoke_fiiifii
B_f:_RecordProtocol__ctor_m168945279
Uve:_DateTimeOffset_Equals_m3728302791_AdjustorThunk
rqh:_GUIStyleState_t3801000545_marshal_pinvoke_back
D2a:__ZN20SphericalHarmonicsL219AddDirectionalLightERKN4math7_float3ERKNS0_7_float4E
qyg:_TimeSpan_op_GreaterThanOrEqual_m3997050520
L3h:__ZL77Convert_t2607082565_CustomAttributesCacheGenerator_Convert_ToUInt16_m36213644P21CustomAttributesCache
Saa:__Z26ScheduleJobForEachInternalR8JobFencePFvPvjES1_iPFvS1_E11JobPriority
Mag:_OidEnumerator_MoveNext_m1889267785
sUa:__ZZ23InitPlayerLoopCallbacksvEN41PostLateUpdateProfilerEndFrameRegistrator7ForwardEv
$7b:__ZN9Scripting18RaiseMonoExceptionEPKcz
vpb:__ZN9Texture2D8TransferI19StreamedBinaryWriteILb0EEEEvRT_
knh:_GUISkin_set_box_m877476512
R2d:_OptionData__ctor_m3070653720
EAj:_TweenRunner_1_StartTween_m3792842064_gshared
W1b:__ZN9ShaderLab16FastPropertyName15InitBy28BitHashEj
oPd:_Single_System_IConvertible_ToInt32_m3269519527_AdjustorThunk
lZc:__ZN6il2cpp2vm5Class7GetNameEP11Il2CppClass
fKd:_SHA1Internal_ProcessBlock_m4070037334
Qva:__ZN17PersistentManager17IsObjectAvailableEi
p2i:_U3CGetEnumeratorU3Ec__Iterator0_System_Collections_IEnumerator_get_Current_m2580780957_gshared
mbi:__ZL87RectOffset_t3387826427_CustomAttributesCacheGenerator_RectOffset_get_bottom_m4112328858P21CustomAttributesCache
NNe:_Array_InternalArray__set_Item_TisDouble_t4078015681_m24756265_gshared
Kjg:_ObjRef_GetObjectData_m3081609242
n$b:__ZN13ProduceHelperIN2UI13RectTransformELb0EE7ProduceE18MemLabelIdentifier18ObjectCreationMode
qvb:__ZN17PackedFloatVector12UnpackFloatsEPfiiii
Z0h:__ZL113EncoderReplacementFallback_t4228544112_CustomAttributesCacheGenerator_EncoderReplacementFallback__ctor_m517300448P21CustomAttributesCache
HMf:_ReadOnlyCollection_1__ctor_m3671019970_gshared
Uy:__ZN17AnimationPlayable28UpdateInternalStateRecursiveILi3ELb0EEEvPK35AnimationPlayableEvaluationConstant
QDa:__ZN13GfxDeviceGLES21DestroyComputeProgramER12ObjectHandleI18ComputeProgram_TagPvE
_qe:_Convert_ToDecimal_m2007036836
y8:__ZN17UniqueIDGenerator16DestroyPureIndexEj
I4:__ZL21AppendNestedClassName17ScriptingClassPtrRN4core17string_with_labelILi1EEE
cTb:__ZN14SafeBinaryRead21TransferSTLStyleArrayINSt3__26vectorIN9ShaderLab20SerializedSubProgram12UAVParameterENS1_9allocatorIS5_EEEEEEvRT_17TransferMetaFlags
i0i:_Context_NotifyDynamicSinks_m1367144344
EAh:_Enumerator__ctor_m1897170543_AdjustorThunk
u_:__ZNK13BaseAllocator10IsAssignedEv
fW:__ZN24TextDOMTransferWriteBaseI9JSONWriteE12PushMetaFlagEi
soj:_X509Certificate_GetSubjectName_m1189079906
Xsc:__Z18Transfer_BlittableI8JSONReadLb1E10ColorRGBAfEvRK29SerializationCommandArgumentsR31RuntimeSerializationCommandInfo
H_f:_TlsClientCertificateVerify__ctor_m110646389
wra:__ZN6prcoreL26RemapGenericIntegerToFloatI17TexFormatARGB888815TexFormatRFloatEEvPKNS_9InnerInfoE
k_:__ZN5Mutex6UnlockEv
r0i:_Context_GetServerContextSinkChain_m390126977
n9c:__ZN6il2cpp2vm17TypeNameParseInfoD2Ev
rli:__ZL89GUIStyle_t1799908754_CustomAttributesCacheGenerator_GUIStyle_set_imagePosition_m327170707P21CustomAttributesCache
P5e:_StringReader_Read_m513112775
crb:__ZNK8Renderer8GetLayerEv
WCf:_Collection_1_System_Collections_IList_Insert_m266942173_gshared
Qkb:__ZN12FlareManager11DeleteFlareEi
zEf:_Collection_1_Add_m2613548553_gshared
Zx:__ZN7mecanim9animation22DestroyBlendTreeOutputEPNS0_15BlendTreeOutputERNS_6memory9AllocatorE
X_a:__ZNK6Camera20GetReplacementShaderEv
UVj:_glProgramBinary__wrapper
Ewe:_Decimal__ctor_m569480123_AdjustorThunk
Z7f:_HttpWebRequest__cctor_m3013631978
mDd:__ZNSt3__26__treeINS_12__value_typeINS_12basic_stringIcNS_11char_traitsIcEENS_9allocatorIcEEEEPFvvEEENS_19__map_value_compareIS7_SA_NS_4lessIS7_EELb1EEENS5_ISA_EEE4findIS7_EENS_15__tree_iteratorISA_PNS_11__tree_nodeISA_PvEEiEERKT_
pTb:__ZNSt3__26vectorIN9ShaderLab20SerializedSubProgram14ConstantBufferENS_9allocatorIS3_EEE7reserveEj
zva:__ZL23stbir__calculate_memoryP11stbir__info
IMg:__Z83RuntimeInvoker_Void_t1841601450_Int64_t909078037_Int32_t2071877448_Int64_t909078037PFvvEPK10MethodInfoPvPS4_
Gcd:__ZNK15dense_hashtableINSt3__24pairIK10KeyWrapperINS1_IPK10MethodInfoP11Il2CppClassEEEjEES9_17ReflectionMapHashIS8_EN14dense_hash_mapIS9_jSD_NS9_14EqualsComparerINS0_8equal_toIS8_EEEENS0_9allocatorISB_EEE9SelectKeyESI_SK_E12test_deletedERK24dense_hashtable_iteratorISB_S9_SD_SM_SI_SK_E
cVh:__ZL90BinaryReader_t2491843768_CustomAttributesCacheGenerator_BinaryReader_ReadSByte_m1712621355P21CustomAttributesCache
nBi:_Scrollbar_FindSelectableOnRight_m3219495255
iNh:_EqualityComparer_1_System_Collections_IEqualityComparer_GetHashCode_m487741360_gshared
qMc:__ZNSt3__227__insertion_sort_incompleteIRPFbPN2UI6CanvasES3_EPS3_EEbT0_S8_T_
yvc:__ZNK9rapidjson12GenericValueINS_4UTF8IcEE13JSONAllocatorE6AcceptINS_12PrettyWriterI16TempBufferWriterS2_S2_S3_EEEEbRT_
_Wa:__ZNK6Camera18GetRenderRectangleEv
t1c:__ZN6il2cpp5utils13dynamic_arrayIPK10Il2CppTypeLj4EE7reserveEj
Wli:__ZL102GUIStyle_t1799908754_CustomAttributesCacheGenerator_GUIStyle_INTERNAL_CALL_SetMouseTooltip_m3411291301P21CustomAttributesCache
rMe:_Array_InternalArray__ICollection_CopyTo_TisVector3_t2243707580_m509487340_gshared
b5d:_GridLayoutGroup_get_constraint_m1351424857
gH:__Z82AnimatorControllerPlayable_CUSTOM_INTERNAL_CALL_IsParameterControlledByCurveStringR9HPlayableP12Il2CppString
ytc:__ZL26Transfer_SimpleNativeClassI8JSONRead10RectOffsetLb1EEvRK29SerializationCommandArgumentsR31RuntimeSerializationCommandInfo
BPc:__Z44CanvasRenderer_CUSTOM_INTERNAL_CALL_SetColorP12Il2CppObjectRK10ColorRGBAf
mTe:_Component_GetComponentInChildren_TisRuntimeObject_m1823576579_gshared
zni:__ZL68PreferBinarySerialization_t2472773525_CustomAttributesCacheGeneratorP21CustomAttributesCache
IQe:_Array_swap_TisUICharInfo_t3056636800_m4036113126_gshared
p_i:_UrlAttribute_Equals_m1587451932
Utd:__ZNSt3__26__treeINS_12basic_stringIcNS_11char_traitsIcEENS_9allocatorIcEEEENS_4lessIS6_EENS4_IS6_EEE12__find_equalIS6_EERPNS_16__tree_node_baseIPvEESG_RKT_
Cqc:__Z18Transfer_BlittableI9JSONWriteLb1EsEvRK29SerializationCommandArgumentsR31RuntimeSerializationCommandInfo
MZe:_Int16_ToString_m4099416068_AdjustorThunk
Xqg:_DSAParameters_t1872138834_marshal_pinvoke_cleanup
Gka:__ZN6ObjectD2Ev
Eac:__ZN9Transform16SetLocalRotationERK11Quaternionf
KKi:_AnimatorControllerPlayable_INTERNAL_CALL_GetIntegerID_m1635852922
M7i:_InternalEnumerator_1_get_Current_m3206960238_AdjustorThunk
xVa:__ZN13RenderManager37RenderCamerasWithScriptableRenderLoopEi
Yef:_ASN1_Element_m2600236165
N9:__ZN23InstancedPropInfoStaticL16RegisterCallbackEPv
GRh:__ZL67RuntimeArray_CustomAttributesCacheGenerator_Array_IndexOf_m77084779P21CustomAttributesCache
$A:__ZN7mecanim8skeleton25SkeletonPoseComputeLocalQEPKNS0_8SkeletonEPKNS0_13SkeletonPoseTIN4math4trsXEEEPS7_ii
Vqd:__ZN6il2cpp2os19ReleaseSocketHandleEj
m0h:__ZL59ApplicationTrust_t3968282840_CustomAttributesCacheGeneratorP21CustomAttributesCache
oTh:__ZL128SafeHandleZeroOrMinusOneIsInvalid_t1177681199_CustomAttributesCacheGenerator_SafeHandleZeroOrMinusOneIsInvalid__ctor_m3340306667P21CustomAttributesCache
GS:__ZN11AudioModule16GetDSPSampleRateEv
ovd:__ZN15dense_hashtableINSt3__24pairIK10KeyWrapperIPK19Il2CppGenericMethodEP10MethodInfoEES6_N6il2cpp8metadata23Il2CppGenericMethodHashEN14dense_hash_mapIS6_S9_SD_NS6_14EqualsComparerINSC_26Il2CppGenericMethodCompareEEENS0_9allocatorISA_EEE9SelectKeyESH_SJ_E5clearEv
W4b:__ZN16PropertyAccessor5ClearEv
wah:_TypeBuilder_get_next_table_index_m1415870184
IQj:___cxa_can_catch
LVf:_SequentialSearchPrimeGeneratorBase_GenerateNewPrime_m296245934
Ahe:_Char_GetUnicodeCategory_m4273361321
fhi:__ZL137AnimatorControllerPlayable_t1744083903_CustomAttributesCacheGenerator_AnimatorControllerPlayable_CrossFadeInFixedTimeInternal_m2412303303P21CustomAttributesCache
o$a:__ZN6Camera28DefaultPerformRenderFunctionD0Ev
s7e:_Math_Round_m565516458
$$i:_Identity_get_ClientDynamicProperties_m767245959
w4i:_InternalEnumerator_1__ctor_m675130983_AdjustorThunk
eHh:_Dictionary_2_Clear_m899854001_gshared
asd:__ZN6il2cpp2os5posix15PosixWaitObjectC2ENS2_4TypeE
hZa:__ZN6Camera21PostMultiCustomRenderENS_10RenderFlagEb
hji:__ZL83Canvas_t209405766_CustomAttributesCacheGenerator_Canvas_get_scaleFactor_m1115379735P21CustomAttributesCache
Neh:_TypeBuilder_create_generic_class_m986834171
mLa:__ZN12_GLOBAL__N_112UploadImagesEP7ApiGLESjji14GraphicsFormatPKhjS2_iiii16TextureUsageModePh
Uya:__ZN23ShaderVariantCollection13WarmupShadersEv
T$f:_Context_set_ProtocolNegotiated_m1177527245
hBg:_UInt32_System_IConvertible_ToChar_m1056040486
n4:__Z25GetCommonScriptingClassesv
A5f:_TlsStream_get_Length_m1562309511
Lta:__Z27scripting_gc_collect_unsafei
LS:__ZN11AudioModule20SuspendVideoTexturesEv
Pke:_CaseInsensitiveComparer__ctor_m1125492797
r1b:__ZN12CubemapArrayC2E18MemLabelIdentifier18ObjectCreationMode
t5g:__Z73RuntimeInvoker_DictionaryEntry_t3048875398_RuntimeObject_SByte_t454417549PFvvEPK10MethodInfoPvPS4_
zpe:_Convert_ToByte_m395020137
hvh:_Plane_ToString_m3541300360_AdjustorThunk
wKb:__Z26Transfer_UnityEngineObjectI24GenerateTypeTreeTransferLb0EEvRK29SerializationCommandArgumentsR31RuntimeSerializationCommandInfo
QHc:_UNITY_FT_GlyphLoader_CheckPoints
Ywf:_List_1_System_Collections_ICollection_CopyTo_m1995866425_gshared
C6e:_TextWriter_WriteLine_m1754475888
Fwa:__ZN15SharedLightData7PrecalcEv
unb:__ZN20ScriptPlayableOutputD0Ev
DFd:__ZNK6il2cpp8metadata22Il2CppGenericClassHashclEPK18Il2CppGenericClass
kxj:_InvokableCall_1_Invoke_m769918017_gshared
$p:__ZN4PPtrI9TransformE8TransferI18StreamedBinaryReadILb0EEEEvRT_
xSe:_Array_InternalArray__get_Item_TisDouble_t4078015681_m2215331088_gshared
v0h:__ZL57PrincipalPolicy_t289802916_CustomAttributesCacheGeneratorP21CustomAttributesCache
wNb:__Z35Transfer_Blittable_FixedBufferFieldI18StreamedBinaryReadILb1EEsEvRK29SerializationCommandArgumentsR31RuntimeSerializationCommandInfo
fIf:_Collection_1_ClearItems_m3446813399_gshared
YGh:_Dictionary_2_Init_m3666073812_gshared
oyf:_List_1_AsReadOnly_m1681105545_gshared
YSa:__ZN15ArchiveReadFileD0Ev
oif:_SymmetricTransform_TransformBlock_m1524716432
hIe:_Array_compare_TisColor32_t874517518_m3842009370_gshared
LWg:__Z105RuntimeInvoker_Boolean_t3825574718_RuntimeObject_Vector2_t2243707579_RuntimeObject_Vector2U26_t3911752445PFvvEPK10MethodInfoPvPS4_
ySc:__ZN11UnityEngine15PlatformWrapper18GetOperatingSystemEv
OIa:__ZNSt3__26vectorIP14DataBufferGLESNS_9allocatorIS2_EEE21__push_back_slow_pathIKS2_EEvRT_
Ecj:_InternalEnumerator_1__ctor_m2458691472_AdjustorThunk
LRf:_ReadOnlyCollection_1_System_Collections_Generic_ICollectionU3CTU3E_Remove_m974176789_gshared
bye:_Delegate_return_type_match_m4278947849
p9d:_InputField_GenerateHightlight_m1346735465
ilj:_Uri_ParseNoExceptions_m1151989845
Soe:_GC_SuppressFinalize_m953228702
MHc:_FT_MSB
OWf:_MD2__ctor_m3133818738
Zph:_GUIStyle_get_clipping_m2754700641
flg:_SoapServices_PreLoad_m490411755
oWg:__Z97RuntimeInvoker_Void_t1841601450_PlayableHandleU26_t4210769902_Int32_t2071877448_Int32_t2071877448PFvvEPK10MethodInfoPvPS4_
_Jg:__Z63RuntimeInvoker_RuntimeObject_Int32_t2071877448_SByte_t454417549PFvvEPK10MethodInfoPvPS4_
NDd:__ZN6il2cpp6icalls8mscorlib4Mono8Security12Cryptography18KeyPairPersistence10_CanSecureEP12Il2CppString
k2i:_Action_1_Invoke_m4180501989_gshared
D8c:__ZN6il2cpp2os4File11GetFileStatERKNSt3__212basic_stringIcNS2_11char_traitsIcEENS2_9allocatorIcEEEEPNS0_8FileStatEPi
zej:_DefaultComparer__ctor_m3180706193_gshared
Ryf:_List_1_System_Collections_Generic_IEnumerableU3CTU3E_GetEnumerator_m3625278020_gshared
wAa:__ZN13GfxDeviceGLES14SetRasterStateEPK17DeviceRasterState
qOg:__Z51RuntimeInvoker_Int16_t4041245914_Single_t2076509932PFvvEPK10MethodInfoPvPS4_
GFb:__Z30TransferField_LinearCollectionI14SafeBinaryReadEvRK29SerializationCommandArgumentsR31RuntimeSerializationCommandInfo
f8d:_InputField_set_caretPositionInternal_m231166704
Qtj:_Transform_InverseTransformPoint_m2648491174
n$f:_TlsServerHello__ctor_m3032108168
eja:__ZN14SafeBinaryRead11EndTransferEv
YVh:__ZL98ILGenerator_t99948092_CustomAttributesCacheGenerator_ILGenerator_Mono_GetCurrentOffset_m3553856682P21CustomAttributesCache
VFb:__ZN14SafeBinaryRead8TransferI8MonoPPtrEEvRT_PKc17TransferMetaFlags
bKh:_Dictionary_2_System_Collections_Generic_ICollectionU3CSystem_Collections_Generic_KeyValuePairU3CTKeyU2CTValueU3EU3E_Remove_m1705959559_gshared
uTa:__ZN24dense_hashtable_iteratorINSt3__24pairIKN4core12basic_stringIcNS2_20StringStorageDefaultIcEEEEP20ArchiveStorageReaderEES6_20StringHash32FunctionIS6_EN14dense_hash_mapIS6_S9_SC_NS0_8equal_toIS6_EE13stl_allocatorISA_L18MemLabelIdentifier54ELi16EEE9SelectKeyESF_SI_EppEv
mcj:_InternalEnumerator_1_System_Collections_IEnumerator_get_Current_m1533037706_gshared
Hci:__ZL111MonoBehaviour_t1158329972_CustomAttributesCacheGenerator_MonoBehaviour_StartCoroutine_Auto_Internal_m1014513456P21CustomAttributesCache
YLa:__ZN21UniformBufferTFMethod13MapBoneBufferEj
d3f:_RecordProtocol_SendChangeCipherSpec_m3542001341
xOe:_Array_InternalArray__set_Item_TisVector3_t2243707580_m1390667454_gshared
Czf:_List_1_Sort_m3574220472_gshared
lkd:__ZNSt3__26vectorIcNS_9allocatorIcEEEC2Ej
lgf:_KeyPairPersistence_CanSecure_m2251009700
Dw:__ZN7mecanim5human14HumanPoseClearERNS0_9HumanPoseERKNS_6bitsetILj70EEE
DDb:__ZN9TextAsset15ThreadedCleanupEv
Jig:_ReturnMessage_get_Properties_m531965085
xch:_GenericTypeParameterBuilder_IsSubclassOf_m563999142
CBe:_Exception_ToString_m627574695
wyc:__ZNSt3__26vectorIN20TextRenderingPrivate8FontImpl7IntRectE13stl_allocatorIS3_L18MemLabelIdentifier34ELi16EEE21__push_back_slow_pathIKS3_EEvRT_
Taa:__Z21CompleteFenceInternalR8JobFence
cmc:__Z30Event_Get_Custom_PropModifiersP12Il2CppObject
tKh:_Dictionary_2_ContainsValue_m2375979648_gshared
It:__ZN7mecanim9animation16CreateClipOutputEPKNS0_4ClipERNS_6memory9AllocatorE
JMe:_Array_InternalArray__Insert_TisDecimal_t724701077_m1429254816_gshared
_Aj:_ListPool_1_Get_m2998644518_gshared
VQb:__ZN18StreamedBinaryReadILb0EE21TransferSTLStyleArrayI13dynamic_arrayIyLj8EEEEvRT_17TransferMetaFlags
xxg:_TimeSpan_get_Days_m1002111510
vya:__ZNSt3__218__stable_sort_moveIRN10vector_mapI17ScriptingClassPtrPKN5Unity4TypeENS_4lessIS2_EENS_9allocatorINS_4pairIS2_S6_EEEEE13value_compareENS_11__wrap_iterIPSB_EEEEvT0_SJ_T_NS_15iterator_traitsISJ_E15difference_typeEPNSM_10value_typeE
YRb:__ZN6Shader21AwakeFromLoadThreadedEv
yqa:__ZN6prcoreL17RemapGenericFloatI17TexFormatRGBFloat17TexFormatRGBAHalfEEvPKNS_9InnerInfoE
wti:__ZL70InputField_t1631627530_CustomAttributesCacheGenerator_m_CharacterLimitP21CustomAttributesCache
Gzf:_List_1_get_Capacity_m2443158653_gshared
jvc:__ZN8JSONRead21TransferSTLStyleArrayI13dynamic_arrayI8Vector2fLj4EEEEvRT_18MemLabelIdentifier17TransferMetaFlags
Irh:_LayerMask_op_Implicit_m2135076047
YWc:__ZN13RuntimeStaticINSt3__26vectorIjNS0_9allocatorIjEEEELb0EE16StaticInitializeEPv
EX:__ZN13UploadHandler10OnSentDataEj
ZEd:__ZN6il2cpp2os9SemaphoreC2Eii
u4i:_InternalEnumerator_1_get_Current_m2960188445_AdjustorThunk
MRg:__Z56RuntimeInvoker_UriHostNameType_t2148127109_RuntimeObjectPFvvEPK10MethodInfoPvPS4_
XFb:__ZNSt3__26vectorI8MonoPPtr13stl_allocatorIS1_L18MemLabelIdentifier1ELi16EEE8__appendEj
GFi:_Text_set_alignByGeometry_m1514652028
MZa:__ZN14qsort_internal30FindAndMovePivotToLastPositionIP17RODataReplacementi19ROSorterReplacementEEvT_S4_T0_T1_
hMa:__ZN15UniformTFMethod20IsBoneCountSupportedEi
vuh:_Object_Internal_InstantiateSingle_m2776302597
iMd:_X509Certificate_GetExpirationDateString_m2351894475
G2e:_FileStream_get_Position_m465478322
_$c:__ZN14dense_hash_setI10KeyWrapperIPK19Il2CppGenericMethodEN6il2cpp8metadata23Il2CppGenericMethodHashENS4_14EqualsComparerINS6_26Il2CppGenericMethodCompareEEENSt3__29allocatorIS4_EEEC2EjRKS7_RKSA_
RRj:dynCall_viidi
NMe:_Array_InternalArray__Insert_TisInt64_t909078037_m3039874636_gshared
Kee:_Convert_ToInt16_m1787678274
qGi:_ToggleGroup_NotifyToggleOn_m997426227
ht:__ZN8Playable18OnApplicationPauseEb
n3f:_RSASslSignatureDeformatter_SetKey_m1150106904
cki:__ZL74Event_t3028476042_CustomAttributesCacheGenerator_Event_Cleanup_m1195902101P21CustomAttributesCache
f2:__ZN24ScriptingMethodFiltering17FilterOnSignatureENS_18MethodSearchFilterE
P9g:_TypeBuilder_get_Module_m1668298460
ZAi:_Scrollbar_ClickRepeat_m3403943364
YR:__ZN13ProduceHelperI9AudioClipLb0EE7ProduceE18MemLabelIdentifier18ObjectCreationMode
Nda:__ZN18ScreenManagerWebGL13SetLockCursorE14CursorLockMode
iHc:_cf2_arrstack_finalize
Y8e:_MonoType_GetMethodsByName_m1854415088
SAh:_Enumerator_get_CurrentValue_m3147984131_gshared
IJj:_DisplayBuffer_CutViewport_m34694897
Fah:_DerivedType_GetMethods_m165266904
Vhf:_RSAManaged_EncryptValue_m4089823119
Y_b:__ZN13MonoBehaviour19HandleNotificationsEPviR11MessageData
AFd:__ZN6il2cpp2os9EventImpl5ResetEv
kLh:_DefaultComparer_GetHashCode_m926363525_gshared
Goh:_GUIStyle_set_focused_m1547304893
ZBi:_ScrollRect_get_verticalScrollbar_m2455612493
u3e:_ReadDelegate_Invoke_m2091885836
Obh:_TypeBuilder_GetField_m2112455315
rVj:b58
sVj:b59
fVg:__Z80RuntimeInvoker_PlayableHandle_t213697122_PlayableGraph_t1041204988_RuntimeObjectPFvvEPK10MethodInfoPvPS4_
$Uj:b52
aVj:b53
ZUj:b50
_Uj:b51
nVj:b56
qVj:b57
bVj:b54
cVj:b55
yia:__ZNK13RenderTexture22GetTypeVirtualInternalEv
Rdf:_Kernel_Multiply_m3585610531
MYf:_CertificateSelectionCallback_EndInvoke_m3525317639
UN:__ZN4PPtrI15AudioMixerGroupE8TransferI18StreamedBinaryReadILb0EEEEvRT_
yoi:__ZL116PlayableAsset_t2298101656_CustomAttributesCacheGenerator_PlayableAsset_Internal_GetPlayableAssetDuration_m1442951748P21CustomAttributesCache
$te:_DateTime__ctor_m3604679583_AdjustorThunk
Jei:__ZL96Transform_t3275118058_CustomAttributesCacheGenerator_Transform_INTERNAL_get_position_m1881704498P21CustomAttributesCache
pde:_SimpleEnumerator_Reset_m1341779532
K9c:__ZNSt3__214__split_bufferINS_12basic_stringIcNS_11char_traitsIcEENS_9allocatorIcEEEERNS4_IS6_EEEC2EjjS8_
ihf:_MACAlgorithm_Core_m2390605245
qbj:_InternalEnumerator_1_System_Collections_IEnumerator_get_Current_m30488070_gshared
TZb:__ZN10GameObject12CleanupClassEv
Z7i:_InternalEnumerator_1_System_Collections_IEnumerator_Reset_m2624612805_AdjustorThunk
CFg:__Z77RuntimeInvoker_Byte_t3683104436_RuntimeObject_Int32_t2071877448_RuntimeObjectPFvvEPK10MethodInfoPvPS4_
dZi:_DllImportAttribute__ctor_m1165454237
aBa:__ZN9GfxDevice25SetShaderPropertiesSharedERK19ShaderPropertySheet
Yzj:_IndexedSet_1_GetEnumerator_m3646001838_gshared
jIg:__Z96RuntimeInvoker_Int32_t2071877448_RuntimeObject_Int32_t2071877448_Int32_t2071877448_RuntimeObjectPFvvEPK10MethodInfoPvPS4_
mDb:__ZN10MonoScript17MainThreadCleanupEv
k$g:__Z39RuntimeInvoker_KeyValuePair_2_t38854645PFvvEPK10MethodInfoPvPS4_
oHa:__ZN18AsyncUploadManager19AsyncResourceUploadER9GfxDeviceii9TextureID
tzi:_VertexHelper_AddUIVertexTriangleStream_m4009409241
ffj:_Comparer_1__ctor_m844571340_gshared
E2b:__ZL25InitializeDefaultMaterialv
$Pc:__Z53Register_UnityEngine_CanvasRenderer_get_materialCountv
kxg:_WaitHandle_Dispose_m441403862
yQa:__ZN19FileAccessorHandlerD2Ev
Pfj:_Comparer_1__ctor_m2941434245_gshared
UGi:_VertexHelper_AddVert_m3290455716
Y$h:__ZL56SHA256Managed_t2029745292_CustomAttributesCacheGeneratorP21CustomAttributesCache
UVh:__ZL126GenericTypeParameterBuilder_t1370236603_CustomAttributesCacheGenerator_GenericTypeParameterBuilder_MakeGenericType_m2955814622P21CustomAttributesCache
Ixa:__ZN17PersistentManager12UnloadStreamERKN4core12basic_stringIcNS0_20StringStorageDefaultIcEEEEb
Eda:__ZN13ScreenManager17RequestResolutionEiibi
qqg:_DESTransform__ctor_m4096028381
S7c:_il2cpp_unity_liveness_calculation_from_statics
ZQe:_Dictionary_2_Do_CopyTo_TisDictionaryEntry_t3048875398_TisDictionaryEntry_t3048875398_m983412647_gshared
kx:__ZNK26AnimatorControllerPlayable11DerivesFromE17ScriptingClassPtr
Mwg:_Scheduler_get_Instance_m1989471839
J9f:_WebProxy_GetProxy_m1249556681
Q9f:_WebRequest_System_Runtime_Serialization_ISerializable_GetObjectData_m3377822910
Drb:__ZN8Renderer8TransferI17RemapPPtrTransferEEvRT_
X5g:__Z76RuntimeInvoker_Boolean_t3825574718_UIVertex_t1204258818_UIVertex_t1204258818PFvvEPK10MethodInfoPvPS4_
wHf:_Collection_1_Contains_m1299140035_gshared
pVj:_glBlitFramebuffer__wrapper
jLe:_Array_InternalArray__ICollection_Add_TisUICharInfo_t3056636800_m968274080_gshared
gBj:_ObjectPool_1__ctor_m1532275833_gshared
dEa:__ZN13GfxDeviceGLES19SetSinglePassStereoE16SinglePassStereo
O5g:__Z72RuntimeInvoker_Boolean_t3825574718_Color32_t874517518_Color32_t874517518PFvvEPK10MethodInfoPvPS4_
lCf:_Queue_1_System_Collections_ICollection_get_IsSynchronized_m3521628381_gshared
rQh:__ZL64IntPtr_t_CustomAttributesCacheGenerator_IntPtr__ctor_m3803259710P21CustomAttributesCache
uyf:_List_1_GetIndex_m3262928832_gshared
NZi:_SafeHandle_DangerousRelease_m2167699172
V7a:__Z24LookRotationToQuaternionRK8Vector3fS1_P11Quaternionf
T7a:__ZN16ReflectionProbes9GetCameraEv
rMi:_AnimatorControllerPlayable_ResolveHash_m3629783965_AdjustorThunk
uWb:__ZL18IsGpuProgramUsable20ShaderGpuProgramTypePK6Shader
xlf:_ArgumentException__ctor_m2105824819
BOc:__ZN2UI6Canvas17SetSortingLayerIDEi
XZd:_BaseMeshEffect_get_graphic_m3358796463
Zrd:__ZN6il2cpp2vm11MethodStack23CleanupForCurrentThreadEv
qLj:_Predicate_1_Invoke_m695569038_gshared
anf:_Enumerator_VerifyState_m825848279_AdjustorThunk
mlb:__ZN20TierGraphicsSettings8TransferI24GenerateTypeTreeTransferEEvRT_
f1c:__ZN15dense_hashtableINSt3__24pairIK10KeyWrapperIN6il2cpp5utils13dynamic_arrayIPK10Il2CppTypeLj4EEEEPFvvEEESA_NS3_8metadata19Il2CppSignatureHashEN14dense_hash_mapISA_SD_SG_NSA_14EqualsComparerINSF_22Il2CppSignatureCompareEEENS0_9allocatorISE_EEE9SelectKeyESK_SM_E16reset_thresholdsEv
iGg:__Z77RuntimeInvoker_Int32_t2071877448_RuntimeObject_RuntimeObject_SByte_t454417549PFvvEPK10MethodInfoPvPS4_
qHb:__ZN14SafeBinaryRead21TransferSTLStyleArrayI13dynamic_arrayI4AABBLj4EEEEvRT_17TransferMetaFlags
Tna:__ZN18UnityPropertySheet8TransferI19StreamedBinaryWriteILb0EEEEvRT_
B1f:_TlsServerCertificate_checkServerIdentity_m3836435780
Gba:__ZNSt3__26__treeINS_12__value_typeIiN11TypeManager18TypeCallbackStructEEENS_19__map_value_compareIiS4_NS_4lessIiEELb1EEENS_9allocatorIS4_EEE7destroyEPNS_11__tree_nodeIS4_PvEE
Xif:_PKCS12_Decrypt_m2353135969
aXi:_PersistentCallGroup_Initialize_m3908067069
$gh:_MonoEvent_ToString_m386956596
ani:__ZL70RuntimePlatform_t1869584967_CustomAttributesCacheGenerator_FlashPlayerP21CustomAttributesCache
GPe:_Array_Sort_TisRuntimeObject_m3309514378_gshared
rXd:_PointerEventData_get_pointerPress_m880101744
wka:__ZL19GetCameraTargetRectRK6Camerabb
jDh:_Transform_1_BeginInvoke_m1786442111_gshared
yhi:__ZL137AnimatorControllerPlayable_t1744083903_CustomAttributesCacheGenerator_AnimatorControllerPlayable_PlayInFixedTime_m135407725____fixedTime2P21CustomAttributesCache
pZe:_Int32_GetFormatException_m1729046182
M8a:__ZN13dynamic_arrayIN10GameObject13ComponentPairELj4EE6insertEPS1_RKS1_
pDf:_Collection_1_get_Count_m3834276648_gshared
dgb:__ZN21UnityDefaultAllocatorI17LowLevelAllocatorE10DeallocateEPv
tZ:__GLOBAL__sub_I_runtime_camera2_lump_cpp
Kr:__ZN15PackedIntVector8TransferI14SafeBinaryReadEEvRT_
yfh:_FieldInfo_get_IsLiteral_m267898096
kfi:__ZL105RectTransform_t3349966182_CustomAttributesCacheGenerator_RectTransform_INTERNAL_set_sizeDelta_m1402803191P21CustomAttributesCache
B4f:_SslStreamBase_EndNegotiateHandshake_m1732321201
HDh:_Transform_1_BeginInvoke_m1167293475_gshared
bK:__ZN13AudioListener8DoUpdateEv
qPh:__ZL71SByte_t454417549_CustomAttributesCacheGenerator_SByte_Parse_m1620039654P21CustomAttributesCache
upe:__Z13bankers_roundd
wzb:__ZN14SafeBinaryRead8TransferI5RectTIfEEEvRT_PKc17TransferMetaFlags
vi:_emscripten_glGenFramebuffers
Ame:_Hashtable_CopyTo_m2778915805
Bba:__ZN17BaseObjectManager16StaticInitializeEPv
V9g:_ConstructorBuilder_get_IsCompilerContext_m2796899803
H9h:__ZL97Component_t3819376471_CustomAttributesCacheGenerator_Component_GetComponentsInChildren_m843288020P21CustomAttributesCache
WIe:_Array_IndexOf_TisUIVertex_t1204258818_m613887160_gshared
AAb:__ZN18StreamedBinaryReadILb0EE19TransferSTLStyleMapINSt3__28multimapIN4core12basic_stringIcNS4_20StringStorageDefaultIcEEEE4PPtrI6ObjectENS2_4lessIS8_EE13stl_allocatorINS2_4pairIKS8_SB_EEL18MemLabelIdentifier51ELi16EEEEEEvRT_17TransferMetaFlags
U0d:_FloatTween_GetDuration_m1757342579_AdjustorThunk
Vpe:_DateTime_CoreParse_m2014268103
Yvf:_List_1__ctor_m3698273726_gshared
COi:_Application_InvokeOnBeforeRender_m799598445
hhb:__ZN9Behaviour23VirtualRedirectTransferER17RemapPPtrTransfer
grc:__Z18Transfer_BlittableI9JSONWriteLb0EyEvRK29SerializationCommandArgumentsR31RuntimeSerializationCommandInfo
Cka:__ZN13RenderTexture15ThreadedCleanupEv
yWc:__ZNK20UnityWebRequestProtoI19TransportJavaScript16AtomicRefCounter14RedirectHelper14ResponseHelper15DownloadHandler13UploadHandler12HeaderHelper14AsyncOperationE19GetDownloadProgressEv
WHe:_Array_BinarySearch_TisRuntimeObject_m3361740551_gshared
_nb:__ZN12CubemapArray23VirtualRedirectTransferER14SafeBinaryRead
Lt:__ZN21AnimationClipPlayable16ProcessHumanPassEPK35AnimationPlayableEvaluationConstantPK32AnimationPlayableEvaluationInputP33AnimationPlayableEvaluationOutput
pec:__Z51Register_UnityEngine_QualitySettings_set_vSyncCountv
SRf:_ReadOnlyCollection_1_System_Collections_IList_Add_m616574295_gshared
qZe:_Int32_ProcessTrailingWhitespace_m2812079777
Tta:__ZN18ProceduralMaterial9ReloadAllEbb
ahc:__Z43RectTransform_CUSTOM_INTERNAL_set_sizeDeltaP12Il2CppObjectRK13Vector2fIcall
E9f:_WebProxy__ctor_m3679722173
X6i:_InternalEnumerator_1_Dispose_m2743309309_AdjustorThunk
god:__ZN15dense_hashtableINSt3__24pairIK10KeyWrapperINS1_IPKcS4_EEEiEES6_24NamespaceAndNamePairHashN14dense_hash_mapIS6_iS9_NS6_14EqualsComparerI26NamespaceAndNamePairEqualsEENS0_9allocatorIS8_EEE9SelectKeyESD_SF_E6insertERKS8_
Ija:__ZN24GenerateTypeTreeTransfer18BeginArrayTransferEPKcS1_Ri17TransferMetaFlags
uHa:__Z16DecompressCrunchPKhRjR13TextureFormatiiii18MemLabelIdentifier
IAf:_List_1__ctor_m2082969060_gshared
nm:___syscall51
rm:___syscall54
Ayj:_UnityAction_2_Invoke_m1994351568_gshared
hMb:__Z18Transfer_BlittableI19StreamedBinaryWriteILb0EELb1EjEvRK29SerializationCommandArgumentsR31RuntimeSerializationCommandInfo
SC:__ZNK8Animator20IsAnyRendererVisibleEv
RHc:_cff_builder_add_point1
apd:__ZN6il2cpp2vm5Image21GetCachedResourceDataEPK11Il2CppImageRKNSt3__212basic_stringIcNS5_11char_traitsIcEENS5_9allocatorIcEEEE
I5d:_HorizontalOrVerticalLayoutGroup_set_childControlWidth_m4209477792
pQg:__Z54RuntimeInvoker_TimeSpan_t3430258949_Double_t4078015681PFvvEPK10MethodInfoPvPS4_
ZKe:_Array_InternalArray__ICollection_Add_TisUInt32_t2149682021_m2629016323_gshared
OEb:__Z18Transfer_BlittableI14SafeBinaryReadLb0E10ColorRGBAfEvRK29SerializationCommandArgumentsR31RuntimeSerializationCommandInfo
za:invoke_iiiiiiiiii
zR:__ZNK7Texture10GetVRUsageEv
BMe:_Array_InternalArray__Insert_TisKeyValuePair_2_t888819835_m975554221_gshared
GMg:__Z59RuntimeInvoker_RuntimeObject_Int64_t909078037_RuntimeObjectPFvvEPK10MethodInfoPvPS4_
jta:__ZN18LoadSceneOperation19IntegrateTimeSlicedEi
Xwg:_Scheduler_SchedulerThread_m2209572785
acf:_SortKeyBuffer_GetResultAndReset_m2516956577
Pdb:__ZN10FileSystem19SetCurrentDirectoryERKN4core12basic_stringIcNS0_20StringStorageDefaultIcEEEE
hBj:_ObjectPool_1_get_countAll_m4217365918_gshared
J4:__ZN16ScriptingManager24NotifyScriptCacheReleaseEi
k7h:__ZL85UriParser_t1012511323_CustomAttributesCacheGenerator_UriParser_OnRegister_m4010407891P21CustomAttributesCache
HVh:__ZL63UnmanagedMemoryStream_t822875729_CustomAttributesCacheGeneratorP21CustomAttributesCache
Ibc:__Z47Register_UnityEngine_Coroutine_ReleaseCoroutinev
JK:__ZN15AudioReverbZone13SetFMODValuesEv
dUi:_Component_GetComponentInChildren_m3925629424
i1:__ZL19StaticDestroyShaderPv
he:_glRenderbufferStorageMultisample
rjg:_SoapTypeAttribute_get_XmlTypeName_m2546866572
nli:__ZL89GUIStyle_t1799908754_CustomAttributesCacheGenerator_GUIStyle_AssignStyleState_m2665274947P21CustomAttributesCache
qy:__ZN23AnimationPlayableOutput17SetTargetAnimatorEP8Animator
DNf:_ReadOnlyCollection_1_System_Collections_IList_get_IsFixedSize_m158012227_gshared
Ioj:_X509Chain__ctor_m1113875360
DHb:__Z35Transfer_Blittable_SingleValueFieldI14SafeBinaryReadfEvRT_R17GeneralMonoObjectRK23StaticTransferFieldInfo
W1f:_TlsServerHello_processProtocol_m1241336522
y7h:__ZL79ModulusRing_t80355992_CustomAttributesCacheGenerator_ModulusRing_Pow_m661630322P21CustomAttributesCache
SEe:_Array_InternalArray__ICollection_Remove_TisKeyValuePair_2_t888819835_m1287715465_gshared
j5i:_InternalEnumerator_1_System_Collections_IEnumerator_Reset_m324760031_AdjustorThunk
P0i:_ContextAttribute_IsContextOK_m3281216012
G4e:_PathTooLongException__ctor_m3212099251
D$j:_pthread_cond_broadcast__wrapper
fng:_ObjectManager_RaiseDeserializationEvent_m1611173032
RJi:_AnimatorControllerPlayable_INTERNAL_CALL_CreateHandleInternal_m1836196929
Tr:__ZN17PackedFloatVector8TransferI18StreamedBinaryReadILb0EEEEvRT_
bbi:__ZL88Screen_t786852042_CustomAttributesCacheGenerator_Screen_t786852042____width_PropertyInfoP21CustomAttributesCache
Gob:__ZN7Cubemap23VirtualRedirectTransferER17RemapPPtrTransfer
sec:__Z37Register_UnityEngine_Screen_get_widthv
C2d:_DropdownItem_get_image_m2752143412
fGj:__ZL24UnresolvedVirtualCall_60P12Il2CppObjectaPK10MethodInfo
$5b:__ZN22BlockMemoryCacheWriter11GetPathNameEv
b4d:_Graphic_Rebuild_m2617722358
oYh:__ZL86SafeHandle_t2733794115_CustomAttributesCacheGenerator_SafeHandle_SetHandle_m1980208835P21CustomAttributesCache
zve:_DateTime_ToString_m3108726445_AdjustorThunk
jV:__ZN19CloudServiceHandlerD2Ev
gSe:_Array_InternalArray__get_Item_TisTableRange_t2011406615_m602485977_gshared
i9d:_InputField_Append_m2623574152
qlf:_ApplicationException__ctor_m1120437222
Fhh:_MonoMethod__ctor_m4091684020
ip:stackAlloc
acc:__Z44Camera_CUSTOM_INTERNAL_CALL_ScreenPointToRayP12Il2CppObjectRK8Vector3fR3Ray
hRa:__ZN25SingleBlockMemoryFileData4LockEPPv
bSa:__ZN12HandlerChain5TouchER13FileEntryData
Vdh:_MethodBuilder_GetHashCode_m1713271764
t0g:__Z50RuntimeInvoker_Boolean_t3825574718_Link_t865133271PFvvEPK10MethodInfoPvPS4_
CDe:_Array_get_swapper_TisUIVertex_t1204258818_m1078858558_gshared
jbf:_MSCompatUnicodeTable_GetResource_m3816716847
jdc:__Z32RectOffset_Get_Custom_PropBottomP12Il2CppObject
nce:_Array_CreateInstance_m15016505
ndi:__ZL103DataUtility_t4181890362_CustomAttributesCacheGenerator_DataUtility_INTERNAL_CALL_GetPadding_m1621366113P21CustomAttributesCache
QGb:__ZNSt3__26vectorI17AnimationCurveTplIfE13stl_allocatorIS2_L18MemLabelIdentifier1ELi16EEE6assignINS_11__wrap_iterIPS2_EEEENS_9enable_ifIXaasr21__is_forward_iteratorIT_EE5valuesr16is_constructibleIS2_NS_15iterator_traitsISC_E9referenceEEE5valueEvE4typeESC_SC_
LNj:_stat
y5i:_InternalEnumerator_1_MoveNext_m3486952605_gshared
Wi:_JS_Eval_ClearTimeout
oZj:_glUniform2fv__wrapper
$Le:_Array_InternalArray__ICollection_CopyTo_TisUInt16_t986882611_m3228377237_gshared
Gqf:_List_1_Add_m4157722533_gshared
fui:__ZL68Navigation_t1571958496_CustomAttributesCacheGenerator_m_SelectOnDownP21CustomAttributesCache
FRi:_Bounds_op_Inequality_m2315096783
Yaj:_InternalEnumerator_1_System_Collections_IEnumerator_get_Current_m3065287496_gshared
iza:__ZNSt3__218__insertion_sort_3IRNS_4lessIN22BuiltinResourceManager8ResourceEEEPS3_EEvT0_S7_T_
zUi:_Component_BroadcastMessage_m1308086896
YHd:_RC2_set_KeySize_m2015782960
la:invoke_iiiiiiiiiiii
hCf:_Queue_1_GetEnumerator_m2842671368_gshared
dJf:_Collection_1_SetItem_m3715941382_gshared
uWe:_NumberFormatInfo_get_CurrencyGroupSeparator_m2480433019
Lif:_StrongName_get_PublicKey_m3777577320
B8h:__ZL120AssetBundleCreateRequest_t1038783543_CustomAttributesCacheGenerator_AssetBundleCreateRequest_get_assetBundle_m2931245245P21CustomAttributesCache
MYi:_RuntimeCompatibilityAttribute__ctor_m1331212510
WFe:_PlayableHandle_IsPlayableOfType_TisAnimationLayerMixerPlayable_t3057952312_m964258557_gshared
cec:__Z43Register_UnityEngine_GameObject_SendMessagev
R7:__ZNSt3__26__treeINS_12__value_typeIN4core12basic_stringIcNS2_20StringStorageDefaultIcEEEES6_EENS_19__map_value_compareIS6_S7_NS_4lessIS6_EELb1EEE13stl_allocatorIS7_L18MemLabelIdentifier12ELi16EEE7destroyEPNS_11__tree_nodeIS7_PvEE
LYc:__ZN6il2cpp2vm17SetupFieldsLockedEP11Il2CppClassRKNS_2os12FastAutoLockE
cO:__ZN11AudioSourceD0Ev
$Si:_CanvasRenderer_set_hasPopInstruction_m1388844875
lsf:_List_1_System_Collections_ICollection_CopyTo_m1530390632_gshared
KKf:_Collection_1_System_Collections_IEnumerable_GetEnumerator_m1452790461_gshared
J6i:_InternalEnumerator_1_System_Collections_IEnumerator_Reset_m3194282029_AdjustorThunk
oeb:__ZN16MemoryFileSystem4NameEv
yuf:__ZN21InterfaceFuncInvoker0I18Color32_t874517518E6InvokeEjP11Il2CppClassP12Il2CppObject
KUd:_BaseRaycaster_OnEnable_m3641767070
BAf:_List_1_ToArray_m2810936944_gshared
K7e:_MissingMemberException_get_Message_m2763732423
GVf:_PrimeGeneratorBase_get_PrimalityTest_m308005118
aRh:__ZL71Enum_t2459695545_CustomAttributesCacheGenerator_Enum_Format_m2294492821P21CustomAttributesCache
Iph:_GUIStyle_Internal_CalcSize_m1309259680
Flc:__ZNK8GUIStyle8CalcSizeER10GUIContent
Trf:_List_1_CheckIndex_m2328469916_gshared
dQg:__Z75RuntimeInvoker_RuntimeObject_RuntimeObject_Decimal_t724701077_RuntimeObjectPFvvEPK10MethodInfoPvPS4_
eBf:_List_1_AddRange_m3345533268_gshared
pzc:_UNITY_FT_New_Size
DH:__Z96Register_UnityEngine_Animations_AnimatorControllerPlayable_INTERNAL_CALL_PlayInFixedTimeInternalv
DBf:_List_1_get_Item_m3157283227_gshared
$He:__ZN21InterfaceFuncInvoker2Ii38CustomAttributeNamedArgument_t94157543S0_E6InvokeEjP11Il2CppClassP12Il2CppObjectS0_S0_
VIh:_Dictionary_2_ToTKey_m965425080_gshared
Xxj:_InvokableCall_4_Invoke_m1555001411_gshared
Zse:_Convert_ToString_m2915777777
toa:__ZNSt3__27__sort4IRPFbRKNS_4pairIN9ShaderLab16FastPropertyNameEN18UnityPropertySheet11UnityTexEnvEEES8_EPS6_EEjT0_SD_SD_SD_T_
eHc:_cf2_hintmap_build
hda:__ZN15dense_hashtableINSt3__24pairIKN4core12basic_stringIcNS2_20StringStorageDefaultIcEEEE10vector_setI4PPtrI11SpriteAtlasENS0_4lessISB_EE13stl_allocatorISB_L18MemLabelIdentifier79ELi16EEEEES6_20StringHash32FunctionIS6_EN14dense_hash_mapIS6_SH_SK_NS0_8equal_toIS6_EESE_ISI_LSF_79ELi16EEE9SelectKeyESN_SO_E5clearEv
UEc:_Line_Up
F9e:_MonoType_GetGenericTypeDefinition_m2363776160
ZBf:_Queue_1__ctor_m1845245813_gshared
b0f:_Context_set_SentConnectionEnd_m2641458842
oe:_emscripten_glBufferSubData
yfe:_Buffer_BlockCopyInternal_m2627156229
JIb:__Z18Transfer_BlittableI17RemapPPtrTransferLb1EyEvRK29SerializationCommandArgumentsR31RuntimeSerializationCommandInfo
W3d:_Graphic_set_material_m329335629
w5:__Z20GetCommonStringTablev
Apa:__ZN6prcoreL12RemapGenericI15TexFormatRGB88817TexFormatARGB8888EEvPKNS_9InnerInfoE
Jp:__Z17CalculateGlobalRS23TransformAccessReadOnly
j$g:__Z70RuntimeInvoker_DictionaryEntry_t3048875398_RuntimeObject_RuntimeObjectPFvvEPK10MethodInfoPvPS4_
lCd:__ZNSt3__210__list_impIPN6il2cpp5utils10MemoryPool6RegionENS_9allocatorIS5_EEE5clearEv
YRi:_Camera_ScreenPointToRay_m614889538
Ldf:_Kernel_multiByteDivide_m735279869
LJh:_Dictionary_2_ToTValue_m542772656_gshared
QUc:__ZN23UnityPurchasingSettings10InitializeER6Object
vwg:_Thread_GetNewManagedId_internal_m3211695465
Gkh:_SkinChangedDelegate_Invoke_m2801964040
ATe:_ScriptableObject_CreateInstance_TisRuntimeObject_m926060499_gshared
bHa:__ZN17GenericDynamicVBO17DrawChunkInternalERK21DynamicVBOChunkHandle17ShaderChannelMaskS3_P17VertexDeclarationP16DrawBuffersRangeij
WWc:__ZN13RuntimeStaticINSt3__26vectorIN5physx25PxVehicleWheelQueryResultENS0_9allocatorIS3_EEEELb0EE16StaticInitializeEPv
LRb:__ZN22MemoryCacherReadBlocks14LockCacheBlockEjPPhS1_
zee:_Boolean_System_IConvertible_ToChar_m2637404801_AdjustorThunk
u4g:__Z55RuntimeInvoker_UICharInfo_t3056636800_Int32_t2071877448PFvvEPK10MethodInfoPvPS4_
hOd:_SecurityContext_Capture_m2535194991
zAg:_UInt16_System_IConvertible_ToSByte_m3044765342_AdjustorThunk
Kah:_DerivedType_IsArrayImpl_m684825803
oPh:__ZL47Byte_t3683104436_CustomAttributesCacheGeneratorP21CustomAttributesCache
zwd:__ZN4utf88internal15increase_safelyIPKcEENS0_9utf_errorERT_S5_
oyc:__ZN20TextRenderingPrivate8FontImpl16CacheFontForTextEPtiifjPK13dynamic_arrayINS_16TextFormatChangeELj4EE
d2g:__Z52RuntimeInvoker_Int32_t2071877448_Vector3_t2243707580PFvvEPK10MethodInfoPvPS4_
SOe:_Array_qsort_TisUIVertex_t1204258818_TisUIVertex_t1204258818_m512606409_gshared
SHd:__Z21ArrayElementTypeCheckP11Il2CppArrayPv
IYj:_emscripten_glTexSubImage2D__wrapper
j7f:_NameValueCollection_AsSingleString_m10599052
DPj:__ZNSt3__212basic_stringIcNS_11char_traitsIcEENS_9allocatorIcEEE6appendEjc
Gaf:_Object_InternalGetHashCode_m1371384246
kzi:_Navigation_get_defaultNavigation_m2185194207
qwi:__ZL73LayoutElement_t2808691390_CustomAttributesCacheGenerator_m_FlexibleHeightP21CustomAttributesCache
wWi:_ArgumentCache_get_stringArgument_m3051619173
d_e:_Int32_System_IConvertible_ToSByte_m1449623243_AdjustorThunk
Kkf:_AccessViolationException__ctor_m1270251537
fRc:__Z42Register_UnityEngine_Canvas_get_rootCanvasv
$oj:_X509ExtensionCollection_IndexOf_m3972100651
UFb:__Z14resize_trimmedINSt3__26vectorI8MonoPPtr13stl_allocatorIS2_L18MemLabelIdentifier1ELi16EEEEEvRT_j
Xe:_TTF_RenderText_Solid
tBg:_UInt32_System_IConvertible_ToInt64_m3091851828
O7e:_MissingMethodException__ctor_m3898429715
Gkg:_RemotingConfiguration_RegisterClientProviderTemplate_m514821425
FBh:_Enumerator_System_Collections_IEnumerator_Reset_m3085583937_gshared
Whf:_RSAManaged_ExportParameters_m2873993187
Voe:_Convert__cctor_m926133987
tCf:_Enumerator__ctor_m2816143215_AdjustorThunk
eVc:__ZN11UnityEngine7Connect16PersistentValuesC2Ev
wcg:_X509Chain_FindParent_m404663796
M7e:_MissingMemberException__ctor_m2164043278
MNd:__Z15CastclassSealedP12Il2CppObjectP11Il2CppClass
MGf:_Collection_1_CopyTo_m2282972507_gshared
a_d:_BaseVertexEffect__ctor_m358261091
dKa:__Z15IsIEEE754Format14GraphicsFormat
XIb:__Z19TransferField_ArrayI17RemapPPtrTransfer27Converter_UnityEngineObjectEvRK23StaticTransferFieldInfoR31RuntimeSerializationCommandInfoRT0_
$a:invoke_iifiii
r1a:__ZN19ShaderPropertySheet24SetTextureFromTextureRefERK23FastTexturePropertyNamePK10TextureRef
w$h:__ZL53HMACSHA384_t3026079344_CustomAttributesCacheGeneratorP21CustomAttributesCache
G$e:_NumberFormatter_InitDecHexDigits_m1612588520
nCa:__ZN13GfxDeviceGLES15UploadTexture2DE9TextureID16TextureDimensionPKhiii14GraphicsFormati18TextureUploadFlags16TextureUsageMode
Z$e:_IntPtr_System_Runtime_Serialization_ISerializable_GetObjectData_m21554269_AdjustorThunk
PPd:_Single_GetHashCode_m3102305584_AdjustorThunk
QQe:_Array_swap_TisVector3_t2243707580_m3036634038_gshared
AM:__ZN4FMOD6System9createDSPEP20FMOD_DSP_DESCRIPTIONPPNS_3DSPE
esh:_Material_HasProperty_m3175512802
Ux:__ZN7mecanim9animation26DestroyControllerWorkspaceEPNS0_19ControllerWorkspaceERNS_6memory9AllocatorE
mmj:_UriParser_set_SchemeName_m3624672465
QI:__ZN4FMOD8ChannelI11EndCallbackEv
ILd:_ToBase64Transform_TransformBlock_m2201454137
tlc:__ZN8GUIStyle14SetDefaultFontEPN13TextRendering4FontE
Eeh:_OpCode_get_StackBehaviourPop_m3787015663_AdjustorThunk
Sgj:_PatternCompiler_EmitCount_m3609178511
isb:__ZN15QualitySettings23VirtualRedirectTransferER24GenerateTypeTreeTransfer
YKj:_U3CCreateWhereIteratorU3Ec__Iterator1D_1_System_Collections_Generic_IEnumerableU3CTSourceU3E_GetEnumerator_m2682676065_gshared
kTe:_Component_GetComponent_TisRuntimeObject_m4109961936_gshared
Dph:_GUIStyle_Internal_GetCursorStringIndex_m1491806746
jqi:__ZL89PointerEventData_t1599784723_CustomAttributesCacheGenerator_U3CpositionU3Ek__BackingFieldP21CustomAttributesCache
x8c:__ZN6il2cpp2os10FileHandleC2Ev
xOg:__Z48RuntimeInvoker_SByte_t454417549_SByte_t454417549PFvvEPK10MethodInfoPvPS4_
SIg:__Z65RuntimeInvoker_Void_t1841601450_SByte_t454417549_SByte_t454417549PFvvEPK10MethodInfoPvPS4_
s5g:__Z54RuntimeInvoker_KeyValuePair_2_t888819835_RuntimeObjectPFvvEPK10MethodInfoPvPS4_
p5g:__Z65RuntimeInvoker_DictionaryEntry_t3048875398_IntPtr_t_RuntimeObjectPFvvEPK10MethodInfoPvPS4_
bgc:__Z59Register_UnityEngine_MonoBehaviour_Internal_CancelInvokeAllv
b1h:__ZL84Encoding_t663144255_CustomAttributesCacheGenerator_Encoding_GetByteCount_m4104502544P21CustomAttributesCache
$Vd:__ZN23InterfaceActionInvoker1IP25AxisEventData_t1524870173E6InvokeEjP11Il2CppClassP12Il2CppObjectS1_
Hjg:_ObjRef_set_TypeInfo_m1661789743
w$c:__ZN30dense_hashtable_const_iteratorINSt3__24pairIK10KeyWrapperIPK19Il2CppGenericMethodEPK26Il2CppGenericMethodIndicesEES6_N6il2cpp8metadata23Il2CppGenericMethodHashEN14dense_hash_mapIS6_SA_SE_NS6_14EqualsComparerINSD_26Il2CppGenericMethodCompareEEENS0_9allocatorISB_EEE9SelectKeyESI_SK_EppEv
jnh:_GUISkin_get_box_m533626169
c6f:_HybridDictionary_Add_m1037587952
lsh:_Mathf_Cos_m238853451
Tyc:_UNITY_FT_Request_Metrics
Sja:__ZN7Texture8TransferI18StreamedBinaryReadILb0EEEEvRT_
Gmd:__ZN6il2cpp6icalls8mscorlib6System10Reflection10MonoMethod29get_IsGenericMethodDefinitionEP22Il2CppReflectionMethod
ljd:__ZN6il2cpp2vm6Thread21AllocThreadStaticDataEi
Hjj:__ZN23InterfaceActionInvoker4IiibP19LinkRef_t2090853131E6InvokeEjP11Il2CppClassP12Il2CppObjectiibS1_
Xpe:_DateTime_YearMonthDayFormats_m4204607055
C$d:_ColorBlock_set_disabledColor_m3502887543_AdjustorThunk
uvd:__ZN30dense_hashtable_const_iteratorINSt3__24pairIK10KeyWrapperIPK19Il2CppGenericMethodEP10MethodInfoEES6_N6il2cpp8metadata23Il2CppGenericMethodHashEN14dense_hash_mapIS6_S9_SD_NS6_14EqualsComparerINSC_26Il2CppGenericMethodCompareEEENS0_9allocatorISA_EEE9SelectKeyESH_SJ_EppEv
fS:__Z13RegisterClassI13AudioListenerEvv
T3g:__Z48RuntimeInvoker_Link_t865133271_Int32_t2071877448PFvvEPK10MethodInfoPvPS4_
UBj:_Aes__ctor_m4020215067
uF:__ZN23AnimationOffsetPlayable11GetPositionEv
Jfi:__ZL125AudioClipPlayable_t192218916_CustomAttributesCacheGenerator_AudioClipPlayable_INTERNAL_CALL_SetPauseDelayInternal_m4175269806P21CustomAttributesCache
rqc:__Z18Transfer_BlittableI9JSONWriteLb0E8Vector3fEvRK29SerializationCommandArgumentsR31RuntimeSerializationCommandInfo
r8:__ZN13RuntimeStaticI17UniqueIDGeneratorLb0EE13StaticDestroyEPv
Wf:_emscripten_glUniform4i
D$h:__ZL46MD5_t1507972490_CustomAttributesCacheGeneratorP21CustomAttributesCache
$3d:_Graphic_OnDisable_m2360886868
mBj:_ObjectPool_1_Release_m1615270002_gshared
gf:_emscripten_glUniform4f
zj:___unlock
oyd:_GC_default_oom_fn
uH:__Z105Register_UnityEngine_Animations_AnimatorControllerPlayable_INTERNAL_CALL_GetAnimatorClipInfoCountInternalv
GCi:_ScrollRect_InternalCalculateOffset_m3083065267
n9i:_InternalEnumerator_1_System_Collections_IEnumerator_Reset_m1561424184_AdjustorThunk
Tke:_Comparer_Compare_m4132969818
PO:__ZN20SoundChannelInstance19setReverbPropertiesEP29FMOD_REVERB_CHANNELPROPERTIES
L9d:_U3CCaretBlinkU3Ec__Iterator0_System_Collections_Generic_IEnumeratorU3CobjectU3E_get_Current_m3541562536
Adj:_InternalEnumerator_1__ctor_m2808001655_AdjustorThunk
taj:_InternalEnumerator_1_System_Collections_IEnumerator_Reset_m2571770313_AdjustorThunk
Ffh:_FieldInfo_get_UMarshal_m1934544188
RE:__ZNK26AnimatorControllerPlayable14IsInTransitionEi
DLh:_DefaultComparer_Equals_m2171836276_gshared
qca:__ZN13RuntimeStaticI18SpriteAtlasManagerLb0EE13StaticDestroyEPv
zsg:_Latin1Encoding_GetByteCount_m2621626395
zZh:__ZL55IMessageSink_t2189618969_CustomAttributesCacheGeneratorP21CustomAttributesCache
ljc:__Z40Register_UnityEngine_Transform_IsChildOfv
iph:_GUIStyle_Draw_m1435796321
Lie:_ArrayList_Sort_m923359189
$Fi:_Text_CalculateLayoutInputVertical_m1732119136
_cc:__Z45Register_UnityEngine_Display_GetSystemExtImplv
bPa:__ZN9GfxDevice31DrawIndexedNullGeometryIndirectE16GfxPrimitiveTypeP9GfxBuffer15ComputeBufferIDj
Iu:__ZN7mecanim9animation23TransformValuesFromClipEiiiRKNS_10ValueArrayERKNS0_10ClipOutputERKNS0_12ClipBindingsERS1_RNS_14ValueArrayMaskEb
tRi:_Bounds_set_center_m2069004927_AdjustorThunk
ckf:_X509Certificate_GetSubjectName_m2120755276
znc:__Z46GUIStyle_CUSTOM_Internal_DrawWithTextSelectionP12Il2CppObjectR43MonoInternal_DrawWithTextSelectionArguments
wXc:__ZL17log2withScale_128yyi
Tci:__ZL58ResourceRequest_t2560315377_CustomAttributesCacheGeneratorP21CustomAttributesCache
lNc:__ZNSt3__218__insertion_sort_3IRNS_6__lessIN2UI14DepthSortEntryES3_EEPS3_EEvT0_S7_T_
xhh:_MonoField_CheckGeneric_m1527550038
W9:__ZN13RuntimeStaticI15DirectorManagerLb0EE16StaticInitializeEPv
Utc:__ZN8JSONRead8TransferI23ManagedObjectTransfererEEvRT_PKc17TransferMetaFlagsb
$Vf:_ASN1_get_Value_m2229768312
qVf:_BigInteger_Incr2_m505983313
cUd:_BaseInput_get_touchCount_m998724785
xyb:__ZN11TimeManager6UpdateEv
Joj:_X509Chain_get_Status_m2726750609
C9d:_InputField_get_preferredWidth_m3185355225
Ukh:_GUIUtility_get_pixelsPerPoint_m2667928361
MJf:_Collection_1_RemoveItem_m1406181352_gshared
nwg:_Thread_SetState_m3198426726
dje:_ArrayListWrapper_Contains_m1158465965
DQe:_Array_swap_TisColor32_t874517518_m2203309732_gshared
CSe:_Array_InternalArray__get_Item_TisRuntimeObject_m371871810_gshared
SNj:_fflush
uua:__ZN17LightProbeContext4InitERK16LightmapSettingsRK14RenderSettings
Nee:_Convert_ToInt32_m55151042
TFd:__GLOBAL__sub_I_Error_cpp
djj:_Alternation_GetWidth_m4218808325
Nua:__ZN9Texture3DD2Ev
Zna:__ZN10ColorRGBAf8TransferI19StreamedBinaryWriteILb0EEEEvRT_
hBc:_ft_bitmap_glyph_bbox
KTe:_Component_GetComponentsInParent_TisRuntimeObject_m2092455797_gshared
q7f:_TypeConverterAttribute__ctor_m4061167050
Trd:__ZN6il2cpp2vm11MethodStack17GetStackFramesRawEv
Urd:__ZNSt3__26vectorI20Il2CppStackFrameInfoNS_9allocatorIS1_EEE7reserveEj
ofi:__ZL75SpriteAtlasManager_t308281693_CustomAttributesCacheGenerator_atlasRequestedP21CustomAttributesCache
EJh:_Dictionary_2_ContainsValue_m2760581195_gshared
B2f:_RecordProtocol_ProcessChangeCipherSpec_m3233959862
H5a:__Z34ProcessIndexListIsNodeVisibleStep2RK22SceneCullingParametersPK9SceneNodePK4AABBR9IndexList
kDb:__ZN10MonoScriptD2Ev
Rpa:__ZN6prcoreL12RemapGenericI17TexFormatARGB888817TexFormatBGRA8888EEvPKNS_9InnerInfoE
NEi:_Slider_OnRectTransformDimensionsChange_m4109401172
A9f:_WebHeaderCollection_Get_m3391944907
Aec:__Z39Input_CUSTOM_INTERNAL_get_mousePositionP8Vector3f
VDc:_tt_cmap13_char_next
Ykg:_ServerIdentity__ctor_m1576469955
QUa:__ZN9ShaderLab4Pass16SetupPassOptionsEv
Nzj:_UnityEvent_4__ctor_m3102731553_gshared
ih:_JS_Sound_ReleaseInstance
Rmi:__ZL72IL2CPPStructAlignmentAttribute_t130316838_CustomAttributesCacheGeneratorP21CustomAttributesCache
oBa:__ZN13GfxDeviceGLES19DrawBuffersIndirectEP9GfxBufferPK18VertexStreamSourceiP17VertexDeclaration17ShaderChannelMask16GfxPrimitiveType15ComputeBufferIDj
MHi:_AnimationClipPlayable__ctor_m1126286616
kcd:__ZNK15dense_hashtableINSt3__24pairIK10KeyWrapperINS1_IPK10MethodInfoP11Il2CppClassEEEjEES9_17ReflectionMapHashIS8_EN14dense_hash_mapIS9_jSD_NS9_14EqualsComparerINS0_8equal_toIS8_EEEENS0_9allocatorISB_EEE9SelectKeyESI_SK_E12test_deletedEj
bAh:_Renderer_get_sortingLayerID_m2403577271
CFb:__Z35Transfer_Blittable_FixedBufferFieldI14SafeBinaryReaddEvRK29SerializationCommandArgumentsR31RuntimeSerializationCommandInfo
vZi:_InAttribute__ctor_m1401060713
rXj:_emscripten_glPixelStorei__wrapper
eRg:__Z98RuntimeInvoker_Void_t1841601450_Int32_t2071877448_Int32_t2071877448_SByte_t454417549_RuntimeObjectPFvvEPK10MethodInfoPvPS4_
Uwe:_Decimal_System_IConvertible_ToDecimal_m1541432424_AdjustorThunk
ZQb:__Z29Transfer_Blittable_ArrayFieldI18StreamedBinaryReadILb0EEaEvRT_R9ArrayInfoRK23StaticTransferFieldInfo
ohc:__Z21Resources_CUSTOM_LoadP12Il2CppStringP12Il2CppObject
Em:FUNCTION_TABLE_diddi
wjd:__ZN6il2cpp6icalls8mscorlib6System5Array8FastCopyEP11Il2CppArrayiS5_ii
thc:__Z26Material_CUSTOM_SetIntImplP12Il2CppObjectii
_Ye:_Int16_System_IConvertible_ToSingle_m3277935657_AdjustorThunk
y5c:__ZNSt3__26vectorIPK10MethodInfoNS_9allocatorIS3_EEE21__push_back_slow_pathIRKS3_EEvOT_
KNi:_AnimatorControllerPlayable_HasState_m3003093532_AdjustorThunk
TMc:__ZNK2UI14CanvasRenderer22GetTypeVirtualInternalEv
p1i:_InternalRemotingServices__cctor_m3821625125
wdc:__Z42Register_UnityEngine_RectOffset_get_bottomv
rtg:_StringBuilder_Insert_m3322917127
JKh:_DefaultComparer_Equals_m724229128_gshared
Wwf:_List_1__cctor_m1337542316_gshared
uCh:_Enumerator_VerifyCurrent_m1702320752_AdjustorThunk
M2i:_ArrayReadOnlyList_1_Clear_m2539474626_gshared
Phg:__ZN21InterfaceFuncInvoker0IP24ObjectU5BU5D_t3614634134E6InvokeEjP11Il2CppClassP12Il2CppObject
qyj:_UnityAction_1_EndInvoke_m2603848420_gshared
zre:_Convert_ToDouble_m3520060872
MWj:_emscripten_glUniform1f__wrapper
zRj:dynCall_di
t3f:_SslCipherSuite_ComputeServerRecordMAC_m1876572367
_xc:__ZN20TextRenderingPrivate19NativeTextGeneratorC2ERK11UTF16StringPNS_8FontImplE11ColorRGBA32ifRK8Vector2fbifiibffbbbP13dynamic_arrayIN2UI8UIVertexELj4EE
_pc:__Z28RegisterModule_JSONSerializev
Cvg:_Interlocked_CompareExchange_m3227034792
uGd:_HashAlgorithm_get_Hash_m931854461
e8c:_il2cpp_monitor_enter
Gej:_DefaultComparer_Compare_m3564013922_gshared
YXb:__ZN2UI13RectTransform8TransferI14SafeBinaryReadEEvRT_
crc:__Z35Transfer_Blittable_FixedBufferFieldI9JSONWriteaEvRK29SerializationCommandArgumentsR31RuntimeSerializationCommandInfo
y7b:__Z20IsHumanControllingUsv
bWa:__ZNK19RenderEventsContext21ExecuteCommandBuffersEijR17ShaderPassContextR15RenderNodeQueueP19ProfilerInformationi
oIf:_Collection_1_RemoveAt_m3454169520_gshared
yli:__ZL99GUIStyle_t1799908754_CustomAttributesCacheGenerator_GUIStyle_INTERNAL_get_contentOffset_m2667265678P21CustomAttributesCache
t_:__ZNK20DynamicHeapAllocatorI17LowLevelAllocatorE10GetPtrSizeEPKv
zFd:__ZN6il2cpp2os9EventImpl3SetEv
V1d:_Dropdown_set_value_m2945561009
fBa:__ZN13GfxDeviceGLES17DestroyGpuProgramEPK10GpuProgram
mWe:_GregorianCalendar_GetMonth_m523739832
qEb:__Z44InitializeTransferFunctionScriptingTraitsForI18StreamedBinaryReadILb0EEEvR31TransferFunctionScriptingTraits
F1a:__ZNSt3__218__insertion_sort_3IR23CompareReflectionProbesP31RuntimeReflectionProbeBlendInfoEEvT0_S5_T_
fJb:__ZN12NativeBufferI27Converter_SimpleNativeClassI8GradientEE15SetupForWritingER9ArrayInfo
Dca:__ZNSt3__213__stable_sortIRNS_4lessIN4core12basic_stringIcNS2_20StringStorageDefaultIcEEEEEENS_11__wrap_iterIPS6_EEEEvT0_SC_T_NS_15iterator_traitsISC_E15difference_typeEPNSF_10value_typeEi
dOf:_ReadOnlyCollection_1_System_Collections_ICollection_get_IsSynchronized_m2987885125_gshared
_jh:_GameObject_AddComponent_m3757565614
tda:__ZN12_GLOBAL__N_113StaticDestroyEPv
xYe:_Guid_ToString_m51661589
Bkc:__ZNK8GUIStyle4DrawER8GUIStateRK5RectTIfER10GUIContentbbbb
uHh:_Dictionary_2__ctor_m1512192236_gshared
sFi:_Text_set_font_m1095513810
x$j:_glUnmapBuffer__wrapper
Iue:_DateTime_System_IConvertible_ToUInt32_m1363211018_AdjustorThunk
V6d:_InputField_get_cachedInputTextGenerator_m881618486
CSi:_Canvas_get_rootCanvas_m1790974328
ufc:__Z32Mesh_CUSTOM_ExtractArrayFromListP12Il2CppObject
z8g:_Binder_get_DefaultBinder_m965620943
tqi:__ZL87PointerEventData_t1599784723_CustomAttributesCacheGenerator_U3CbuttonU3Ek__BackingFieldP21CustomAttributesCache
xuc:__ZN8JSONRead21TransferSTLStyleArrayINSt3__26vectorI8Gradient13stl_allocatorIS3_L18MemLabelIdentifier1ELi16EEEEEEvRT_17TransferMetaFlags
H0f:_SecurityParameters_Clear_m3409219757
Uyb:__ZNSt3__218__insertion_sort_3IRNS_6__lessINS_4pairIPKN5Unity4TypeE7Hash128EES8_EEPS8_EEvT0_SC_T_
yhj:_PatternCompiler_EmitAlternationEnd_m889639343
HKb:__ZN10RectOffset8TransferI24GenerateTypeTreeTransferEEvRT_
nde:_SimpleEnumerator_get_Current_m482975946
n8b:__Z18GetResourceManagerv
wOj:_srand
Bcd:__ZNK15dense_hashtableINSt3__24pairIK10KeyWrapperINS1_IPK10MethodInfoP11Il2CppClassEEEjEES9_17ReflectionMapHashIS8_EN14dense_hash_mapIS9_jSD_NS9_14EqualsComparerINS0_8equal_toIS8_EEEENS0_9allocatorISB_EEE9SelectKeyESI_SK_E10test_emptyERK30dense_hashtable_const_iteratorISB_S9_SD_SM_SI_SK_E
M8e:_MonoTypeInfo__ctor_m1398838196
_Mc:__ZN2UI13CanvasManager19RemoveDirtyRendererEPNS_6CanvasEPNS_14CanvasRendererE
iyh:_Rect_get_position_m24550734
uGi:_Toggle_Rebuild_m929023818
v0c:__ZN15dense_hashtableI10KeyWrapperIPK17Il2CppGenericInstES4_N6il2cpp8metadata21Il2CppGenericInstHashEN14dense_hash_setIS4_S7_NS4_14EqualsComparerINS6_24Il2CppGenericInstCompareEEENSt3__29allocatorIS4_EEE8IdentityESB_SE_E12resize_deltaEjj
uga:__Z15GetIApplicationv
OQi:_AudioClip_InvokePCMSetPositionCallback_Internal_m2304858844
kSc:__ZN11UnityEngine15PlatformWrapper25GetGraphicsRendererStringEv
Q8d:_InputField_KeyPressed_m3066588581
Lsj:_Time_get_unscaledTime_m862335845
Xgi:__ZL129AnimatorControllerPlayable_t1744083903_CustomAttributesCacheGenerator_AnimatorControllerPlayable_CrossFadeInFixedTime_m3006052409P21CustomAttributesCache
SDi:_Selectable_DoStateTransition_m539253088
RKd:_SHA512_Create_m439875055
PY:__ZN11UnityEngine15CloudWebService17WebFileDownloaderINS0_20WebRequestRestClientENS0_23WebRequestRestHeaderMapEED2Ev
Xb:invoke_vi
JKd:_SHA384Managed_update_m2629600295
awi:__ZL68GridLayoutGroup_t1515633077_CustomAttributesCacheGenerator_m_SpacingP21CustomAttributesCache
XPa:__ZN15dense_hashtableINSt3__24pairIKN4core12basic_stringIcNS2_20StringStorageDefaultIcEEEEP20ArchiveStorageReaderEES6_20StringHash32FunctionIS6_EN14dense_hash_mapIS6_S9_SC_NS0_8equal_toIS6_EE13stl_allocatorISA_L18MemLabelIdentifier54ELi16EEE9SelectKeyESF_SI_ED2Ev
Vb:invoke_vd
ub:invoke_vf
kcj:_InternalEnumerator_1__ctor_m32322958_AdjustorThunk
o6:__ZNK10GameObject8IsActiveEv
Z9e:_NumberFormatter__cctor_m1641464619
$og:_SByte_System_IConvertible_ToUInt32_m4256495110
GWd:_PointerEventData_set_eligibleForClick_m2036057844
UJa:__ZN18GfxFramebufferGLES23SetupDefaultFramebufferEPP17RenderSurfaceBaseS2_N2gl6HandleILNS3_10ObjectTypeE9EEE
_Nj:_mbsinit
Soh:_GUIStyle_get_Internal_clipOffset_m4237737448
vpi:__ZL70EventSystem_t3466835263_CustomAttributesCacheGenerator_m_FirstSelectedP21CustomAttributesCache
bea:__ZN13ScreenManager18RequestOrientationE17ScreenOrientation
iZc:__ZN6il2cpp2vm5Class12SetupMethodsEP11Il2CppClass
Pac:__Z39DeleteLastPathNameComponentWithAnySlashRKN4core12basic_stringIcNS_20StringStorageDefaultIcEEEE
Dkc:__ZN10GUIManager14InitGUIManagerEv
w2h:__ZL62ApplicationException_t474868623_CustomAttributesCacheGeneratorP21CustomAttributesCache
sti:__ZL68InputField_t1631627530_CustomAttributesCacheGenerator_m_KeyboardTypeP21CustomAttributesCache
YGi:_VerticalLayoutGroup_CalculateLayoutInputHorizontal_m497637066
d_d:_Button_get_onClick_m1595880935
c6c:__ZNSt3__26vectorIP11Il2CppClassNS_9allocatorIS2_EEE26__swap_out_circular_bufferERNS_14__split_bufferIS2_RS4_EE
GMi:_AnimatorControllerPlayable_CrossFadeInFixedTimeInternal_m1452579496
wNg:__Z134RuntimeInvoker_Int32_t2071877448_RuntimeObject_Int32_t2071877448_Int32_t2071877448_RuntimeObject_Int32_t2071877448_Int32U26_t455636984PFvvEPK10MethodInfoPvPS4_
Szh:_RectTransformUtility_PixelAdjustPoint_m560908615
mhg:_MethodCall__ctor_m4106494862
yJg:__Z167RuntimeInvoker_Void_t1841601450_SByte_t454417549_SByte_t454417549_SByte_t454417549_SByte_t454417549_SByte_t454417549_SByte_t454417549_SByte_t454417549_SByte_t454417549PFvvEPK10MethodInfoPvPS4_
V7g:_Module_IsResource_m663979284
Pnc:__Z37Register_UnityEngine_GUIStyle_Cleanupv
Na:invoke_iiifii
Mwh:_PlayableOutputHandle_CompareVersion_m3789892846
nrj:_StackTraceUtility_ExtractStringFromExceptionInternal_m2568950546
W2b:__ZN8GUILayer12AddToManagerEv
ybi:__ZL109TouchScreenKeyboard_t601950206_CustomAttributesCacheGenerator_TouchScreenKeyboard_Open_m3410222954____secure4P21CustomAttributesCache
R5c:__ZN6il2cpp6icalls8mscorlib6System8MonoType13IsPointerImplEP20Il2CppReflectionType
jre:_Convert_ToDecimal_m2284596541
ALi:_AnimatorControllerPlayable_GetLayerIndex_m747049736
Si:_emscripten_glFramebufferRenderbuffer
Q7h:__ZL64CipherSuiteCollection_t2431504453_CustomAttributesCacheGeneratorP21CustomAttributesCache
r1g:__Z105RuntimeInvoker_Int32_t2071877448_RuntimeObject_UILineInfo_t3621277874_Int32_t2071877448_Int32_t2071877448PFvvEPK10MethodInfoPvPS4_
K1f:_TlsServerCertificateRequest_ProcessAsSsl3_m3017921864
r$e:_Int64_GetHashCode_m4047499913
N8a:__ZN9Transform30EnsureTransformHierarchyExistsEv
kTg:__Z51RuntimeInvoker_Void_t1841601450_Vector2_t2243707579PFvvEPK10MethodInfoPvPS4_
WS:__ZN11AudioModule26SetDefaultMicrophoneDriverEPv
DDg:_UnitySerializationHolder_GetRealObject_m286267090
Lde:_Attribute_IsDefined_m216577166
Phe:_Char_ToUpper_m109978609
RF:__Z94Register_UnityEngine_Animations_AnimationLayerMixerPlayable_INTERNAL_CALL_CreateHandleInternalv
R7i:_InternalEnumerator_1_get_Current_m1089848479_gshared
yze:_Double_System_IConvertible_ToInt64_m3798425616
pYd:_StandaloneInputModule_get_repeatDelay_m3025279
vxf:_List_1_Find_m3680710386_gshared
P8b:__ZN13MonoBehaviour13StopCoroutineEPKc
Kbb:__ZNSt3__26vectorINS_4pairIN4core12basic_stringIcNS2_20StringStorageDefaultIcEEEEPK17MessageIdentifierEENS_9allocatorISA_EEE12__move_rangeEPSA_SE_SE_
NZa:__ZN14qsort_internal17MedianOfThreeSwapIP17RODataReplacement19ROSorterReplacementEEvT_S4_S4_T0_
cZg:__Z60RuntimeInvoker_FramePressState_t1414739712_Int32_t2071877448PFvvEPK10MethodInfoPvPS4_
dJi:_AnimationOffsetPlayable_Equals_m3411254421_AdjustorThunk
bFf:_Collection_1_System_Collections_IList_Insert_m3303840316_gshared
_Xc:__ZNK15dense_hashtableINSt3__24pairIK10KeyWrapperIPK22Il2CppGenericParameterEP11Il2CppClassEES6_N6il2cpp5utils11PointerHashIS4_EEN14dense_hash_mapIS6_S9_SE_NS6_14EqualsComparerINS0_8equal_toIS5_EEEENS0_9allocatorISA_EEE9SelectKeyESJ_SL_E3endEv
Lac:__ZN17TransformInternal36OnScaleChangedCalculateTransformTypeE15TransformAccess
WPa:__ZN15dense_hashtableINSt3__24pairIKN4core12basic_stringIcNS2_20StringStorageDefaultIcEEEEP20ArchiveStorageReaderEES6_20StringHash32FunctionIS6_EN14dense_hash_mapIS6_S9_SC_NS0_8equal_toIS6_EE13stl_allocatorISA_L18MemLabelIdentifier54ELi16EEE9SelectKeyESF_SI_E4swapERSL_
hke:_SynchronizedArrayListWrapper_InsertRange_m709359548
tSa:__ZN17ArchiveFileSystem10ToAbsoluteEPKc
uVf:_BigInteger_op_Modulus_m13450242
qqe:_DateTime__ctor_m3604679583
$re:_Convert_ToInt32_m2988544165
jPe:_Array_Resize_TisColor32_t874517518_m2219502085_gshared
zz:__ZN7mecanim6CRCKeyENS_7eStringE
l5f:_SslStreamBase_get_CanWrite_m2069502593
RYb:__ZL12SetPrefValueRKN4core12basic_stringIcNS_20StringStorageDefaultIcEEEERK9PrefValue
PSb:__ZL30ReconstructParamNamesFromTableIN9ShaderLab20SerializedSubProgram15MatrixParameterEEvRK14dense_hash_mapIiN4core17string_with_labelILi1EEE18SInt32HashFunctionNSt3__28equal_toIiEE13stl_allocatorINS8_4pairIKiS6_EEL18MemLabelIdentifier1ELi16EEERNS8_6vectorIT_NS8_9allocatorISL_EEEE
h0:__ZN19ShaderPropertySheet20ReservePropertyCountEj
fwd:__ZN6il2cpp5utils11StringUtils6PrintfEPKcz
hid:__ZNSt3__26vectorIN6il2cpp8metadata18GenericArrayMethodENS_9allocatorIS3_EEE7reserveEj
Goa:__ZN15NameToObjectMapI6ShaderNSt3__23mapI4PPtrIS0_EN4core12basic_stringIcNS5_20StringStorageDefaultIcEEEENS1_4lessIS4_EENS1_9allocatorINS1_4pairIKS4_S9_EEEEEENS1_8multimapIS9_S4_NSA_IS9_EENSC_INSD_IKS9_S4_EEEEEEE4FindERSK_
CCh:_ShimEnumerator_Reset_m98005789_gshared
DXc:__ZN6il2cpp6icalls8mscorlib6System7Decimal13decimal2Int64EP19il2cpp_decimal_reprPx
wuh:_Object_INTERNAL_CALL_Internal_InstantiateSingle_m3932420250
xXf:_PKCS1_Compare_m552424558
zrd:__ZN6il2cpp2vm6Object5CloneEP12Il2CppObject
uQf:_ReadOnlyCollection_1_System_Collections_IList_set_Item_m1377990618_gshared
tdh:_ILGenerator_make_room_m373147874
EDd:__ZN6il2cpp6icalls8mscorlib6System9Threading5Mutex20CreateMutex_internalEbP12Il2CppStringPb
T_j:_emscripten_glLinkProgram__wrapper
xwh:_PlayableHandle_SetDurationInternal_m3359857977
gfe:_Boolean_CompareTo_m3691698947_AdjustorThunk
gJe:_Array_InternalArray__IndexOf_TisKeyValuePair_2_t888819835_m2660446234_gshared
vhf:_PKCS1_Verify_v15_m2571212635
nmb:__ZNSt3__212__deque_baseI18ReflectionProbeJobNS_9allocatorIS1_EEED2Ev
Xy:__ZN11UnityEngine9Animation27DestroyAnimationSetBindingsEPNS0_20AnimationSetBindingsERN7mecanim6memory9AllocatorE
VSb:__ZN15dense_hashtableINSt3__24pairIKiN4core17string_with_labelILi1EEEEEi18SInt32HashFunctionN14dense_hash_mapIiS5_S7_NS0_8equal_toIiEE13stl_allocatorIS6_L18MemLabelIdentifier1ELi16EEE9SelectKeyESA_SD_E13set_empty_keyERKS6_
PD:__ZN8Animator12CleanupClassEv
iTd:_DecoderReplacementFallbackBuffer__ctor_m1305504326
vuc:__Z13TransferFieldI8JSONReadLb0E27Converter_SimpleNativeClassI10RectOffsetEEvRK23StaticTransferFieldInfoR31RuntimeSerializationCommandInfoRT1_
cRd:_String_IndexOf_m570401060
E6d:_Image_CalculateLayoutInputVertical_m1340533162
iAe:_Enum_System_IConvertible_ToDateTime_m2924690746
v2d:_Dropdown_CreateBlocker_m4109366440
pGd:_HashAlgorithm_System_IDisposable_Dispose_m2106335965
bpd:__GLOBAL__sub_I_GenericMetadata_cpp
T9e:_NotImplementedException__ctor_m1305569814
xxh:_RangeAttribute__ctor_m1657271662
pgi:__ZL147AnimationLayerMixerPlayable_t3057952312_CustomAttributesCacheGenerator_AnimationLayerMixerPlayable_INTERNAL_CALL_IsLayerAdditiveInternal_m364677421P21CustomAttributesCache
Aki:__ZL67GUISettings_t622856320_CustomAttributesCacheGenerator_m_CursorColorP21CustomAttributesCache
akc:__ZNK8GUIStyle4DrawER8GUIStateRK5RectTIfER10GUIContentib
c_a:__ZNK17InstancedPropInfo14IsInstanceableERK19ShaderPropertySheet
g5a:__Z24CalculateSpotLightBoundsffRK10Matrix4x4fR15SpotLightBounds
mbf:_TailoringInfo__ctor_m2248501932
Iia:__ZNK13RenderTexture21GetShadowSamplingModeEv
eV:__ZN23CloudWebServicesManager23VirtualRedirectTransferER14SafeBinaryRead
dJg:__Z150RuntimeInvoker_Int32_t2071877448_RuntimeObject_Int32_t2071877448_Int32_t2071877448_RuntimeObject_Int32_t2071877448_Int32_t2071877448_Int32_t2071877448PFvvEPK10MethodInfoPvPS4_
Fje:_FixedSizeArrayListWrapper_InsertRange_m2690348965
ACb:__Z19ShouldTransferFieldR32SerializationCommandQueueBuilder17ScriptingClassPtriR18TransferField_InfoRK20CoreScriptingClasses
Seh:_FieldInfo_get_IsStatic_m1411173225
V3e:_MemoryStream_Read_m2289595005
FN:__ZN5audio5mixer22UpdateAudioMixerMemoryERKNS0_18AudioMixerConstantERNS0_16AudioMixerMemoryEfPN4FMOD6SystemEf
Nwc:__ZL21InitializeCachedStripPv
bGd:_SignatureDescription_set_DigestAlgorithm_m3219799565
Sjd:__ZN6il2cpp6icalls8mscorlib6System9Threading6Thread23GetCachedCurrentCultureEP12Il2CppThread
Voi:__ZL94PlayerEditorConnectionEvents_t2252784345_CustomAttributesCacheGenerator_messageTypeSubscribersP21CustomAttributesCache
lDi:_Selectable_get_allSelectables_m3045831006
OZa:__ZNK6Camera22GetWorldToCameraMatrixEv
vde:_ArrayTypeMismatchException__ctor_m2892687300
Prd:__ZN6il2cpp2vm12GenericClass11IsValueTypeEP18Il2CppGenericClass
AIg:__Z49RuntimeInvoker_TypeCode_t2536926201_RuntimeObjectPFvvEPK10MethodInfoPvPS4_
PBb:__ZN13MonoBehaviour7SetNameEPKc
oYf:_ContentInfo__ctor_m3579805263
L_c:__ZN15dense_hashtableINSt3__24pairIK10KeyWrapperIPKcEP11Il2CppClassEES5_N6il2cpp5utils11StringUtils12StringHasherIS4_EEN14dense_hash_mapIS5_S8_SE_NS5_14EqualsComparerINSB_13VmStringUtils21CaseSensitiveComparerEEENS0_9allocatorIS9_EEE9SelectKeyESJ_SL_E15set_deleted_keyERKS9_
tCi:_ScrollRect_get_verticalNormalizedPosition_m1701804869
Tti:__ZL138U3CMouseDragOutsideRectU3Ec__Iterator1_t2599668326_CustomAttributesCacheGenerator_U3CMouseDragOutsideRectU3Ec__Iterator1__ctor_m1439320044P21CustomAttributesCache
yta:__ZN18AwakeFromLoadQueue5ClearEv
QEh:_Enumerator_get_Current_m2986380627_AdjustorThunk
V3a:__ZNSt3__27__sort5IR15ReflProbeSorterPP15ReflectionProbeEEjT0_S6_S6_S6_S6_T_
naa:__ZN8Playable10DisconnectEPS_i
g5i:_InternalEnumerator_1_get_Current_m1526874475_AdjustorThunk
uk:_glGenTransformFeedbacks
iya:__ZN13LoadOperationD2Ev
bgf:_KeyPairPersistence__ctor_m1817312194
oEe:_Array_InternalArray__ICollection_Contains_TisMark_t2724874473_m1640201705_gshared
XZi:_ActivatedClientTypeEntry_get_ContextAttributes_m53051138
Kra:__Z21PlayerStartFirstSceneb
ibh:_TypeBuilder_get_AssemblyQualifiedName_m2097258567
uoa:__ZNSt3__27__sort5IRPFbRKNS_4pairIN9ShaderLab16FastPropertyNameEN18UnityPropertySheet11UnityTexEnvEEES8_EPS6_EEjT0_SD_SD_SD_SD_T_
zMi:_AnimatorControllerPlayable_GetParameterCount_m1050153685_AdjustorThunk
CFa:__ZNK7ApiGLES18GetExtensionStringEv
kMa:__ZN31TransformFeedbackSkinPoseBufferD0Ev
NWj:_emscripten_glVertexAttrib1f__wrapper
kAi:_RaycastAllCallback__ctor_m3281594834
CRa:__ZNK12HandlerChain4SizeERK13FileEntryData
fLh:_DefaultComparer_Equals_m1281232537_gshared
KSh:__ZL99RuntimeFieldHandle_t2331729674_CustomAttributesCacheGenerator_RuntimeFieldHandle_Equals_m1202966418P21CustomAttributesCache
gp:FUNCTION_TABLE_iiiiiiiii
b8d:_InputField_set_asteriskChar_m619206227
lqg:_DES_IsSemiWeakKey_m3967392585
nUf:_Comparison_1__ctor_m2159122699_gshared
eZe:_Int16_System_IConvertible_ToUInt32_m883204517_AdjustorThunk
ytj:_Transform_get_localRotation_m4001487205
tih:_MonoProperty_get_PropertyType_m1921201152
P0d:_FloatTween_TweenValue_m3881535116_AdjustorThunk
Nyd:_GC_allochblk
Dta:__Z15UnloadGameScenev
s$j:_glCheckFramebufferStatus__wrapper
LNg:__Z43RuntimeInvoker_Boolean_t3825574718_IntPtr_tPFvvEPK10MethodInfoPvPS4_
moi:__ZL59WriteOnlyAttribute_t14323075_CustomAttributesCacheGeneratorP21CustomAttributesCache
zbd:__ZN15dense_hashtableINSt3__24pairIK10KeyWrapperIPK10Il2CppTypeEjEES6_N6il2cpp8metadata14Il2CppTypeHashEN14dense_hash_mapIS6_jSB_NS6_14EqualsComparerINSA_26Il2CppTypeEqualityComparerEEENS0_9allocatorIS8_EEE9SelectKeyESF_SH_E3endEv
BD:__ZN16MecanimAnimationD0Ev
zUf:_BigInteger_get_Rng_m2525288368
dnh:_GUIStyleState_GetBackgroundInternal_m439046630
Vdg:_X509ExtensionEnumerator_Reset_m3200687545
Uke:_CaseInsensitiveHashCodeProvider__ctor_m3775398833
Xej:_Comparer_1_System_Collections_IComparer_Compare_m674728644_gshared
Cbi:__ZL80Input_t1785128008_CustomAttributesCacheGenerator_Input_GetButtonDown_m2792523731P21CustomAttributesCache
lec:__Z36Renderer_Get_Custom_PropSortingOrderP12Il2CppObject
Ebd:__ZNK15dense_hashtableINSt3__24pairIK10KeyWrapperIPK10Il2CppTypeEjEES6_N6il2cpp8metadata14Il2CppTypeHashEN14dense_hash_mapIS6_jSB_NS6_14EqualsComparerINSA_26Il2CppTypeEqualityComparerEEENS0_9allocatorIS8_EEE9SelectKeyESF_SH_E13find_positionERS7_
xia:__ZN7Texture5ResetEv
zJb:__Z18Transfer_BlittableI24GenerateTypeTreeTransferLb0E8Vector2fEvRK29SerializationCommandArgumentsR31RuntimeSerializationCommandInfo
eji:__ZL82Canvas_t209405766_CustomAttributesCacheGenerator_Canvas_get_renderMode_m1816014618P21CustomAttributesCache
qJb:__Z18Transfer_BlittableI24GenerateTypeTreeTransferLb1EhEvRK29SerializationCommandArgumentsR31RuntimeSerializationCommandInfo
wwb:__ZN10VertexData10DeallocateEv
g9c:__ZNSt3__214__split_bufferIiRNS_9allocatorIiEEEC2EjjS3_
cac:__ZNK16TypeTreeIterator10ByteOffsetEv
G3d:_Graphic_get_rectTransform_m2697395074
n9:__ZnwjRKSt9nothrow_t
oC:__ZN8Animator11ClearObjectEv
bBb:__ZNSt3__26vectorIi13stl_allocatorIiL18MemLabelIdentifier12ELi16EEE8__appendEj
mUg:__Z55RuntimeInvoker_Boolean_t3825574718_Playable_t1896841784PFvvEPK10MethodInfoPvPS4_
Yag:_X500DistinguishedName_Decode_m3070515374
Nma:__ZN14SafeBinaryRead19TransferSTLStyleMapINSt3__23mapI39DeprecatedFastPropertyNameSerializationN18UnityPropertySheet11UnityTexEnvENS1_4lessIS3_EENS1_9allocatorINS1_4pairIKS3_S5_EEEEEEEEvRT_17TransferMetaFlags
ggc:__Z45Register_UnityEngine_MonoBehaviour_IsInvokingv
H8f:_IPv6Address_set_ScopeId_m1442934355
xTh:__ZL72PKCS12_t1362584794_CustomAttributesCacheGenerator_U3CU3Ef__switchU24mapBP21CustomAttributesCache
gng:_ObjectManager_RaiseOnDeserializedEvent_m512850179
mji:__ZL83Canvas_t209405766_CustomAttributesCacheGenerator_Canvas_get_renderOrder_m2874842494P21CustomAttributesCache
Ggc:__Z81Register_UnityEngine_Playables_PlayableHandle_INTERNAL_CALL_SetInputCountInternalv
Woi:__ZL87PlayerEditorConnectionEvents_t2252784345_CustomAttributesCacheGenerator_connectionEventP21CustomAttributesCache
p9h:__ZL86Camera_t189460977_CustomAttributesCacheGenerator_Camera_get_allCamerasCount_m989474043P21CustomAttributesCache
Z8b:__Z35UnregisterSerializationCacheBuilderPFv17ScriptingClassPtrR23CachedSerializationDataRbE
lla:__Z30GetBuiltinVectorParamArraySize24BuiltinShaderVectorParam
Lad:__ZNSt3__218uninitialized_copyIPNS_4pairIK10KeyWrapperINS1_IPK14Il2CppAssemblyP11Il2CppClassEEEjEESC_EET0_T_SE_SD_
Zaf:_CodePointIndexer__ctor_m797342079
tti:__ZL64InputField_t1631627530_CustomAttributesCacheGenerator_m_LineTypeP21CustomAttributesCache
B$h:__ZL61KeyedHashAlgorithm_t1374150027_CustomAttributesCacheGeneratorP21CustomAttributesCache
Mtf:_List_1_Shift_m457025866_gshared
Xqi:__ZL103PointerEventData_t1599784723_CustomAttributesCacheGenerator_PointerEventData_set_clickCount_m2095939005P21CustomAttributesCache
R6a:__ZN21RendererUpdateManager11AddRendererER8Renderer
j_b:__Z13RegisterClassI15ResourceManagerEvv
yng:_SerializationEntry_t3485203212_marshal_pinvoke_back
TWg:__Z78RuntimeInvoker_Void_t1841601450_RuntimeObject_RuntimeObject_RectU26_t844847526PFvvEPK10MethodInfoPvPS4_
UEb:__Z35Transfer_Blittable_FixedBufferFieldI14SafeBinaryReadsEvRK29SerializationCommandArgumentsR31RuntimeSerializationCommandInfo
Avb:__ZN14SafeBinaryRead21TransferSTLStyleArrayI13dynamic_arrayIfLj4EEEEvRT_17TransferMetaFlags
a2h:__ZL79Thread_t241561612_CustomAttributesCacheGenerator_Thread_GetHashCode_m2038641494P21CustomAttributesCache
gwd:__ZN6il2cpp5utils11StringUtils11Utf16ToUtf8EPKDs
BSc:__ZN11UnityEngine15PlatformWrapper20IsRootedOrJailbrokenEv
AUa:__ZZ23InitPlayerLoopCallbacksvEN52PreLateUpdateScriptRunBehaviourLateUpdateRegistrator7ForwardEv
ybg:_X509Certificate2_GetNameInfo_m402390219
b5a:__Z33IntersectAABBPlaneBoundsOptimizedRK4AABBPKN4math7_float4Ei
sde:_Swapper_BeginInvoke_m2652511022
Xyh:_RectOffset_t3387826427_marshal_pinvoke_back
m4g:__Z54RuntimeInvoker_UriScheme_t1876590943_Int32_t2071877448PFvvEPK10MethodInfoPvPS4_
h9a:__ZN19ScriptingInvocation6InvokeI28ScriptingSystemTypeObjectPtrEET_P21ScriptingExceptionPtrb
sBa:__ZN9GfxDevice19EndGeometryJobFrameEv
kJb:__ZN27Converter_SimpleNativeClassI17AnimationCurveTplIfEE17ScriptingToNativeER18ScriptingObjectPtrPS1_
wEd:__ZN6il2cpp8metadata24Il2CppGenericInstCompare7CompareERK10KeyWrapperIPK17Il2CppGenericInstES8_
q$g:__Z36RuntimeInvoker_Enumerator_t132208513PFvvEPK10MethodInfoPvPS4_
t$c:__ZNK15dense_hashtableINSt3__24pairIK10KeyWrapperIPK19Il2CppGenericMethodEPK26Il2CppGenericMethodIndicesEES6_N6il2cpp8metadata23Il2CppGenericMethodHashEN14dense_hash_mapIS6_SA_SE_NS6_14EqualsComparerINSD_26Il2CppGenericMethodCompareEEENS0_9allocatorISB_EEE9SelectKeyESI_SK_E5beginEv
X3d:_Graphic_get_materialForRendering_m2600868951
Xs:__ZN27AnimationLayerMixerPlayable21UpdateLayerParametersEv
b1f:_TlsClientSettings_get_ClientCertificate_m89435195
__h:__ZL61AsymmetricAlgorithm_t784058677_CustomAttributesCacheGeneratorP21CustomAttributesCache
xdh:__ZN21InterfaceFuncInvoker1IiP12MemberInfo_tE6InvokeEjP11Il2CppClassP12Il2CppObjectS1_
hHf:_Collection_1_System_Collections_IList_Contains_m3210868188_gshared
ojj:_AnchorInfo_get_IgnoreCase_m2406760852
J$b:__ZNK17AnimationCurveTplIfE8EvaluateEfPNS0_5CacheE
ETa:__Z31ManagerContextInitializeClassesv
g5c:__ZNSt3__213__vector_baseIP9FieldInfoNS_9allocatorIS2_EEED2Ev
XUe:_NumberFormatter_AppendIntegerString_m868842252
HBc:_ft_smooth_transform
oUh:__ZL53SortedList_t3004938869_CustomAttributesCacheGeneratorP21CustomAttributesCache
vzc:_UNITY_FT_List_Finalize
fEd:__ZN6il2cpp6icalls8mscorlib6System7Runtime8Remoting10Activation18ActivationServices34AllocateUninitializedClassInstanceEP20Il2CppReflectionType
R_a:__Z20LightAttenuateApproxRKfS0_
R3:__ZN9Scripting30SetCachedPtrOnScriptingWrapperE18ScriptingObjectPtrP6Object
mMb:__Z18Transfer_BlittableI19StreamedBinaryWriteILb0EELb0EdEvRK29SerializationCommandArgumentsR31RuntimeSerializationCommandInfo
lgb:__ZN17LowLevelAllocator6MallocEj
ASd:_ASCIIEncoding_GetBytes_m3649277167
Xkh:_GUILayoutUtility_Internal_GetWindowRect_m1287880151
AJi:_AnimationPlayableOutput_get_Null_m577023
_Ih:_Dictionary_2__ctor_m2457723796_gshared
m0i:_Context_GetProperty_m1664740450
Xwa:__ZN18BlockRangeInternal16PopLastNodeIndexEP10BlockRangeji
Mcd:__ZN6il2cpp2gc19AppendOnlyGCHashMapINSt3__24pairIPK11Il2CppImageP11Il2CppClassEEP22Il2CppReflectionModule17ReflectionMapHashIS9_ENS2_8equal_toIS9_EEE10CopyValuesEPv
Enf:_Enumerator_System_Collections_IEnumerator_Reset_m886102771_AdjustorThunk
qef:_Kernel_MultiplyByDword_m155008287
Qub:__ZN4MeshD0Ev
AMg:__Z121RuntimeInvoker_Void_t1841601450_Int64_t909078037_RuntimeObject_RuntimeObject_Int64_t909078037_RuntimeObject_RuntimeObjectPFvvEPK10MethodInfoPvPS4_
fXc:__ZL42RequestRecreateEyeTexturesBeforeNextUpdatev
VFh:_ValueCollection_System_Collections_Generic_ICollectionU3CTValueU3E_get_IsReadOnly_m3005456072_gshared
OPf:_ReadOnlyCollection_1_System_Collections_ICollection_get_SyncRoot_m1577944046_gshared
Bka:__ZNK6Camera20IsCurrentlyRenderingEv
Hu:__ZN21AnimationClipPlayable23ProcessRootMotionNoClipEPK35AnimationPlayableEvaluationConstantPK32AnimationPlayableEvaluationInputP33AnimationPlayableEvaluationOutput
KPc:__Z36CanvasRenderer_CUSTOM_SetPopMaterialP12Il2CppObjectS0_i
S$h:__ZL58RijndaelManaged_t1034060848_CustomAttributesCacheGeneratorP21CustomAttributesCache
jrc:__Z18Transfer_BlittableI9JSONWriteLb0EdEvRK29SerializationCommandArgumentsR31RuntimeSerializationCommandInfo
Wjb:__ZN6Camera8TransferI19StreamedBinaryWriteILb0EEEEvRT_
Z4e:_TextReader__ctor_m3276128267
vrf:_List_1_System_Collections_Generic_ICollectionU3CTU3E_get_IsReadOnly_m3598018290_gshared
aOf:_ReadOnlyCollection_1_System_Collections_IList_Insert_m3679749778_gshared
zGi:_Toggle_OnDidApplyAnimationProperties_m325835214
PMj:_wctomb
DUg:__Z55RuntimeInvoker_Void_t1841601450_Matrix4x4U26_t266301477PFvvEPK10MethodInfoPvPS4_
ecc:__Z27Camera_CUSTOM_GetAllCamerasP11Il2CppArray
QBb:__ZNK13MonoBehaviour25GetNeedsPerObjectTypeTreeEv
APb:__Z35Transfer_Blittable_FixedBufferFieldI18StreamedBinaryReadILb0EEiEvRK29SerializationCommandArgumentsR31RuntimeSerializationCommandInfo
Woe:_Convert_InternalFromBase64String_m3682756716
cd:___cxa_rethrow
Jsc:__Z18Transfer_BlittableI8JSONReadLb1EhEvRK29SerializationCommandArgumentsR31RuntimeSerializationCommandInfo
SMi:_AnimatorControllerPlayable_CrossFadeInFixedTimeInternal_m3383124488
TWj:_glBindRenderbuffer__wrapper
oki:__ZL86GUI_t4082743951_CustomAttributesCacheGenerator_U3CnextScrollStepTimeU3Ek__BackingFieldP21CustomAttributesCache
s8b:__ZN10systeminfo23SupportsLocationServiceEv
ZWg:__Z48RuntimeInvoker_Void_t1841601450_Rect_t3681755626PFvvEPK10MethodInfoPvPS4_
Mij:_Regex_System_Runtime_Serialization_ISerializable_GetObjectData_m4035555909
Oxg:_TimeSpan_Add_m3228293154
iLh:_DefaultComparer_Equals_m4098991076_gshared
H8a:__ZN13MonoBehaviour8SetClassE17ScriptingClassPtr18ScriptingObjectPtr
VXf:_RC4__cctor_m523650203
U0i:_CrossContextDelegate_Invoke_m2908136830
nBj:_Locale_GetText_m3480617287
tlf:_ApplicationIdentity_ToString_m800036884
Dsa:__ZN19ScriptingInvocation28AdjustArgumentsToMatchMethodEv
s2a:__ZNSt3__211__sift_downIRN23ForwardShaderRenderLoop18RenderObjectSorterILb0EEEP21ForwardRenderPassDataEEvT0_S7_T_NS_15iterator_traitsIS7_E15difference_typeES7_
Y6e:_UnmanagedMemoryStream_get_Position_m4093669769
IZh:__ZL83MethodDictionary_t1742974787_CustomAttributesCacheGenerator_U3CU3Ef__switchU24map21P21CustomAttributesCache
WLg:__Z90RuntimeInvoker_Void_t1841601450_IntPtr_t_RuntimeObject_Int32_t2071877448_Int32_t2071877448PFvvEPK10MethodInfoPvPS4_
N5c:__ZNSt3__214__split_bufferIN6il2cpp6icalls8mscorlib6System12PropertyPairERNS_9allocatorIS5_EEEC2EjjS8_
fVf:_Kernel_Multiply_m1938858919
cbh:_DerivedType_IsDefined_m555719351
cgj:_Mark_get_IsDefined_m3332701456
Afb:__ZNK12TLSAllocatorI14StackAllocatorE8ContainsEPKv
zyb:__ZN11TimeManager8TransferI18StreamedBinaryReadILb0EEEEvRT_
uXb:__ZN15SerializeTraitsINSt3__23mapI4PPtrI6ShaderEN4core12basic_stringIcNS5_20StringStorageDefaultIcEEEENS0_4lessIS4_EENS0_9allocatorINS0_4pairIKS4_S9_EEEEEEE8TransferI24GenerateTypeTreeTransferEEvRSH_RT_
whf:_EncryptedPrivateKeyInfo__ctor_m3964541963
wqg:_DESTransform__cctor_m1179482644
_Mh:_EqualityComparer_1_System_Collections_IEqualityComparer_GetHashCode_m1465362976_gshared
suh:_Object_t1021602117_marshal_pinvoke_cleanup
cvb:__ZN14BlendShapeData8TransferI14SafeBinaryReadEEvRT_
qsj:_TextGenerator_PopulateWithErrors_m467881283
k6i:_InternalEnumerator_1_MoveNext_m3476348493_gshared
tAe:_Enum_Format_m2294492821
X2h:__ZL81Convert_t2607082565_CustomAttributesCacheGenerator_Convert_ToDateTime_m3810846875P21CustomAttributesCache
kob:__ZN7Texture25ReloadFromStorageIfNeededEPvb
lqc:__Z35Transfer_Blittable_FixedBufferFieldI9JSONWritehEvRK29SerializationCommandArgumentsR31RuntimeSerializationCommandInfo
d7g:_OverflowException__ctor_m2564269836
NIj:__ZL25UnresolvedVirtualCall_202P12Il2CppObject23SpriteState_t1353336012PK10MethodInfo
MCh:_ShimEnumerator_get_Entry_m2332479818_gshared
GUd:_BaseRaycaster_get_priority_m247683215
ove:_DateTime_CheckDateTimeKind_m329345155_AdjustorThunk
aKc:_Update_Max
Fjd:__ZN6il2cpp6icalls8mscorlib6SystemL15ThrowNoWideningEv
S$b:__ZNK23TransformChangeDispatch24GetChangeMaskForInterestENS_12InterestTypeE
Ric:__Z45Transform_CUSTOM_INTERNAL_CALL_TransformPointP12Il2CppObjectRK8Vector3fRS1_
RGf:__ZN23InterfaceActionInvoker2Ii18Color32_t874517518E6InvokeEjP11Il2CppClassP12Il2CppObjectiS0_
dfb:__ZL10KeyHandleriPK23EmscriptenKeyboardEventPv
kna:__ZNSt3__26__treeINS_12__value_typeI39DeprecatedFastPropertyNameSerializationfEENS_19__map_value_compareIS2_S3_NS_4lessIS2_EELb1EEENS_9allocatorIS3_EEE7destroyEPNS_11__tree_nodeIS3_PvEE
Fgc:__Z81Register_UnityEngine_Playables_PlayableHandle_INTERNAL_CALL_GetInputCountInternalv
yDc:_tt_cmap4_char_index
ePi:_AsyncOperation_get_allowSceneActivation_m2825451182
nyg:_TimeSpan_op_Addition_m3421801803
MRa:__ZNK12HandlerChain8IsHiddenERK13FileEntryData
Nsi:__ZL50Graphic_t2426225576_CustomAttributesCacheGeneratorP21CustomAttributesCache
AIb:__ZL26Transfer_SimpleNativeClassI17RemapPPtrTransfer10RectOffsetLb0EEvRK29SerializationCommandArgumentsR31RuntimeSerializationCommandInfo
Yzc:__Z14ValidateFormatR13dynamic_arrayIN20TextRenderingPrivate16TextFormatChangeELj4EE
c5g:__Z114RuntimeInvoker_Int32_t2071877448_CustomAttributeTypedArgument_t1498197914_CustomAttributeTypedArgument_t1498197914PFvvEPK10MethodInfoPvPS4_
hsf:_List_1__ctor_m2672294496_gshared
Xuj:_Vector2_op_Implicit_m1064335535
aua:__Z31GetLightProbeProxyVolumeManagerv
que:_DateTime_System_IConvertible_ToInt32_m2789391054_AdjustorThunk
qTg:__Z73RuntimeInvoker_Single_t2076509932_Vector3_t2243707580_Vector3_t2243707580PFvvEPK10MethodInfoPvPS4_
_ef:_ASN1Convert_FromInt32_m1541043489
JXd:_PointerInputModule_ProcessMove_m3200120346
Dpe:_Convert_ToByte_m1008221737
WWf:_MD2Managed_MD2Transform_m3825201358
WHf:_Collection_1_System_Collections_IList_IndexOf_m3976312928_gshared
tui:__ZL69Scrollbar_t3248359358_CustomAttributesCacheGenerator_m_OnValueChangedP21CustomAttributesCache
Mlf:_KeyValuePair_2__ctor_m3201181706_gshared
_Tb:__ZNSt3__26vectorIN9ShaderLab20SerializedSubProgram13BufferBindingENS_9allocatorIS3_EEEC2ERKS6_
Zig:_SoapFieldAttribute_get_XmlElementName_m4100905008
srj:_StateMachineBehaviour_OnStateUpdate_m2021794605
_1d:_Dropdown_AddOptions_m835420907
BJj:_Display_Start_m3446268861
yqi:__ZL107PointerEventData_t1599784723_CustomAttributesCacheGenerator_PointerEventData_get_rawPointerPress_m448871540P21CustomAttributesCache
nla:__ZNK9ShaderLab20ShaderBlendStateDesc15ToGfxBlendStateEPK19ShaderPropertySheetS3_R13GfxBlendState
fUh:__ZL92Hashtable_t909839986_CustomAttributesCacheGenerator_Hashtable_t909839986____hcp_PropertyInfoP21CustomAttributesCache
k$d:_CanvasUpdateRegistry_IsRebuildingLayout_m1677873278
Ay:__ZN11UnityEngine9AnimationL22GenericBindingCallbackEPvS1_i
KJc:_Compute_Point_Displacement
eXb:__ZN9ShaderLab9IntShaderC2Ev
Y5c:__ZN6il2cpp6icalls8mscorlib6SystemL9IsPrivateEPK9EventInfo
UCd:__ZN6il2cpp6icalls8mscorlib6System10Reflection4Emit11TypeBuilder20setup_internal_classEP27Il2CppReflectionTypeBuilderS7_
f6i:_InternalEnumerator_1_System_Collections_IEnumerator_Reset_m3237341717_AdjustorThunk
oIj:__ZL25UnresolvedVirtualCall_177P12Il2CppObject23RaycastResult_t21186376S1_PK10MethodInfo
gmh:_RectOffset_set_left_m620681523
u3i:_ArrayReadOnlyList_1_IndexOf_m1809425308_gshared
iU:__Z58AudioPlayableOutput_CUSTOM_INTERNAL_CALL_InternalSetTargetR15HPlayableOutputP12Il2CppObject
K7c:_il2cpp_gc_disable
yG:__Z69AnimatorControllerPlayable_CUSTOM_INTERNAL_CALL_GetLayerIndexInternalR9HPlayableP12Il2CppString
sWd:_ExecuteEvents_U3Cs_HandlerListPoolU3Em__0_m2903690915
Jme:_Hashtable_Clone_m165405752
rah:_TypeBuilder_get_Name_m170882803
MWh:__ZL61CallingConventions_t1097349142_CustomAttributesCacheGeneratorP21CustomAttributesCache
KXc:__ZN13Il2CppHashMapIPK22Il2CppGenericParameterP11Il2CppClassN6il2cpp5utils11PointerHashIS1_EENSt3__28equal_toIS2_EENS9_9allocatorINS9_4pairIK10KeyWrapperIS2_ES4_EEEEEC2EjRKS8_RKSB_
WRc:__ZN11UnityEngine15PlatformWrapper19GetPhysicalMemoryMBEv
Gri:__ZL144U3CStartU3Ec__Iterator0_t3220237554_CustomAttributesCacheGenerator_U3CStartU3Ec__Iterator0_System_Collections_IEnumerator_get_Current_m290565900P21CustomAttributesCache
ifa:__Z15CreateDirectoryRKN4core12basic_stringIcNS_20StringStorageDefaultIcEEEE
Hua:__Z21CalculateGlobalMatrix23TransformAccessReadOnly
$Sh:__ZL70InternalsVisibleToAttribute_t1037732567_CustomAttributesCacheGeneratorP21CustomAttributesCache
Eyb:__ZNK13BuildSettings22GetTypeVirtualInternalEv
C1e:_MonoIO_GetCurrentDirectory_m1509324201
MKd:_SHA384Managed_adjustByteCounts_m410900820
_tg:_UTF32Encoding_GetHashCode_m4205784236
eNb:__Z35Transfer_Blittable_FixedBufferFieldI18StreamedBinaryReadILb1EEhEvRK29SerializationCommandArgumentsR31RuntimeSerializationCommandInfo
sqe:_DateTime_ToUniversalTime_m1815024752
Qri:__ZL73U3COnFinishSubmitU3Ec__Iterator0_t99135383_CustomAttributesCacheGeneratorP21CustomAttributesCache
h_b:__Z13RegisterClassI14RenderSettingsEvv
Yrj:_TextGenerator_Finalize_m4242493229
S5g:__Z80RuntimeInvoker_Boolean_t3825574718_Navigation_t1571958496_Navigation_t1571958496PFvvEPK10MethodInfoPvPS4_
uDf:_Collection_1_ConvertItem_m3563206219_gshared
kyg:_TimeSpan_Subtract_m3597791685_AdjustorThunk
Ngh:_MonoCMethod_get_Name_m764669486
Uw:__ZN7mecanim12statemachine24CreateStateMachineOutputEPKNS0_20StateMachineConstantEjRNS_6memory9AllocatorE
Krh:_Logger__ctor_m3834134587
W6c:_il2cpp_assembly_get_image
RBa:__ZNK9GfxDevice27GetActiveRenderSurfaceWidthEv
TMg:__Z45RuntimeInvoker_SerializationEntry_t3485203212PFvvEPK10MethodInfoPvPS4_
mSc:__ZN11UnityEngine15PlatformWrapper28GetCleanGraphicsFixedVersionEv
nJg:__Z133RuntimeInvoker_Int32_t2071877448_RuntimeObject_RuntimeObject_Int32_t2071877448_Int32_t2071877448_RuntimeObject_ContextU26_t3131521781PFvvEPK10MethodInfoPvPS4_
ceb:__ZN16MemoryFileSystem5WriteER13FileEntryDatayyPvPy
w:tempBigIntP
O9c:__ZN6il2cpp2vm4Type7GetTypeEPK10Il2CppType
Vfg:_Interval_t2354235237_marshal_pinvoke_cleanup
Iyh:_Rect_Contains_m1334685291_AdjustorThunk
xde:_AssemblyLoadEventHandler_Invoke_m108373765
XBe:_CCGregorianCalendar_dmy_from_fixed_m2992247462
pcd:__ZN15dense_hashtableINSt3__24pairIK10KeyWrapperINS1_IPK10MethodInfoP11Il2CppClassEEEjEES9_17ReflectionMapHashIS8_EN14dense_hash_mapIS9_jSD_NS9_14EqualsComparerINS0_8equal_toIS8_EEEENS0_9allocatorISB_EEE9SelectKeyESI_SK_E8min_sizeEjj
isi:__ZL61Dropdown_t1985816271_CustomAttributesCacheGenerator_m_OptionsP21CustomAttributesCache
vGj:__ZL24UnresolvedVirtualCall_76P12Il2CppObjectPK10MethodInfo
Fqa:__ZN6prcoreL17RemapGenericFloatI18TexFormatRGBAFloat17TexFormatRGBAHalfEEvPKNS_9InnerInfoE
Qfi:__ZL131AudioMixerPlayable_t1831808911_CustomAttributesCacheGenerator_AudioMixerPlayable_INTERNAL_CALL_SetAutoNormalizeInternal_m2425179629P21CustomAttributesCache
yVa:__Z16FindCameraStacksRKNSt3__24listI4PPtrI6CameraENS_9allocatorIS3_EEEERNS_6vectorI11CameraStackNS4_ISA_EEEE
Bwj:_WebRequestUtils__cctor_m893658947
bqb:__ZN10GISettings8TransferI14SafeBinaryReadEEvRT_
xn:FUNCTION_TABLE_vifff
FQf:_ReadOnlyCollection_1_System_Collections_Generic_ICollectionU3CTU3E_Remove_m2957273994_gshared
Qab:__ZN19CustomRenderTexture12ClearGPUDataEv
AUd:_BaseInputModule_ShouldActivateModule_m2899747874
$4g:__Z86RuntimeInvoker_Int32_t2071877448_DateTimeOffset_t1362988906_DateTimeOffset_t1362988906PFvvEPK10MethodInfoPvPS4_
Hia:__ZN13RenderTexture13ApplySettingsEv
y1h:__ZL92UTF8Encoding_t111055448_CustomAttributesCacheGenerator_UTF8Encoding_GetByteCount_m2547312609P21CustomAttributesCache
hUj:_glVertexAttrib4f__wrapper
$e:_JS_Sound_SetListenerPosition
pn:FUNCTION_TABLE_fiffi
KH:__Z86Register_UnityEngine_Animations_AnimatorControllerPlayable_INTERNAL_CALL_SetBoolStringv
teh:_ModuleBuilderTokenGenerator_GetToken_m3427457873
ADi:_Selectable_get_isPointerInside_m3162215687
FIe:_Array_FindIndex_TisRuntimeObject_m4149904176_gshared
vqf:_List_1_System_Collections_IList_Contains_m149594880_gshared
_nd:__ZNK15dense_hashtableINSt3__24pairIK10KeyWrapperINS1_IPKcS4_EEEiEES6_24NamespaceAndNamePairHashN14dense_hash_mapIS6_iS9_NS6_14EqualsComparerI26NamespaceAndNamePairEqualsEENS0_9allocatorIS8_EEE9SelectKeyESD_SF_E10test_emptyERK24dense_hashtable_iteratorIS8_S6_S9_SH_SD_SF_E
D3h:__ZL78Convert_t2607082565_CustomAttributesCacheGenerator_Convert_ToSByte_m2585959569P21CustomAttributesCache
m3g:__Z77RuntimeInvoker_Void_t1841601450_Int32_t2071877448_PlayableBinding_t2498078091PFvvEPK10MethodInfoPvPS4_
pDg:_UnauthorizedAccessException__ctor_m3480402128
nef:_BigInteger_op_Modulus_m3788401748
zOa:__ZN9GfxDevice20SetRenderSurfaceNameEP17RenderSurfaceBasePKc
u1i:_ArgInfo_GetInOutArgs_m3184132151
Lsa:__ZNK8Material16MarkDependenciesER27GarbageCollectorThreadState
Y1h:__ZL85Thread_t241561612_CustomAttributesCacheGenerator_Thread_get_CurrentThread_m3667342817P21CustomAttributesCache
mrc:__ZL17Transfer_GUIStyleI9JSONWriteLb0EEvRK29SerializationCommandArgumentsR31RuntimeSerializationCommandInfo
j7g:_Random__ctor_m1561335652
eZa:__Z28GetHaloVertexPositionsStereoP8Vector3fRKS_S2_f
ura:__ZN6prcoreL27StretchGenericFloatBilinearI15TexFormatRGHalfEEvPKNS_9InnerInfoE
boi:__ZL85UnityEvent_1_t4075366602_CustomAttributesCacheGenerator_UnityEvent_1__ctor_m152711818P21CustomAttributesCache
Whi:__ZL137AnimatorControllerPlayable_t1744083903_CustomAttributesCacheGenerator_AnimatorControllerPlayable_INTERNAL_CALL_SetFloatString_m1681161548P21CustomAttributesCache
onf:_Enumerator_MoveNext_m598197344_AdjustorThunk
JVi:_DisplaysUpdatedDelegate_Invoke_m3646339243
Krj:_TextGenerationSettings_t2543476768_marshal_pinvoke_back
G5g:__Z36RuntimeInvoker_Enumerator_t442692252PFvvEPK10MethodInfoPvPS4_
TRd:_String_JoinUnchecked_m1880555587
Ela:__ZNK9ShaderLab7Program21GetMatchingSubProgramEPK6ShaderPKNS_4PassERK16ShaderKeywordSetjPS7_R19ShaderSnippetResult
CMe:_Array_InternalArray__Insert_TisKeyValuePair_2_t1174980068_m2464431954_gshared
N8h:__ZL109AsyncOperation_t3814632279_CustomAttributesCacheGenerator_AsyncOperation_set_allowSceneActivation_m3988498951P21CustomAttributesCache
rhc:__Z49Register_UnityEngine_Resources_GetBuiltinResourcev
Fjj:_BalancingGroup_set_Balance_m3452171919
KDc:_tt_cmap10_char_index
W1d:_Dropdown_Awake_m335654827
f9:__Z18GetITerrainManagerv
OJh:_Dictionary_2_U3CCopyToU3Em__0_m1479035402_gshared
Bke:_BitArray_set_Item_m3801461194
xYd:_StandaloneInputModule_get_cancelButton_m1563746440
nYc:__ZN15dense_hashtableINSt3__24pairIK10KeyWrapperIPK22Il2CppGenericParameterEP11Il2CppClassEES6_N6il2cpp5utils11PointerHashIS4_EEN14dense_hash_mapIS6_S9_SE_NS6_14EqualsComparerINS0_8equal_toIS5_EEEENS0_9allocatorISA_EEE9SelectKeyESJ_SL_E3endEv
wRd:_String_Remove_m3580114465
MAc:_UNITY_FT_Destroy_Class_cff_field_handlers
KVb:__ZN9ShaderLab22SerializedBindChannels8TransferI19StreamedBinaryWriteILb0EEEEvRT_
X4i:_InternalEnumerator_1_MoveNext_m1791963761_AdjustorThunk
zPg:__Z82RuntimeInvoker_Int32_t2071877448_RuntimeObject_Int32_t2071877448_Int16_t4041245914PFvvEPK10MethodInfoPvPS4_
Klc:__ZN5IMGUI20MoveWindowFromLayoutER8GUIStateiRK5RectTIfE
e_i:_UrlAttribute_get_UrlValue_m3448699483
Jai:__ZL83GameObject_t1756533147_CustomAttributesCacheGenerator_GameObject_set_tag_m717375123P21CustomAttributesCache
vmh:_Mathf_Max_m1875893177
SCg:_UIntPtr__ctor_m2737768530
Bzc:_UNITY_FT_Stream_ReadUShort
rRi:_Bounds_get_center_m129401026_AdjustorThunk
o8d:_InputField_OnEnable_m3797157569
Adc:__Z51Register_UnityEngine_GUILayer_INTERNAL_CALL_HitTestv
Vjc:__Z50Register_UnityEngine_Object_FindSceneObjectsOfTypev
Mma:__ZNSt3__26__treeINS_12__value_typeIN4core12basic_stringIcNS2_20StringStorageDefaultIcEEEES6_EENS_19__map_value_compareIS6_S7_NS_4lessIS6_EELb1EEE13stl_allocatorIS7_L18MemLabelIdentifier1ELi16EEE7destroyEPNS_11__tree_nodeIS7_PvEE
aLj:_Nullable_1__ctor_m796575255_gshared
lxd:__ZN6il2cpp2vm8Profiler7GCEventE13Il2CppGCEvent
Aue:_DateTimeUtils_ToString_m3878360633
Ejd:__ZN6il2cpp6icalls8mscorlib6SystemL16ThrowInvalidCastEPK11Il2CppClassS5_
GGa:__Z13IsDepthFormat14GraphicsFormat
Bzb:__ZN12AspectRatios8TransferI24GenerateTypeTreeTransferEEvRT_
PYd:_StandaloneInputModule_ForceAutoSelect_m1167170508
pwc:__Z12FormatBufferPciPKcz
_Yd:_TouchInputModule_Process_m1373751353
Rf:_emscripten_glUniform1fv
Mdh:_MethodBuilder_Invoke_m1874904900
zYc:__ZN6il2cpp2vm5Class13GetArrayClassEP11Il2CppClassj
rL:__ZN4FMOD7Channel7setModeEj
Pah:_DerivedType_InvokeMember_m4149586013
UXa:__ZN15RenderNodeQueueC2E18MemLabelIdentifier
u1h:__ZL88UTF7Encoding_t741406939_CustomAttributesCacheGenerator_UTF7Encoding_GetBytes_m3015176946P21CustomAttributesCache
QLi:_AnimatorControllerPlayable_GetNextAnimatorStateInfo_m1690618991
C5f:_TlsStream_SetLength_m1460039587
Rlc:__ZN11IMGUIModule12AddGUIScriptER8ListNodeI13MonoBehaviourE
rb:invoke_difi
UWd:_PointerEventData_set_rawPointerPress_m1484888025
Q8:__ZL50StaticRegisterSceneLoadedCallback_LightmapSettingsPv
Pje:_SimpleEnumerator_Clone_m215554974
CLg:__Z119RuntimeInvoker_Void_t1841601450_RuntimeObject_RuntimeObject_RuntimeObject_RuntimeObject_Int32_t2071877448_RuntimeObjectPFvvEPK10MethodInfoPvPS4_
W$a:__ZN29MotionVectorRenderLoopScratch15ThreadedCleanupEv
Om:FUNCTION_TABLE_iiffi
Z4d:_GridLayoutGroup_get_cellSize_m1061731753
nGa:__ZN21GLESGpuProgramApplier11ApplyVectorERKN20GpuProgramParameters14ValueParameterEPK8Vector4ft
F4a:__Z17PrepareSceneNodesP11CullResults
dwj:_Vector4_ToString_m2340321043_AdjustorThunk
rra:__ZN6prcoreL27StretchGenericFloatBilinearI18TexFormatRGBAFloatEEvPKNS_9InnerInfoE
Ikj:_Parser_IsIgnoreCase_m4155598997
Xmd:__ZN15dense_hashtableINSt3__24pairIK10KeyWrapperIP14Il2CppIUnknownEjEES5_N6il2cpp5utils11PointerHashIS3_EEN14dense_hash_mapIS5_jSB_NS5_14EqualsComparerINS0_8equal_toIS4_EEEENS0_9allocatorIS7_EEE9SelectKeyESG_SI_E12expand_arrayEjN21dense_hash_map_traits17integral_constantIbLb0EEE
ZFc:_cff_size_done
eNh:_EqualityComparer_1_System_Collections_IEqualityComparer_Equals_m3376587337_gshared
BWa:__ZN22RenderingCommandBuffer13GetAndCheckRTE24BuiltinRenderTextureTypeRKN9ShaderLab16FastPropertyNameEPKcPP13RenderTexture
hbb:__ZN6Camera34UpdatePreviousViewProjectionMatrixEv
Hla:__ZN9ShaderLab11ShaderState25RemoveUnsupportedProgramsEPK6Shader
xWb:__ZL23AddGpuProgramParametersR20GpuProgramParametersRKNSt3__26vectorIN9ShaderLab20SerializedSubProgram15MatrixParameterENS1_9allocatorIS5_EEEERKNS2_INS4_15VectorParameterENS6_ISB_EEEEiP16PropertyNamesSet
j8h:__ZL179U3CCreateWhereIteratorU3Ec__Iterator1D_1_t2523986802_CustomAttributesCacheGenerator_U3CCreateWhereIteratorU3Ec__Iterator1D_1_System_Collections_IEnumerator_get_Current_m1354814095P21CustomAttributesCache
Njc:__Z44Register_UnityEngine_Object_DestroyImmediatev
EUh:__ZL57CompareOptions_t2829943955_CustomAttributesCacheGeneratorP21CustomAttributesCache
Mcc:__Z47Register_UnityEngine_Component_BroadcastMessagev
Qr:__ZN18StreamedBinaryReadILb0EE21TransferSTLStyleArrayI13dynamic_arrayI4PPtrI6ObjectELj4EEEEvRT_17TransferMetaFlags
yYh:__ZL62_ConstructorBuilder_t1236878896_CustomAttributesCacheGeneratorP21CustomAttributesCache
o9b:__Z26scripting_class_has_parent17ScriptingClassPtrS_
Y_e:_Int64_System_IConvertible_ToInt16_m2022633688_AdjustorThunk
S7:__ZN13RuntimeStaticI21AssetReferenceStorageLb0EE16StaticInitializeEPv
IFd:__ZN6il2cpp8metadata25Il2CppGenericClassCompare7CompareEPK18Il2CppGenericClassS4_
aC:__ZNK8Animator20IsInMatchTargetStateEv
uai:__ZL89GameObject_t1756533147_CustomAttributesCacheGenerator_GameObject_GetComponent_m3775849122P21CustomAttributesCache
wmc:__Z36Register_UnityEngine_GUI_set_changedv
f0d:_ColorTween_get_startColor_m278546349_AdjustorThunk
_rg:_Encoding_get_Unicode_m1382741113
G$i:_LifetimeServices_set_SponsorshipTimeout_m1403222216
SWe:_NumberFormatInfo_get_PositiveSign_m3396333026
m6g:__Z37RuntimeInvoker_Enumerator_t1147558385PFvvEPK10MethodInfoPvPS4_
Uhe:_Char_ToString_m1401375624_AdjustorThunk
nKe:_Array_InternalArray__ICollection_Add_TisTableRange_t2011406615_m147373358_gshared
Jqe:_Convert_ToDateTime_m1251728572
RIi:_AnimationMixerPlayable_op_Explicit_m2834005805
pKe:_Array_InternalArray__ICollection_Add_TisBoolean_t3825574718_m1009318882_gshared
ARf:_ReadOnlyCollection_1_System_Collections_IList_set_Item_m1149349508_gshared
kw:__ZN27AnimationLayerMixerPlayable18SetInputConnectionEP8Playablei
_nc:__Z42Register_UnityEngine_GUIStyle_get_wordWrapv
Wv:__ZN7mecanim28TransformValueArrayBlendNodeEiiiRKNS_10ValueArrayERKNS_14ValueArrayMaskERS0_RS3_RNS_16ValueArrayWeightEf
Img:_ObjectReader_ReadObjectContent_m3949770110
lvf:_List_1_System_Collections_ICollection_get_SyncRoot_m3031553207_gshared
xUi:_Component_SendMessage_m4199581575
$Zc:__ZN6il2cpp2vm5Class40GetInterfaceInvokeDataFromVTableSlowPathEPK12Il2CppObjectPK11Il2CppClassj
ulb:__ZN20TierGraphicsSettings8TransferI18StreamedBinaryReadILb0EEEEvRT_
qFi:_Text_get_font_m3115501113
Oid:__GLOBAL__sub_I_Thread_cpp
Wma:__ZN14SafeBinaryRead8TransferINSt3__24pairIN9ShaderLab16FastPropertyNameE10ColorRGBAfEEEEvRT_PKc17TransferMetaFlags
mXc:__ZL9rshift128PyS_
Cmg:_ObjectReader_RecordFixup_m1893348030
YRe:_LayoutGroup_SetProperty_TisRuntimeObject_m1703476175_gshared
k6g:__Z49RuntimeInvoker_UIVertex_t1204258818_RuntimeObjectPFvvEPK10MethodInfoPvPS4_
Cgd:__ZN14dense_hash_mapI10KeyWrapperINSt3__24pairIPK12PropertyInfoP11Il2CppClassEEEj17ReflectionMapHashIS8_ENS9_14EqualsComparerINS1_8equal_toIS8_EEEENS1_9allocatorINS2_IKS9_jEEEEE13set_empty_keyERSH_
fk:_glRenderbufferStorage
cod:__ZNK15dense_hashtableINSt3__24pairIK10KeyWrapperINS1_IPKcS4_EEEiEES6_24NamespaceAndNamePairHashN14dense_hash_mapIS6_iS9_NS6_14EqualsComparerI26NamespaceAndNamePairEqualsEENS0_9allocatorIS8_EEE9SelectKeyESD_SF_E13find_positionERS7_
XVh:__ZL80ILGenerator_t99948092_CustomAttributesCacheGenerator_ILGenerator_Emit_m116557729P21CustomAttributesCache
Xec:__Z45Register_UnityEngine_Input_get_touchSupportedv
qSc:__ZN11UnityEngine15PlatformWrapper28GetTextureFormatSupportFlagsEv
ABc:_UNITY_FT_Create_Class_pshinter_module_class
_Qd:_String_CompareOrdinalCaseInsensitiveUnchecked_m2002640463
mfe:_Boolean_GetHashCode_m1894638460
CGc:_cf2_setError
evb:__ZN14SafeBinaryRead21TransferSTLStyleArrayI13dynamic_arrayI12BoneWeights4Lj16EEEEvRT_17TransferMetaFlags
bDg:_UIntPtr_ToUInt32_m1679632738_AdjustorThunk
oug:_UTF7Encoding_InternalGetChars_m4157428055
Aua:__Z33InterpolateLightProbeCoefficientsRK17LightProbeContextRK29LightProbeSamplingCoordinatesR20SphericalHarmonicsL2
qdi:__ZL86Texture_t2243626319_CustomAttributesCacheGenerator_Texture_Internal_GetWidth_m56137242P21CustomAttributesCache
aUa:__ZZ23InitPlayerLoopCallbacksvEN35PreUpdateSendMouseEventsRegistrator7ForwardEv
zgf:_SmallXmlParser_HandleBufferedContent_m3397096753
m_g:__Z55RuntimeInvoker_Void_t1841601450_SpriteState_t1353336012PFvvEPK10MethodInfoPvPS4_
dh:_glDisable
w9d:_InputField_OnDeselect_m3963675647
T5i:_InternalEnumerator_1_MoveNext_m1994485778_AdjustorThunk
YQc:__Z44Register_UnityEngine_Canvas_get_pixelPerfectv
kmf:_KeyValuePair_2_get_Value_m1916631176_AdjustorThunk
T8g:_MethodBase__ctor_m3951051358
nhb:__ZN4PPtrI9Texture2DE8TransferI14SafeBinaryReadEEvRT_
Bwd:__ZN6il2cpp5utils11StringUtils15StringDuplicateEPKDsj
I1d:_Dropdown_get_template_m3014799983
keg:_BaseMachine_Scan_m122450399
Pw:__ZN17AnimationPlayable17ProcessRootMotionEP35AnimationPlayableEvaluationConstantP32AnimationPlayableEvaluationInputP33AnimationPlayableEvaluationOutput
IYg:__Z73RuntimeInvoker_PlayableOutput_t988259697_ScriptPlayableOutput_t1666207618PFvvEPK10MethodInfoPvPS4_
Fie:_ArrayList_CopyTo_m2353632788
BWh:__ZL71AssemblyFileVersionAttribute_t2897687916_CustomAttributesCacheGeneratorP21CustomAttributesCache
J8:__ZNSt3__26vectorINS_4pairIyP17VertexDeclarationEENS_9allocatorIS4_EEE6assignIPS4_EENS_9enable_ifIXaasr21__is_forward_iteratorIT_EE5valuesr16is_constructibleIS4_NS_15iterator_traitsISB_E9referenceEEE5valueEvE4typeESB_SB_
zsf:_List_1_Add_m943275925_gshared
cNi:_AnimatorControllerPlayable_CrossFade_m3391147919_AdjustorThunk
CGd:_HMAC_get_BlockSizeValue_m603907214
nVa:__ZNK8Material12GetPassCountEv
ioe:_Enumerator__cctor_m3784927209
Q$j:b110
R$j:b111
S$j:b112
OQj:_bitshift64Ashr
U$j:b114
V$j:b115
W$j:b116
Y$j:b117
m1c:__ZN30dense_hashtable_const_iteratorINSt3__24pairIK10KeyWrapperIN6il2cpp5utils13dynamic_arrayIPK10Il2CppTypeLj4EEEEPFvvEEESA_NS3_8metadata19Il2CppSignatureHashEN14dense_hash_mapISA_SD_SG_NSA_14EqualsComparerINSF_22Il2CppSignatureCompareEEENS0_9allocatorISE_EEE9SelectKeyESK_SM_E30advance_past_empty_and_deletedEv
NSi:_WillRenderCanvases_EndInvoke_m3215676440
RHa:__ZN4crnd12crn_unpacker22decode_alpha_endpointsEv
F5a:__Z23CullDynamicObjectsUmbraPK4AABBPKN5Umbra15OcclusionBufferER9IndexList
pIf:_Collection_1_RemoveItem_m2565709010_gshared
Nx:__ZThn148_NK26AnimatorControllerPlayable41GetStateMachineBehaviourVectorDescriptionEv
zDc:_tt_cmap4_char_next
aCf:_Queue_1_System_Collections_ICollection_get_IsSynchronized_m307125669_gshared
KZg:__Z49RuntimeInvoker_TouchScreenKeyboardType_t875112366PFvvEPK10MethodInfoPvPS4_
wPb:__ZN18StreamedBinaryReadILb1EE21TransferSTLStyleArrayI13dynamic_arrayIiLj4EEEEvRT_17TransferMetaFlags
JWg:__Z444RuntimeInvoker_Boolean_t3825574718_RuntimeObject_RuntimeObject_RuntimeObject_ColorU26_t3402129837_Int32_t2071877448_Single_t2076509932_Single_t2076509932_Int32_t2071877448_SByte_t454417549_SByte_t454417549_Int32_t2071877448_Int32_t2071877448_Int32_t2071877448_Int32_t2071877448_SByte_t454417549_Int32_t2071877448_Single_t2076509932_Single_t2076509932_Single_t2076509932_Single_t2076509932_SByte_t454417549_SByte_t454417549_UInt32U26_t2197289955PFvvEPK10MethodInfoPvPS4_
Amj:_GeneralNames_ToString_m800435094
_Zd:_BaseMeshEffect_OnDidApplyAnimationProperties_m2484799839
a$h:__ZL73AsymmetricSignatureDeformatter_t3580832979_CustomAttributesCacheGeneratorP21CustomAttributesCache
HSd:_ASCIIEncoding_GetString_m3931709239
sai:__ZL97GameObject_t1756533147_CustomAttributesCacheGenerator_GameObject__ctor_m1633632305____components1P21CustomAttributesCache
QAg:_UInt16_Parse_m3560204090
Yuc:__ZN8JSONRead21TransferSTLStyleArrayI13dynamic_arrayIsLj2EEEEvRT_18MemLabelIdentifier17TransferMetaFlags
dL:__ZN4FMOD7Channel11setPositionEjj
Wh:_glBindSampler
PSf:_ReadOnlyCollection_1_System_Collections_Generic_ICollectionU3CTU3E_Clear_m964488020_gshared
ROd:_SecurityFrame_get_Domain_m3219347572_AdjustorThunk
_h:_glGetVertexAttribiv
ZJd:_SHA1__ctor_m788472966
rKe:_Array_InternalArray__ICollection_Add_TisChar_t3454481338_m422084244_gshared
c$c:__ZNSt3__218uninitialized_fillIPNS_4pairIK10KeyWrapperIPKcEP11Il2CppClassEES9_EEvT_SB_RKT0_
BMc:__ZN2UI11CanvasGroup23VirtualRedirectTransferER18StreamedBinaryReadILb0EE
aEh:_Transform_1_EndInvoke_m803975703_gshared
MSf:_ReadOnlyCollection_1_get_Item_m3778245964_gshared
I4h:__ZL52EventArgs_t3289624707_CustomAttributesCacheGeneratorP21CustomAttributesCache
euc:__ZN8JSONRead8TransferIbEEvRT_PKc17TransferMetaFlagsb
KEf:_Collection_1_RemoveAt_m290627370_gshared
wHi:_AnimationEvent_get_objectReferenceParameter_m3565420672
RWd:_PointerEventData_get_lastPress_m3835070463
trh:_DefaultValueAttribute_Equals_m3216982933
rag:_X509KeyUsageExtension_Decode_m3292847033
xWg:__Z44RuntimeInvoker_AnimatorStateInfo_t2577870592PFvvEPK10MethodInfoPvPS4_
YYg:__Z52RuntimeInvoker_RaycastResult_t21186376_RuntimeObjectPFvvEPK10MethodInfoPvPS4_
wgh:_Module_filter_by_type_name_ignore_case_m3574895736
RZh:__ZL57ProxyAttribute_t4031752430_CustomAttributesCacheGeneratorP21CustomAttributesCache
Npb:__ZN26CustomRenderTextureManager19PreAllocateMaterialEP19CustomRenderTexture
xwc:__ZN19ControllerHitReport13onObstacleHitERKN5physx23PxControllerObstacleHitE
img:_ObjectReader_ReadObject_m397855326
vyd:_GC_promote_black_lists
_5d:_Image_get_fillAmount_m3354146540
Ruc:__Z29Transfer_Blittable_ArrayFieldI8JSONRead8Vector4fEvRT_R9ArrayInfoRK23StaticTransferFieldInfo
gqf:_List_1_Sort_m1518807012_gshared
Zn:FUNCTION_TABLE_vf
zo:FUNCTION_TABLE_vd
xzg:_Type_GetMethod_m1930231379
Bo:FUNCTION_TABLE_vi
m7:__ZN13RuntimeStaticI37UnityShaderCompilerExtPluginConfigureLb0EE16StaticInitializeEPv
CVh:__ZL55StreamReader_t2360341767_CustomAttributesCacheGeneratorP21CustomAttributesCache
Tqh:_HumanBone_get_humanName_m2091758568_AdjustorThunk
Pbf:_SimpleCollator_GetContraction_m1391584430
pfe:_CultureInfo_get_InvariantCulture_m398972276
Ree:_Boolean_System_IConvertible_ToInt64_m4142756949_AdjustorThunk
j9h:__ZL84Camera_t189460977_CustomAttributesCacheGenerator_Camera_get_targetTexture_m705925974P21CustomAttributesCache
FE:__ZNK8Animator17HasBoundPlayablesEv
kAj:_U3CStartU3Ec__Iterator0__ctor_m1750247524_gshared
KWf:_HMAC_initializePad_m3828610671
XNh:_EqualityComparer_1_System_Collections_IEqualityComparer_Equals_m1089835085_gshared
Ftf:_List_1_Contains_m980727749_gshared
LJd:_RSAParameters_t1462703416_marshal_pinvoke_cleanup
o6c:__ZN6il2cpp2vm7Runtime9SetConfigEPKc
M$i:_ConfigHandler_OnChars_m2004226744
cPi:_AsyncOperation_get_priority_m966065939
ta:invoke_iiifiii
Kkd:__ZN6il2cpp2vm9Exception11FromNameMsgEPK11Il2CppImagePKcS6_S6_
EWe:_NumberFormatInfo_get_NumberDecimalDigits_m3706097953
izg:_Type_internal_from_name_m1506974323
en:FUNCTION_TABLE_fiiifii
t0:__Z14GetTimeManagerv
XVc:__ZN19TransportJavaScript7CleanupEv
Whb:__Z12GUIDToStringRK9UnityGUIDPc
vQi:_AudioMixerPlayable_GetAutoNormalizeVolumes_m2199898677_AdjustorThunk
PBh:_Enumerator_System_Collections_IDictionaryEnumerator_get_Value_m3005608231_AdjustorThunk
xO:__ZN11AudioSource22UnmuteActiveVideoSinksEv
ywd:__ZN4utf88internal20is_overlong_sequenceIiEEbjT_
iQi:_AudioMixerPlayable__ctor_m2704850458
Ti:_glReadBuffer
Vje:_SynchronizedArrayListWrapper_get_Count_m4104930530
vGd:_HashAlgorithm_get_HashSize_m2625667696
u1a:__Z30SetupBakedOcclusionForGeometrybRK26SharedLightmapSettingsDataRK15LightmapIndicesR17ShaderPassContext
wPe:_Array_Resize_TisVector4_t2243707581_m1528805937_gshared
NMd:_SecurityPermission_IsSubsetOf_m1087302418
Scc:__Z41Register_UnityEngine_Cursor_get_lockStatev
T0a:__Z14SetupLightmapsRK8Vector4fS1_R17ShaderPassContext
afd:__ZN14dense_hash_mapI10KeyWrapperIPK14Il2CppAssemblyEPK22Il2CppMonoAssemblyNameN6il2cpp5utils11PointerHashIS2_EENS4_14EqualsComparerINSt3__28equal_toIS3_EEEENSD_9allocatorINSD_4pairIKS4_S7_EEEEE13set_empty_keyERSJ_
Yfg:_Interval_get_Empty_m3170923997
hVa:__ZL20InitializeGUIShadersv
I$b:__Z20DestroyObjectDelayedP6Objectf
n_:__ZN20DynamicHeapAllocatorI17LowLevelAllocatorED0Ev
L8d:_InputField_OnDrag_m726194348
uZi:_GuidAttribute__ctor_m1099153635
Xcf:_PreviousInfo__ctor_m1442166472_AdjustorThunk
p_a:__ZN9DepthPassD2Ev
Yue:_DateTime_get_Kind_m1331920314_AdjustorThunk
dK:__ZN11AudioFilter6GetDSPEv
Vyc:__ZN20TextRenderingPrivate15DynamicFontData36GetFaceForCharacterIfAvailableInFontERKNS_7FontRefERKNSt3__26vectorI4PPtrIN13TextRendering4FontEE13stl_allocatorIS9_L18MemLabelIdentifier34ELi16EEEEj
w2:__ZN19RuntimeSceneManager14CanUnloadSceneEP10UnityScene
HOg:__Z50RuntimeInvoker_Single_t2076509932_Int64_t909078037PFvvEPK10MethodInfoPvPS4_
s_a:__Z22ExtractRenderNodeQueueRK11CullResults15ExtractionFlagsR15RenderNodeQueue
w1c:__ZN14dense_hash_mapI10KeyWrapperIN6il2cpp5utils13dynamic_arrayIPK10Il2CppTypeLj4EEEEPFvvENS1_8metadata19Il2CppSignatureHashENS8_14EqualsComparerINSB_22Il2CppSignatureCompareEEENSt3__29allocatorINSG_4pairIKS8_SA_EEEEEC2EjRKSC_RKSF_
Btd:__ZN6il2cpp2vm6Method7GetNameEPK10MethodInfo
EBf:_List_1_set_Item_m1431784996_gshared
rJ:__ZN24AudioScriptBufferManagerC2Ev
vyc:__ZNSt3__26vectorIh13stl_allocatorIhL18MemLabelIdentifier1ELi16EEE8__appendEj
rIg:__Z95RuntimeInvoker_Void_t1841601450_RuntimeObject_Int32_t2071877448_Int32_t2071877448_RuntimeObjectPFvvEPK10MethodInfoPvPS4_
yyc:__ZN20TextRenderingPrivate8FontImpl16ResetPackingDataEv
Axg:_TimeSpan_get_Hours_m3804628138_AdjustorThunk
eJe:_Array_InternalArray__IndexOf_TisLink_t865133271_m3612939760_gshared
mqc:__Z18Transfer_BlittableI9JSONWriteLb0EfEvRK29SerializationCommandArgumentsR31RuntimeSerializationCommandInfo
Via:__Z21GetAsyncUploadManagerv
Kj:_emscripten_glDetachShader
TRh:__ZL66RuntimeArray_CustomAttributesCacheGenerator_Array_Sort_m3500510484P21CustomAttributesCache
Waf:_SafeHandleZeroOrMinusOneIsInvalid_get_IsInvalid_m2033528032
Ghe:_Char_IsUpper_m4083577610
cHa:__ZN17GenericDynamicVBO20ReleaseChunkInternalERK21DynamicVBOChunkHandlejj
iLc:__ZL27CleanupModule_TextRenderingv
Vaf:_SafeHandleZeroOrMinusOneIsInvalid__ctor_m3340306667
pNj:_fmodl
Mjg:_SerializationInfo_AddValue_m902275108
DNj:_fmodf
iLf:_Collection_1_RemoveItem_m2272047354_gshared
bka:__ZN12CachedWriter11Align4WriteEv
v$a:__Z20DoDeferredRenderLoopR17RenderLoopContextR13dynamic_arrayI16RenderObjectDataLj4EES4_RK11CullResultsRP13RenderTextureSA_Pb
Nxa:__ZNSt3__26vectorIiNS_9allocatorIiEEE21__push_back_slow_pathIKiEEvRT_
Oii:__ZL95TextGenerator_t647235000_CustomAttributesCacheGenerator_TextGenerator_get_lineCount_m4287181941P21CustomAttributesCache
oya:__ZN19RuntimeSceneManager11CreateSceneEv
PFc:_ps_get_standard_strings
mGf:_Collection_1_IsValidItem_m1908012838_gshared
t1a:__Z27SetupBakedOcclusionForLightbRK15SharedLightDataR17ShaderPassContext
XDd:__ZN6il2cpp2os5Mutex6UnlockEv
f8f:__ZN21InterfaceFuncInvoker1IP13Uri_t19570940S1_E6InvokeEjP11Il2CppClassP12Il2CppObjectS1_
ELi:_AnimatorControllerPlayable_GetLayerWeight_m1435294989
ECi:_ScrollRect_OnScroll_m3346515304
UPj:__ZN10__cxxabiv116__shim_type_infoD2Ev
kof:_Enumerator_System_Collections_IEnumerator_get_Current_m3461301268_gshared
YHg:__Z63RuntimeInvoker_Void_t1841601450_Int32_t2071877448_RuntimeObjectPFvvEPK10MethodInfoPvPS4_
GIh:_Dictionary_2_CopyToCheck_m1638253305_gshared
$Va:__Z18RenderImageFiltersR10RenderLoopb
X_:__Z19free_alloc_internalPv18MemLabelIdentifier
GPc:__Z43CanvasRenderer_Get_Custom_PropMaterialCountP12Il2CppObject
Yrh:__ZN23InterfaceActionInvoker2IP21Exception_t1927440687P18Object_t1021602117E6InvokeEjP11Il2CppClassP12Il2CppObjectS1_S3_
k9a:__ZN10GameObjectD2Ev
UNf:_ReadOnlyCollection_1_System_Collections_Generic_IListU3CTU3E_set_Item_m25653560_gshared
olh:_GUIContent_t4210063000_marshal_pinvoke_cleanup
wp:__ZN6Object23VirtualRedirectTransferER19StreamedBinaryWriteILb1EE
kac:__ZNK9BlobWrite24HasOffsetPtrWithDebugPtrEv
Yui:__ZL68Selectable_t1490392188_CustomAttributesCacheGenerator_m_InteractableP21CustomAttributesCache
XTi:_Color32_op_Implicit_m889975790
oXi:_UnityEventBase_RebuildPersistentCallsIfNeeded_m1583202007
KYf:_CertificateSelectionCallback_Invoke_m2902629105
l8:__ZN10InputEventD2Ev
ZVe:_DateTimeFormatInfo_GetAllDateTimePatternsInternal_m1587126173
Juj:_Vector2_ToString_m775491729_AdjustorThunk
lNd:_Evidence__ctor_m1638117806
VHf:__ZN21InterfaceFuncInvoker1Ib22UICharInfo_t3056636800E6InvokeEjP11Il2CppClassP12Il2CppObjectS0_
nVe:_NumberFormatter_Append_m3268121457
N6i:_InternalEnumerator_1_Dispose_m3578333724_AdjustorThunk
DWc:__ZN22UnityWebRequestManagerD2Ev
uJd:_RSA_ToXmlString_m4145056574
Jze:_Double_System_IConvertible_ToUInt64_m1318285078_AdjustorThunk
WMj:_isalpha
VPi:_AudioClipPlayable_SetStartDelayInternal_m1268437955
kBi:_Selectable_FindSelectable_m2739582497
L5d:_LayoutGroup_GetAlignmentOnAxis_m1783063916
Cue:_DateTimeUtils_ZeroPad_m86470512
IRh:__ZL69RuntimeArray_CustomAttributesCacheGenerator_Array_IndexOf_m2447301431P21CustomAttributesCache
cJi:_AnimationOffsetPlayable_Equals_m3411254421
k4c:__ZN6il2cpp2vmL17IsSocketAsyncCallEP14Il2CppDelegate
URi:_Camera_get_clearFlags_m1743144302
Rrh:_Logger_IsLogTypeAllowed_m1750132386
Wvd:__ZN6il2cpp2vm6String6NewLenEPKcj
Hjb:__ZN6Camera23VirtualRedirectTransferER19StreamedBinaryWriteILb0EE
Nsd:__ZN6il2cpp2os6Thread12GetApartmentEv
WOa:__ZN9GfxDevice28UpdateComputeConstantBuffersEjP12ObjectHandleI18ConstantBuffer_TagPvEjjPKhPKjS8_PKi
Zk:_time
_si:__ZL79GraphicRaycaster_t410733016_CustomAttributesCacheGenerator_U3CU3Ef__amU24cache0P21CustomAttributesCache
mDj:_EqualityComparer_1_System_Collections_IEqualityComparer_Equals_m1091252481_gshared
z4d:_Graphic_UnregisterDirtyLayoutCallback_m1724443555
Vwa:__ZN14BatchAllocator6CommitE18MemLabelIdentifier
jHc:_cf2_stack_free
eWd:_ExecuteEvents_get_pointerClickHandler_m713983310
vKi:_AnimatorControllerPlayable_GetBool_m217461036_AdjustorThunk
Ou:__ZN7mecanim9animation19EvaluateFloatValuesEPKNS0_18ClipMuscleConstantEPKNS_18ValueArrayConstantEPKNS0_12ClipBindingsEPKNS0_10ClipOutputEPNS0_18AnimationNodeStateEfbb
W2:__ZN15dense_hashtableINSt3__24pairIKiP6ObjectEEi21InstanceIDHashFunctorN14dense_hash_mapIiS4_S6_NS0_8equal_toIiEE13stl_allocatorIS5_L18MemLabelIdentifier65ELi16EEE9SelectKeyES9_SC_E12resize_deltaEjj
vwi:__ZL94LayoutGroup_t3962498969_CustomAttributesCacheGenerator_LayoutGroup_DelayedSetDirty_m4276695617P21CustomAttributesCache
FC:__ZN8Animator31ClearInternalControllerPlayableEv
XKi:_AnimatorControllerPlayable_SetTrigger_m4033120343_AdjustorThunk
oEg:_WeakReference_Finalize_m3318354542
F9a:__ZN10GameObject8TransferI24GenerateTypeTreeTransferEEvRT_
Pof:_Enumerator_VerifyState_m3913376581_gshared
Zvi:__ZL72GridLayoutGroup_t1515633077_CustomAttributesCacheGenerator_m_StartCornerP21CustomAttributesCache
h8h:__ZL83U3CCreateWhereIteratorU3Ec__Iterator1D_1_t2523986802_CustomAttributesCacheGeneratorP21CustomAttributesCache
pOg:__Z51RuntimeInvoker_Int16_t4041245914_Double_t4078015681PFvvEPK10MethodInfoPvPS4_
Uad:__ZN15dense_hashtableINSt3__24pairIK10KeyWrapperINS1_IPK9FieldInfoP11Il2CppClassEEEjEES9_17ReflectionMapHashIS8_EN14dense_hash_mapIS9_jSD_NS9_14EqualsComparerINS0_8equal_toIS8_EEEENS0_9allocatorISB_EEE9SelectKeyESI_SK_E4findERSA_
P_j:_glDeleteSync__wrapper
Fqj:_SerializePrivateVariables__ctor_m806793207
gre:_Decimal_op_Implicit_m623319612
pFh:_ValueCollection_System_Collections_Generic_ICollectionU3CTValueU3E_Remove_m98888100_gshared
sVd:_EventTrigger_OnPointerExit_m2119176877
ywg:_ThreadAbortException__ctor_m1623816114
u0b:__ZN13ProduceHelperI30RuntimeInitializeOnLoadManagerLb0EE7ProduceE18MemLabelIdentifier18ObjectCreationMode
J7a:__ZN13RenderTexture19SetAutoGenerateMipsEb
_oa:__Z20GetTextureFormatInfo13TextureFormat
Ync:__Z43Register_UnityEngine_GUIStyle_get_alignmentv
QKg:__Z119RuntimeInvoker_RuntimeObject_RuntimeObject_RuntimeObject_Int32_t2071877448_Int32_t2071877448_MonoIOErrorU26_t1029615899PFvvEPK10MethodInfoPvPS4_
yx:__ZN26AnimatorControllerPlayable8GetFloatEiRf
SFe:_PlayableHandle_IsPlayableOfType_TisRuntimeObject_m4111068959_gshared
Yhi:__ZL137AnimatorControllerPlayable_t1744083903_CustomAttributesCacheGenerator_AnimatorControllerPlayable_INTERNAL_CALL_GetFloatString_m3491224295P21CustomAttributesCache
gMi:_AnimatorControllerPlayable_GetCurrentAnimatorClipInfoCount_m3938711391
SYc:__ZN6il2cpp2vm5Class4InitEP11Il2CppClass
eXd:_PointerEventData_set_worldPosition_m192283671
HEf:_Collection_1_InsertItem_m1391780791_gshared
ISj:dynCall_iiifiiii
qOb:__ZN18StreamedBinaryReadILb1EE5AlignEv
Evj:_Vector3_get_right_m1884123822
oCd:__ZN6il2cpp5utils10MemoryPool6MallocEj
MI:__ZN11SoundHandle8InstanceD2Ev
yba:__ZN31CanvasBatchIntermediateRenderer13StaticDestroyEPv
Dpj:_X509Store_BuildCrlsCollection_m52567568
I2c:__ZNK15dense_hashtableINSt3__24pairIK10KeyWrapperIPK11Il2CppClassEPKcEES6_N6il2cpp5utils11PointerHashIS3_EEN14dense_hash_mapIS6_S9_SE_NS6_14EqualsComparerINS0_8equal_toIS5_EEEENS0_9allocatorISA_EEE9SelectKeyESJ_SL_E10test_emptyERK24dense_hashtable_iteratorISA_S6_SE_SN_SJ_SL_E
ung:_CallbackHandler__ctor_m1235509347
xfc:__Z29Mesh_CUSTOM_RecalculateBoundsP12Il2CppObject
xOf:_ReadOnlyCollection_1_System_Collections_Generic_ICollectionU3CTU3E_get_IsReadOnly_m3561954522_gshared
sAe:_Enum_ToString_m662345249
jqf:_List_1_get_Capacity_m531373308_gshared
ITg:__Z150RuntimeInvoker_Single_t2076509932_Single_t2076509932_Single_t2076509932_SingleU26_t4173844468_Single_t2076509932_Single_t2076509932_Single_t2076509932PFvvEPK10MethodInfoPvPS4_
k$h:__ZL66DESCryptoServiceProvider_t933603253_CustomAttributesCacheGeneratorP21CustomAttributesCache
Pcc:__Z41Register_UnityEngine_CullingGroup_Disposev
fPg:__Z54RuntimeInvoker_Boolean_t3825574718_DateTime_t693205669PFvvEPK10MethodInfoPvPS4_
Eob:__ZN7Cubemap23VirtualRedirectTransferER19StreamedBinaryWriteILb0EE
PQa:__ZN25MultiBlocksMemoryFileData5WriteEyyPKv
Pdd:__ZNSt3__218uninitialized_fillIPNS_4pairIK10KeyWrapperINS1_IPK12PropertyInfoP11Il2CppClassEEEjEESB_EEvT_SD_RKT0_
_wf:_List_1_System_Collections_IList_Add_m4271264217_gshared
l2i:_Action_1_BeginInvoke_m1305519803_gshared
Yfd:__ZN14dense_hash_mapI10KeyWrapperIPK10Il2CppTypeEjN6il2cpp8metadata14Il2CppTypeHashENS4_14EqualsComparerINS6_26Il2CppTypeEqualityComparerEEENSt3__29allocatorINSB_4pairIKS4_jEEEEE13set_empty_keyERSE_
Ccc:__Z35Component_CUSTOM_SendMessageUpwardsP12Il2CppObjectP12Il2CppStringS0_i
YIa:__ZL17ProgramUniform2fvPK7ApiGLESjiihPKv
mYj:b83
qyc:__ZN20TextRenderingPrivate8FontImpl21HasCharacterInTextureEjijfPj
qOj:_htonl
AEa:__Z20GetBufferManagerGLESv
jIe:__ZN21InterfaceFuncInvoker1Ii18Color32_t874517518E6InvokeEjP11Il2CppClassP12Il2CppObjectS0_
MQb:__ZN18StreamedBinaryReadILb0EE21TransferSTLStyleArrayI31ArrayOfManagedObjectsTransfererEEvRT_17TransferMetaFlags
zug:_UTF7Decoder_GetChars_m2790530452
rOj:_htons
etc:__Z18Transfer_BlittableI8JSONReadLb0EtEvRK29SerializationCommandArgumentsR31RuntimeSerializationCommandInfo
ned:__ZN15dense_hashtableINSt3__24pairIK10KeyWrapperINS1_IPK9EventInfoP11Il2CppClassEEEjEES9_17ReflectionMapHashIS8_EN14dense_hash_mapIS9_jSD_NS9_14EqualsComparerINS0_8equal_toIS8_EEEENS0_9allocatorISB_EEE9SelectKeyESI_SK_E12expand_arrayEjN21dense_hash_map_traits17integral_constantIbLb0EEE
ioh:_GUIStyle_t1799908754_marshal_pinvoke_back
Ugi:__ZL148AnimatorControllerPlayable_t1744083903_CustomAttributesCacheGenerator_AnimatorControllerPlayable_INTERNAL_CALL_GetParameterCountInternal_m3540558817P21CustomAttributesCache
Sob:__ZNK7Cubemap20GetTextureLayerCountEv
HAc:_pshinter_module_class_pic_free
gui:__ZL68Navigation_t1571958496_CustomAttributesCacheGenerator_m_SelectOnLeftP21CustomAttributesCache
fy:__ZN34AnimationStateMachineMixerPlayable13EndTransitionEv
rwd:__ZNSt3__212basic_stringIDsNS_11char_traitsIDsEENS_9allocatorIDsEEE9__grow_byEjjjjjj
IK:__ZN12AudioManager21FixMasterGroupRoutingEv
tLd:_SymmetricAlgorithm_set_Key_m2973350820
zsi:__ZL58FontData_t2614388407_CustomAttributesCacheGenerator_m_FontP21CustomAttributesCache
u9f:_WebHeaderCollection_IsHeaderValue_m1723393133
Cxc:__ZN20TextRenderingPrivate8FontImpl13CharacterInfo8TransferI24GenerateTypeTreeTransferEEvRT_
Tof:_Enumerator_Dispose_m3717265706_AdjustorThunk
WIg:__Z69RuntimeInvoker_Boolean_t3825574718_Int32_t2071877448_SByte_t454417549PFvvEPK10MethodInfoPvPS4_
ztd:__ZN6il2cpp2os10ThreadImpl33UnregisterCurrentThreadForCleanupEv
E9h:__ZL97Component_t3819376471_CustomAttributesCacheGenerator_Component_GetComponentInChildren_m3985003615P21CustomAttributesCache
nw:__ZN27AnimationLayerMixerPlayable22PrepareAnimationEventsEfR13dynamic_arrayI22AnimationClipEventInfoLj4EE
REb:__Z18Transfer_BlittableI14SafeBinaryReadLb1E4AABBEvRK29SerializationCommandArgumentsR31RuntimeSerializationCommandInfo
ksd:__ZN6il2cpp6icalls8mscorlib6System4Enum12get_hashcodeEP12Il2CppObject
osd:__ZN6il2cpp6icalls8mscorlib6System9AppDomain12getCurDomainEv
KYg:__Z34RuntimeInvoker_LogType_t1559732862PFvvEPK10MethodInfoPvPS4_
M9:__Z22CreateMutexLockedQueue18MemLabelIdentifier
_kf:_AppDomain_get_CurrentDomain_m3432767403
Qda:__ZNK13ScreenManager16GetScreenTimeoutEv
xJ:__ZN9AudioClip7WWWOpenEPKciPjPPvS4_
h7h:__ZL66Uri_t19570940_CustomAttributesCacheGenerator_Uri__ctor_m3854873816P21CustomAttributesCache
KEb:__Z18Transfer_BlittableI14SafeBinaryReadLb0E8Vector2fEvRK29SerializationCommandArgumentsR31RuntimeSerializationCommandInfo
Fvi:__ZL101ToggleGroup_t1030026315_CustomAttributesCacheGenerator_ToggleGroup_U3CAnyTogglesOnU3Em__0_m1218114300P21CustomAttributesCache
s3b:__ZZN13BuildSettingsC1E18MemLabelIdentifier18ObjectCreationModeEN38initializedPreloadedPluginsRegistrator7ForwardEv
hod:__ZN15dense_hashtableINSt3__24pairIK10KeyWrapperINS1_IPKcS4_EEEiEES6_24NamespaceAndNamePairHashN14dense_hash_mapIS6_iS9_NS6_14EqualsComparerI26NamespaceAndNamePairEqualsEENS0_9allocatorIS8_EEE9SelectKeyESD_SF_E12resize_deltaEjj
nOe:_Array_InternalArray__set_Item_TisPlayableBinding_t2498078091_m2071396616_gshared
Vc:_emscripten_glVertexAttrib2f
FTb:__ZN15SerializeTraitsIN9ShaderLab20SerializedSubProgram16TextureParameterEE8TransferI14SafeBinaryReadEEvRS2_RT_
Sfe:_Byte_System_IConvertible_ToInt16_m1575115635_AdjustorThunk
V_i:_CrossAppDomainData_get_ProcessID_m2865289777
EAg:_UInt16_System_IConvertible_ToUInt16_m1646506872_AdjustorThunk
h0i:_Context_get_HasGlobalDynamicSinks_m3205328884
mcf:_SimpleCollator_CompareQuick_m619038530
dvi:__ZL93Selectable_t1490392188_CustomAttributesCacheGenerator_Selectable_get_isPointerDown_m774209881P21CustomAttributesCache
Z4f:_SslStreamBase_EndRead_m1072850679
LYf:_CertificateSelectionCallback_BeginInvoke_m990408067
YOa:__ZN9GfxDevice22DispatchComputeProgramE12ObjectHandleI18ComputeProgram_TagPvEjjj
nd:_SDL_GetTicks
hkf:_X509CertificateEnumerator_System_Collections_IEnumerator_get_Current_m1643583406
$Nc:__ZN2UI14CanvasRenderer11SyncCullingENS0_8SyncFlagE
Ncd:__ZN15dense_hashtableINSt3__24pairIK10KeyWrapperINS1_IPK11Il2CppImageP11Il2CppClassEEEjEES9_17ReflectionMapHashIS8_EN14dense_hash_mapIS9_jSD_NS9_14EqualsComparerINS0_8equal_toIS8_EEEENS0_9allocatorISB_EEE9SelectKeyESI_SK_E6insertERKSB_
i5a:__Z21CreateShadowCullerJobP30CreateUmbraShadowCullerJobData
$rh:_Material_get_mainTexture_m432794412
QIa:__ZL18ProgramUniform2uivPK7ApiGLESjiihPKv
mAj:_U3CStartU3Ec__Iterator0_System_Collections_Generic_IEnumeratorU3CobjectU3E_get_Current_m1702093362_gshared
vZj:_glUniform4iv__wrapper
i2a:__Z33GenerateShadowCasterPartsSortDataRK16ShadowCasterDatajRK15RenderNodeQueueRKNSt3__26vectorI20ShadowCasterPartData13stl_allocatorIS7_L18MemLabelIdentifier2ELi16EEEERK10Matrix4x4fRjP20ShadowCasterSortData
Vhe:_Char_GetTypeCode_m2251277629_AdjustorThunk
